	.text
	.syntax unified
	.eabi_attribute	67, "2.09"	@ Tag_conformance
	.cpu	cortex-a8
	.eabi_attribute	6, 10	@ Tag_CPU_arch
	.eabi_attribute	7, 65	@ Tag_CPU_arch_profile
	.eabi_attribute	8, 1	@ Tag_ARM_ISA_use
	.eabi_attribute	9, 2	@ Tag_THUMB_ISA_use
	.fpu	neon
	.eabi_attribute	17, 1	@ Tag_ABI_PCS_GOT_use
	.eabi_attribute	20, 2	@ Tag_ABI_FP_denormal
	.eabi_attribute	23, 1	@ Tag_ABI_FP_number_model
	.eabi_attribute	34, 1	@ Tag_CPU_unaligned_access
	.eabi_attribute	24, 1	@ Tag_ABI_align_needed
	.eabi_attribute	25, 1	@ Tag_ABI_align_preserved
	.eabi_attribute	28, 1	@ Tag_ABI_VFP_args
	.eabi_attribute	38, 1	@ Tag_ABI_FP_16bit_format
	.eabi_attribute	18, 4	@ Tag_ABI_PCS_wchar_t
	.eabi_attribute	26, 2	@ Tag_ABI_enum_size
	.eabi_attribute	14, 0	@ Tag_ABI_PCS_R9_use
	.eabi_attribute	68, 1	@ Tag_Virtualization_use
	.file	"/root/Bela/projects/Thesis/build/AudioEffects.bc"
	.file	1 "/root/Bela/projects/Thesis" "AudioEffects.cpp"
	.file	2 "/usr/bin/../lib/gcc/arm-linux-gnueabihf/6.3.0/../../../../include/arm-linux-gnueabihf/c++/6.3.0/bits" "c++config.h"
	.file	3 "/usr/bin/../lib/gcc/arm-linux-gnueabihf/6.3.0/../../../../include/c++/6.3.0/bits" "alloc_traits.h"
	.file	4 "/usr/bin/../lib/gcc/arm-linux-gnueabihf/6.3.0/../../../../include/c++/6.3.0/ext" "new_allocator.h"
	.file	5 "/usr/bin/../lib/gcc/arm-linux-gnueabihf/6.3.0/../../../../include/arm-linux-gnueabihf/c++/6.3.0/bits" "c++allocator.h"
	.file	6 "/usr/bin/../lib/gcc/arm-linux-gnueabihf/6.3.0/../../../../include/c++/6.3.0/bits" "allocator.h"
	.file	7 "/usr/bin/../lib/gcc/arm-linux-gnueabihf/6.3.0/../../../../include/c++/6.3.0/ext" "alloc_traits.h"
	.file	8 "/usr/bin/../lib/gcc/arm-linux-gnueabihf/6.3.0/../../../../include/c++/6.3.0/bits" "stl_vector.h"
	.file	9 "/usr/bin/../lib/gcc/arm-linux-gnueabihf/6.3.0/../../../../include/c++/6.3.0" "type_traits"
	.file	10 "/usr/include/arm-linux-gnueabihf/bits" "math-finite.h"
	.file	11 "/usr/include/arm-linux-gnueabihf/bits" "mathcalls.h"
	.file	12 "/usr/include/arm-linux-gnueabihf/bits" "mathdef.h"
	.file	13 "/usr/bin/../lib/gcc/arm-linux-gnueabihf/6.3.0/../../../../include/c++/6.3.0" "cmath"
	.file	14 "/root/Bela/projects/Thesis/build" "AudioEffects.cpp"
	.file	15 "/usr/bin/../lib/gcc/arm-linux-gnueabihf/6.3.0/../../../../include/c++/6.3.0/debug" "debug.h"
	.file	16 "/usr/bin/../lib/gcc/arm-linux-gnueabihf/6.3.0/../../../../include/c++/6.3.0/bits" "exception_ptr.h"
	.file	17 "/usr/include" "stdlib.h"
	.file	18 "/usr/include/arm-linux-gnueabihf/bits" "stdlib-float.h"
	.file	19 "/usr/include/arm-linux-gnueabihf/bits" "stdlib-bsearch.h"
	.file	20 "/usr/lib/llvm-3.9/bin/../lib/clang/3.9.1/include" "stddef.h"
	.file	21 "/usr/bin/../lib/gcc/arm-linux-gnueabihf/6.3.0/../../../../include/c++/6.3.0" "cstdlib"
	.section	.text._ZNSt6vectorIfSaIfEED2Ev,"axG",%progbits,_ZNSt6vectorIfSaIfEED2Ev,comdat
	.weak	_ZNSt6vectorIfSaIfEED2Ev
	.p2align	2
	.type	_ZNSt6vectorIfSaIfEED2Ev,%function
_ZNSt6vectorIfSaIfEED2Ev:               @ @_ZNSt6vectorIfSaIfEED2Ev
.Lfunc_begin0:
	.loc	8 426 0                 @ /usr/bin/../lib/gcc/arm-linux-gnueabihf/6.3.0/../../../../include/c++/6.3.0/bits/stl_vector.h:426:0
	.fnstart
	.cfi_startproc
@ BB#0:
	.save	{r4, r10, r11, lr}
	push	{r4, r10, r11, lr}
.Ltmp0:
	.cfi_def_cfa_offset 16
.Ltmp1:
	.cfi_offset lr, -4
.Ltmp2:
	.cfi_offset r11, -8
.Ltmp3:
	.cfi_offset r10, -12
.Ltmp4:
	.cfi_offset r4, -16
	.setfp	r11, sp, #8
	add	r11, sp, #8
.Ltmp5:
	.cfi_def_cfa r11, 8
	@DEBUG_VALUE: ~vector:this <- %R0
	mov	r4, r0
.Ltmp6:
	@DEBUG_VALUE: ~vector:this <- %R4
	.loc	8 160 37 prologue_end   @ /usr/bin/../lib/gcc/arm-linux-gnueabihf/6.3.0/../../../../include/c++/6.3.0/bits/stl_vector.h:160:37
	ldr	r0, [r4]
.Ltmp7:
	@DEBUG_VALUE: _M_deallocate:__p <- %R0
	@DEBUG_VALUE: deallocate:__p <- %R0
	@DEBUG_VALUE: deallocate:__p <- %R0
	.loc	8 177 6                 @ /usr/bin/../lib/gcc/arm-linux-gnueabihf/6.3.0/../../../../include/c++/6.3.0/bits/stl_vector.h:177:6
	cmp	r0, #0
	beq	.LBB0_2
.Ltmp8:
@ BB#1:
	@DEBUG_VALUE: deallocate:__p <- %R0
	@DEBUG_VALUE: deallocate:__p <- %R0
	@DEBUG_VALUE: _M_deallocate:__p <- %R0
	@DEBUG_VALUE: ~vector:this <- %R4
	.loc	4 110 9                 @ /usr/bin/../lib/gcc/arm-linux-gnueabihf/6.3.0/../../../../include/c++/6.3.0/ext/new_allocator.h:110:9
	bl	_ZdlPv
.Ltmp9:
.LBB0_2:                                @ %_ZNSt12_Vector_baseIfSaIfEED2Ev.exit
	@DEBUG_VALUE: ~vector:this <- %R4
	.loc	8 427 33 discriminator 1 @ /usr/bin/../lib/gcc/arm-linux-gnueabihf/6.3.0/../../../../include/c++/6.3.0/bits/stl_vector.h:427:33
	mov	r0, r4
	pop	{r4, r10, r11, pc}
.Ltmp10:
.Lfunc_end0:
	.size	_ZNSt6vectorIfSaIfEED2Ev, .Lfunc_end0-_ZNSt6vectorIfSaIfEED2Ev
	.cfi_endproc
	.fnend

	.text
	.globl	_Z10roundValuef
	.p2align	3
	.type	_Z10roundValuef,%function
_Z10roundValuef:                        @ @_Z10roundValuef
.Lfunc_begin1:
	.loc	1 52 0                  @ /root/Bela/projects/Thesis/AudioEffects.cpp:52:0
	.fnstart
	.cfi_startproc
@ BB#0:
	@DEBUG_VALUE: roundValue:value <- %S0
	.loc	1 53 25 prologue_end    @ /root/Bela/projects/Thesis/AudioEffects.cpp:53:25
	vmov.f32	d16, #1.000000e+01
                                        @ kill: %S0<def> %S0<kill> %D0<def>
.Ltmp11:
	.loc	1 53 32 is_stmt 0       @ /root/Bela/projects/Thesis/AudioEffects.cpp:53:32
	vldr	d17, .LCPI1_0
	.loc	1 53 25                 @ /root/Bela/projects/Thesis/AudioEffects.cpp:53:25
	vmul.f32	d16, d0, d16
	.loc	1 53 18                 @ /root/Bela/projects/Thesis/AudioEffects.cpp:53:18
	vcvt.s32.f32	d0, d16
	.loc	1 53 12                 @ /root/Bela/projects/Thesis/AudioEffects.cpp:53:12
	vcvt.f64.s32	d16, s0
	.loc	1 53 32                 @ /root/Bela/projects/Thesis/AudioEffects.cpp:53:32
	vmul.f64	d16, d16, d17
	.loc	1 53 12                 @ /root/Bela/projects/Thesis/AudioEffects.cpp:53:12
	vcvt.f32.f64	s0, d16
	.loc	1 53 5                  @ /root/Bela/projects/Thesis/AudioEffects.cpp:53:5
	bx	lr
.Ltmp12:
	.p2align	3
@ BB#1:
.LCPI1_0:
	.long	2576980378              @ double 0.10000000000000001
	.long	1069128089
.Lfunc_end1:
	.size	_Z10roundValuef, .Lfunc_end1-_Z10roundValuef
	.cfi_endproc
	.fnend

	.globl	_Z16BrightIndoorsAdjf
	.p2align	2
	.type	_Z16BrightIndoorsAdjf,%function
_Z16BrightIndoorsAdjf:                  @ @_Z16BrightIndoorsAdjf
.Lfunc_begin2:
	.loc	1 56 0 is_stmt 1        @ /root/Bela/projects/Thesis/AudioEffects.cpp:56:0
	.fnstart
	.cfi_startproc
@ BB#0:
	@DEBUG_VALUE: BrightIndoorsAdj:value <- %S0
	@DEBUG_VALUE: BrightIndoorsAdj:pitchFactorCompensated <- %S0
                                        @ kill: %S0<def> %S0<kill> %D0<def>
.Ltmp13:
	.loc	1 59 29 prologue_end    @ /root/Bela/projects/Thesis/AudioEffects.cpp:59:29
	vldr	s2, .LCPI2_0
.Ltmp14:
	.loc	1 59 6 is_stmt 0        @ /root/Bela/projects/Thesis/AudioEffects.cpp:59:6
	vcmpe.f32	s0, s2
	vmrs	APSR_nzcv, fpscr
	bge	.LBB2_2
@ BB#1:
	vmov.f32	d0, #5.000000e-01
	.loc	1 69 2 is_stmt 1        @ /root/Bela/projects/Thesis/AudioEffects.cpp:69:2
                                        @ kill: %S0<def> %S0<kill> %D0<kill>
	bx	lr
.LBB2_2:
.Ltmp15:
	.loc	1 62 44 discriminator 1 @ /root/Bela/projects/Thesis/AudioEffects.cpp:62:44
	vcmpe.f32	s0, s2
	vmrs	APSR_nzcv, fpscr
	blt	.LBB2_5
.Ltmp16:
@ BB#3:
	vldr	s2, .LCPI2_1
	vcmpe.f32	s0, s2
	vmrs	APSR_nzcv, fpscr
	bge	.LBB2_5
@ BB#4:
	vmov.f32	d0, #1.000000e+00
	.loc	1 69 2                  @ /root/Bela/projects/Thesis/AudioEffects.cpp:69:2
                                        @ kill: %S0<def> %S0<kill> %D0<kill>
	bx	lr
.LBB2_5:
.Ltmp17:
	.loc	1 66 36 discriminator 1 @ /root/Bela/projects/Thesis/AudioEffects.cpp:66:36
	vldr	s2, .LCPI2_1
	.loc	1 66 13 is_stmt 0 discriminator 1 @ /root/Bela/projects/Thesis/AudioEffects.cpp:66:13
	vcmpe.f32	s0, s2
	vmrs	APSR_nzcv, fpscr
	blt	.LBB2_7
.Ltmp18:
@ BB#6:
	vmov.f32	d0, #1.500000e+00
.Ltmp19:
	@DEBUG_VALUE: BrightIndoorsAdj:pitchFactorCompensated <- 1.500000e+00
.LBB2_7:
	.loc	1 69 2 is_stmt 1        @ /root/Bela/projects/Thesis/AudioEffects.cpp:69:2
                                        @ kill: %S0<def> %S0<kill> %D0<kill>
	bx	lr
.Ltmp20:
	.p2align	2
@ BB#8:
.LCPI2_0:
	.long	1061997773              @ float 0.800000011
.LCPI2_1:
	.long	1067030938              @ float 1.20000005
.Lfunc_end2:
	.size	_Z16BrightIndoorsAdjf, .Lfunc_end2-_Z16BrightIndoorsAdjf
	.cfi_endproc
	.fnend

	.globl	_Z13DimIndoorsAdjf
	.p2align	2
	.type	_Z13DimIndoorsAdjf,%function
_Z13DimIndoorsAdjf:                     @ @_Z13DimIndoorsAdjf
.Lfunc_begin3:
	.loc	1 72 0                  @ /root/Bela/projects/Thesis/AudioEffects.cpp:72:0
	.fnstart
	.cfi_startproc
@ BB#0:
	@DEBUG_VALUE: DimIndoorsAdj:value <- %S0
	@DEBUG_VALUE: DimIndoorsAdj:pitchFactorCompensated <- %S0
                                        @ kill: %S0<def> %S0<kill> %D0<def>
.Ltmp21:
	.loc	1 75 29 prologue_end    @ /root/Bela/projects/Thesis/AudioEffects.cpp:75:29
	vldr	s2, .LCPI3_0
.Ltmp22:
	.loc	1 75 6 is_stmt 0        @ /root/Bela/projects/Thesis/AudioEffects.cpp:75:6
	vcmpe.f32	s0, s2
	vmrs	APSR_nzcv, fpscr
	bge	.LBB3_2
@ BB#1:
	vmov.f32	d0, #5.000000e-01
	.loc	1 85 2 is_stmt 1        @ /root/Bela/projects/Thesis/AudioEffects.cpp:85:2
                                        @ kill: %S0<def> %S0<kill> %D0<kill>
	bx	lr
.LBB3_2:
.Ltmp23:
	.loc	1 78 44 discriminator 1 @ /root/Bela/projects/Thesis/AudioEffects.cpp:78:44
	vcmpe.f32	s0, s2
	vmrs	APSR_nzcv, fpscr
	blt	.LBB3_5
.Ltmp24:
@ BB#3:
	vldr	s2, .LCPI3_1
	vcmpe.f32	s0, s2
	vmrs	APSR_nzcv, fpscr
	bge	.LBB3_5
@ BB#4:
	vmov.f32	d0, #1.000000e+00
	.loc	1 85 2                  @ /root/Bela/projects/Thesis/AudioEffects.cpp:85:2
                                        @ kill: %S0<def> %S0<kill> %D0<kill>
	bx	lr
.LBB3_5:
.Ltmp25:
	.loc	1 82 36 discriminator 1 @ /root/Bela/projects/Thesis/AudioEffects.cpp:82:36
	vldr	s2, .LCPI3_1
	.loc	1 82 13 is_stmt 0 discriminator 1 @ /root/Bela/projects/Thesis/AudioEffects.cpp:82:13
	vcmpe.f32	s0, s2
	vmrs	APSR_nzcv, fpscr
	blt	.LBB3_7
.Ltmp26:
@ BB#6:
	vmov.f32	d0, #1.500000e+00
.Ltmp27:
	@DEBUG_VALUE: DimIndoorsAdj:pitchFactorCompensated <- 1.500000e+00
.LBB3_7:
	.loc	1 85 2 is_stmt 1        @ /root/Bela/projects/Thesis/AudioEffects.cpp:85:2
                                        @ kill: %S0<def> %S0<kill> %D0<kill>
	bx	lr
.Ltmp28:
	.p2align	2
@ BB#8:
.LCPI3_0:
	.long	1058642330              @ float 0.600000024
.LCPI3_1:
	.long	1066192077              @ float 1.10000002
.Lfunc_end3:
	.size	_Z13DimIndoorsAdjf, .Lfunc_end3-_Z13DimIndoorsAdjf
	.cfi_endproc
	.fnend

	.globl	_Z5delayff
	.p2align	2
	.type	_Z5delayff,%function
_Z5delayff:                             @ @_Z5delayff
.Lfunc_begin4:
	.loc	1 89 0                  @ /root/Bela/projects/Thesis/AudioEffects.cpp:89:0
	.fnstart
	.cfi_startproc
@ BB#0:
	.save	{r4, r5, r6, r7, r8, lr}
	push	{r4, r5, r6, r7, r8, lr}
.Ltmp29:
	.cfi_def_cfa_offset 24
.Ltmp30:
	.cfi_offset lr, -4
.Ltmp31:
	.cfi_offset r8, -8
.Ltmp32:
	.cfi_offset r7, -12
.Ltmp33:
	.cfi_offset r6, -16
.Ltmp34:
	.cfi_offset r5, -20
.Ltmp35:
	.cfi_offset r4, -24
	.vsave	{d8}
	vpush	{d8}
.Ltmp36:
	.cfi_def_cfa_offset 32
.Ltmp37:
	.cfi_offset d8, -32
	@DEBUG_VALUE: delay:audio_l <- %S0
	@DEBUG_VALUE: delay:audio_r <- %S1
.Ltmp38:
	.loc	1 92 8 prologue_end     @ /root/Bela/projects/Thesis/AudioEffects.cpp:92:8
	movw	r1, :lower16:.L_MergedGlobals
	.loc	1 92 27 is_stmt 0       @ /root/Bela/projects/Thesis/AudioEffects.cpp:92:27
	movw	r3, #44099
	.loc	1 92 8                  @ /root/Bela/projects/Thesis/AudioEffects.cpp:92:8
	movt	r1, :upper16:.L_MergedGlobals
.Ltmp39:
	.loc	1 98 87 is_stmt 1       @ /root/Bela/projects/Thesis/AudioEffects.cpp:98:87
	movw	r6, #44100
.Ltmp40:
	.loc	1 92 8                  @ /root/Bela/projects/Thesis/AudioEffects.cpp:92:8
	ldr	r2, [r1]
.Ltmp41:
	.loc	1 98 54                 @ /root/Bela/projects/Thesis/AudioEffects.cpp:98:54
	movw	r12, :lower16:gDelayBuffer_l
	movt	r12, :upper16:gDelayBuffer_l
	vmov.f32	s10, s1
.Ltmp42:
	@DEBUG_VALUE: delay:audio_r <- %S10
	.loc	1 92 8                  @ /root/Bela/projects/Thesis/AudioEffects.cpp:92:8
	add	r8, r2, #1
.Ltmp43:
	.loc	1 92 8 is_stmt 0        @ /root/Bela/projects/Thesis/AudioEffects.cpp:92:8
	cmp	r2, r3
	movwgt	r8, #0
	.loc	1 111 62 is_stmt 1      @ /root/Bela/projects/Thesis/AudioEffects.cpp:111:62
	add	r2, r8, r3
	movw	r3, #61839
.Ltmp44:
	.loc	1 93 27                 @ /root/Bela/projects/Thesis/AudioEffects.cpp:93:27
	str	r8, [r1]
	movt	r3, #12173
.Ltmp45:
	.loc	1 98 88                 @ /root/Bela/projects/Thesis/AudioEffects.cpp:98:88
	ldr	r5, [r1, #12]
	.loc	1 111 69                @ /root/Bela/projects/Thesis/AudioEffects.cpp:111:69
	smmul	r4, r2, r3
	.loc	1 98 87                 @ /root/Bela/projects/Thesis/AudioEffects.cpp:98:87
	add	r7, r8, r6
	.loc	1 98 103 is_stmt 0      @ /root/Bela/projects/Thesis/AudioEffects.cpp:98:103
	sub	r7, r7, r5
                                        @ kill: %S0<def> %S0<kill> %D0<def>
.Ltmp46:
	.loc	1 98 26                 @ /root/Bela/projects/Thesis/AudioEffects.cpp:98:26
	vldr	s16, [r1, #8]
	.loc	1 99 54 is_stmt 1       @ /root/Bela/projects/Thesis/AudioEffects.cpp:99:54
	movw	lr, :lower16:gDelayBuffer_r
	.loc	1 98 110                @ /root/Bela/projects/Thesis/AudioEffects.cpp:98:110
	smmul	r5, r7, r3
	.loc	1 98 120 is_stmt 0      @ /root/Bela/projects/Thesis/AudioEffects.cpp:98:120
	vldr	s14, [r1, #4]
	.loc	1 98 42                 @ /root/Bela/projects/Thesis/AudioEffects.cpp:98:42
	vmul.f32	d19, d8, d0
	.loc	1 99 54 is_stmt 1       @ /root/Bela/projects/Thesis/AudioEffects.cpp:99:54
	movt	lr, :upper16:gDelayBuffer_r
	.loc	1 112 19                @ /root/Bela/projects/Thesis/AudioEffects.cpp:112:19
	vldr	s4, [r1, #56]
	.loc	1 111 69                @ /root/Bela/projects/Thesis/AudioEffects.cpp:111:69
	asr	r0, r4, #13
	.loc	1 111 19 is_stmt 0      @ /root/Bela/projects/Thesis/AudioEffects.cpp:111:19
	vldr	s2, [r1, #52]
	.loc	1 111 69                @ /root/Bela/projects/Thesis/AudioEffects.cpp:111:69
	add	r0, r0, r4, lsr #31
	.loc	1 112 62 is_stmt 1      @ /root/Bela/projects/Thesis/AudioEffects.cpp:112:62
	movw	r4, #44098
	add	r4, r8, r4
	.loc	1 111 69                @ /root/Bela/projects/Thesis/AudioEffects.cpp:111:69
	mls	r2, r0, r6, r2
	.loc	1 112 69                @ /root/Bela/projects/Thesis/AudioEffects.cpp:112:69
	smmul	r3, r4, r3
	asr	r0, r3, #13
	add	r0, r0, r3, lsr #31
	mls	r3, r0, r6, r4
	.loc	1 98 110                @ /root/Bela/projects/Thesis/AudioEffects.cpp:98:110
	asr	r0, r5, #13
	add	r0, r0, r5, lsr #31
	mls	r4, r0, r6, r7
	.loc	1 111 27                @ /root/Bela/projects/Thesis/AudioEffects.cpp:111:27
	add	r0, r12, r2, lsl #2
	vldr	s6, [r0]
	.loc	1 112 27                @ /root/Bela/projects/Thesis/AudioEffects.cpp:112:27
	add	r0, r12, r3, lsl #2
	.loc	1 111 26                @ /root/Bela/projects/Thesis/AudioEffects.cpp:111:26
	vmul.f32	d17, d3, d1
	.loc	1 109 19                @ /root/Bela/projects/Thesis/AudioEffects.cpp:109:19
	vldr	s6, [r1, #44]
	.loc	1 112 27                @ /root/Bela/projects/Thesis/AudioEffects.cpp:112:27
	vldr	s8, [r0]
	.loc	1 98 54                 @ /root/Bela/projects/Thesis/AudioEffects.cpp:98:54
	add	r0, r12, r4, lsl #2
	.loc	1 112 26                @ /root/Bela/projects/Thesis/AudioEffects.cpp:112:26
	vmul.f32	d16, d4, d2
	.loc	1 108 19                @ /root/Bela/projects/Thesis/AudioEffects.cpp:108:19
	vldr	s8, [r1, #40]
	.loc	1 98 54                 @ /root/Bela/projects/Thesis/AudioEffects.cpp:98:54
	vldr	s12, [r0]
	.loc	1 99 54                 @ /root/Bela/projects/Thesis/AudioEffects.cpp:99:54
	add	r0, lr, r4, lsl #2
	.loc	1 98 118                @ /root/Bela/projects/Thesis/AudioEffects.cpp:98:118
	vmul.f32	d18, d7, d6
	.loc	1 99 54                 @ /root/Bela/projects/Thesis/AudioEffects.cpp:99:54
	vldr	s0, [r0]
	.loc	1 125 27                @ /root/Bela/projects/Thesis/AudioEffects.cpp:125:27
	add	r0, lr, r2, lsl #2
	.loc	1 126 27                @ /root/Bela/projects/Thesis/AudioEffects.cpp:126:27
	add	r2, lr, r3, lsl #2
.Ltmp47:
	@DEBUG_VALUE: delay:temp_x_r <- %S0
	@DEBUG_VALUE: delay:del_input_r <- %S0
	.loc	1 98 52                 @ /root/Bela/projects/Thesis/AudioEffects.cpp:98:52
	vadd.f32	d6, d18, d19
	.loc	1 99 42                 @ /root/Bela/projects/Thesis/AudioEffects.cpp:99:42
	vmul.f32	d19, d8, d5
	.loc	1 110 27                @ /root/Bela/projects/Thesis/AudioEffects.cpp:110:27
	vldr	s16, [r1, #64]
	.loc	1 99 118                @ /root/Bela/projects/Thesis/AudioEffects.cpp:99:118
	vmul.f32	d18, d0, d7
	.loc	1 109 27                @ /root/Bela/projects/Thesis/AudioEffects.cpp:109:27
	vldr	s14, [r1, #60]
	.loc	1 110 19                @ /root/Bela/projects/Thesis/AudioEffects.cpp:110:19
	vldr	s10, [r1, #48]
.Ltmp48:
	.loc	1 115 15                @ /root/Bela/projects/Thesis/AudioEffects.cpp:115:15
	vstr	s14, [r1, #64]
	.loc	1 116 15                @ /root/Bela/projects/Thesis/AudioEffects.cpp:116:15
	vstr	s12, [r1, #60]
	.loc	1 99 52                 @ /root/Bela/projects/Thesis/AudioEffects.cpp:99:52
	vadd.f32	d0, d18, d19
.Ltmp49:
	@DEBUG_VALUE: delay:del_input_l <- %S12
	@DEBUG_VALUE: delay:temp_x_l <- %S12
	.loc	1 117 17                @ /root/Bela/projects/Thesis/AudioEffects.cpp:117:17
	ldr	r3, [r1, #68]
	.loc	1 109 26                @ /root/Bela/projects/Thesis/AudioEffects.cpp:109:26
	vmul.f32	d19, d7, d3
	.loc	1 117 15                @ /root/Bela/projects/Thesis/AudioEffects.cpp:117:15
	str	r3, [r1, #72]
	@DEBUG_VALUE: delay:del_input_l <- %S12
	.loc	1 108 26                @ /root/Bela/projects/Thesis/AudioEffects.cpp:108:26
	vmul.f32	d18, d4, d6
	.loc	1 126 27                @ /root/Bela/projects/Thesis/AudioEffects.cpp:126:27
	vldr	s14, [r2]
	.loc	1 109 17                @ /root/Bela/projects/Thesis/AudioEffects.cpp:109:17
	vadd.f32	d18, d19, d18
	.loc	1 110 26                @ /root/Bela/projects/Thesis/AudioEffects.cpp:110:26
	vmul.f32	d19, d8, d5
	.loc	1 110 17 is_stmt 0      @ /root/Bela/projects/Thesis/AudioEffects.cpp:110:17
	vadd.f32	d18, d18, d19
	.loc	1 111 17 is_stmt 1      @ /root/Bela/projects/Thesis/AudioEffects.cpp:111:17
	vadd.f32	d17, d18, d17
	.loc	1 112 17                @ /root/Bela/projects/Thesis/AudioEffects.cpp:112:17
	vadd.f32	d6, d17, d16
.Ltmp50:
	.loc	1 122 26                @ /root/Bela/projects/Thesis/AudioEffects.cpp:122:26
	vmul.f32	d16, d4, d0
	.loc	1 125 27                @ /root/Bela/projects/Thesis/AudioEffects.cpp:125:27
	vldr	s8, [r0]
	.loc	1 126 26                @ /root/Bela/projects/Thesis/AudioEffects.cpp:126:26
	vmul.f32	d17, d7, d2
	.loc	1 125 26                @ /root/Bela/projects/Thesis/AudioEffects.cpp:125:26
	vmul.f32	d18, d4, d1
	.loc	1 118 15                @ /root/Bela/projects/Thesis/AudioEffects.cpp:118:15
	vstr	s12, [r1, #68]
	.loc	1 123 27                @ /root/Bela/projects/Thesis/AudioEffects.cpp:123:27
	vldr	s2, [r1, #76]
	.loc	1 124 27                @ /root/Bela/projects/Thesis/AudioEffects.cpp:124:27
	vldr	s4, [r1, #80]
	.loc	1 123 26                @ /root/Bela/projects/Thesis/AudioEffects.cpp:123:26
	vmul.f32	d19, d1, d3
	.loc	1 128 15                @ /root/Bela/projects/Thesis/AudioEffects.cpp:128:15
	vstr	s2, [r1, #80]
	.loc	1 124 26                @ /root/Bela/projects/Thesis/AudioEffects.cpp:124:26
	vmul.f32	d20, d2, d5
	.loc	1 129 15                @ /root/Bela/projects/Thesis/AudioEffects.cpp:129:15
	vstr	s0, [r1, #76]
	.loc	1 130 17                @ /root/Bela/projects/Thesis/AudioEffects.cpp:130:17
	ldr	r0, [r1, #84]
	.loc	1 130 15 is_stmt 0      @ /root/Bela/projects/Thesis/AudioEffects.cpp:130:15
	str	r0, [r1, #88]
.Ltmp51:
	@DEBUG_VALUE: delay:del_input_r <- %S0
	.loc	1 134 5 is_stmt 1       @ /root/Bela/projects/Thesis/AudioEffects.cpp:134:5
	add	r0, r12, r8, lsl #2
	.loc	1 123 17                @ /root/Bela/projects/Thesis/AudioEffects.cpp:123:17
	vadd.f32	d16, d19, d16
	.loc	1 134 39                @ /root/Bela/projects/Thesis/AudioEffects.cpp:134:39
	vstr	s12, [r0]
	.loc	1 135 5                 @ /root/Bela/projects/Thesis/AudioEffects.cpp:135:5
	add	r0, lr, r8, lsl #2
	.loc	1 124 17                @ /root/Bela/projects/Thesis/AudioEffects.cpp:124:17
	vadd.f32	d16, d16, d20
	.loc	1 125 17                @ /root/Bela/projects/Thesis/AudioEffects.cpp:125:17
	vadd.f32	d16, d16, d18
	.loc	1 126 17                @ /root/Bela/projects/Thesis/AudioEffects.cpp:126:17
	vadd.f32	d0, d16, d17
.Ltmp52:
	.loc	1 131 15                @ /root/Bela/projects/Thesis/AudioEffects.cpp:131:15
	vstr	s0, [r1, #84]
	.loc	1 135 39                @ /root/Bela/projects/Thesis/AudioEffects.cpp:135:39
	vstr	s0, [r0]
	.loc	1 138 2                 @ /root/Bela/projects/Thesis/AudioEffects.cpp:138:2
	vpop	{d8}
	pop	{r4, r5, r6, r7, r8, pc}
.Ltmp53:
.Lfunc_end4:
	.size	_Z5delayff, .Lfunc_end4-_Z5delayff
	.cfi_endproc
	.fnend

	.globl	_Z10pitchShiftfffRfS_
	.p2align	2
	.type	_Z10pitchShiftfffRfS_,%function
_Z10pitchShiftfffRfS_:                  @ @_Z10pitchShiftfffRfS_
.Lfunc_begin5:
	.loc	1 140 0                 @ /root/Bela/projects/Thesis/AudioEffects.cpp:140:0
	.fnstart
	.cfi_startproc
@ BB#0:
	.save	{r4, r5, r6, r7, r8, r9, r10, r11, lr}
	push	{r4, r5, r6, r7, r8, r9, r10, r11, lr}
.Ltmp54:
	.cfi_def_cfa_offset 36
.Ltmp55:
	.cfi_offset lr, -4
.Ltmp56:
	.cfi_offset r11, -8
.Ltmp57:
	.cfi_offset r10, -12
.Ltmp58:
	.cfi_offset r9, -16
.Ltmp59:
	.cfi_offset r8, -20
.Ltmp60:
	.cfi_offset r7, -24
.Ltmp61:
	.cfi_offset r6, -28
.Ltmp62:
	.cfi_offset r5, -32
.Ltmp63:
	.cfi_offset r4, -36
	.setfp	r11, sp, #28
	add	r11, sp, #28
.Ltmp64:
	.cfi_def_cfa r11, 8
	.pad	#4
	sub	sp, sp, #4
	.vsave	{d8}
	vpush	{d8}
.Ltmp65:
	.cfi_offset d8, -48
	@DEBUG_VALUE: pitchShift:sensor <- %S0
	@DEBUG_VALUE: pitchShift:audio_l <- %S1
	@DEBUG_VALUE: pitchShift:audio_r <- %S2
	@DEBUG_VALUE: pitchShift:outputL <- %R0
	@DEBUG_VALUE: pitchShift:outputR <- %R1
.Ltmp66:
	@DEBUG_VALUE: pitchShift:outputR <- [%SP+4]
	push	{r0, r1}
.Ltmp67:
	@DEBUG_VALUE: pitchShift:outputL <- [%SP+0]
	vorr	d2, d0, d0
.Ltmp68:
	@DEBUG_VALUE: pitchShift:sensor <- %S4
	.loc	1 75 29 prologue_end    @ /root/Bela/projects/Thesis/AudioEffects.cpp:75:29
	vldr	s0, .LCPI5_0
	vmov.f32	d3, #5.000000e-01
.Ltmp69:
	@DEBUG_VALUE: map:out_max <- 1.500000e+00
	@DEBUG_VALUE: map:out_min <- 5.000000e-01
	@DEBUG_VALUE: map:in_max <- 1.000000e+00
	@DEBUG_VALUE: map:in_min <- 0.000000e+00
	.loc	1 142 18                @ /root/Bela/projects/Thesis/AudioEffects.cpp:142:18
	movw	r6, :lower16:.L_MergedGlobals
	movt	r6, :upper16:.L_MergedGlobals
.Ltmp70:
	@DEBUG_VALUE: DimIndoorsAdj:value <- %S4
	@DEBUG_VALUE: DimIndoorsAdj:pitchFactorCompensated <- %S4
	.file	22 "./include" "Utilities.h"
	.loc	22 73 64                @ ./include/Utilities.h:73:64
	vadd.f32	d2, d2, d3
.Ltmp71:
	.loc	1 75 6                  @ /root/Bela/projects/Thesis/AudioEffects.cpp:75:6
	vcmpe.f32	s4, s0
.Ltmp72:
	.loc	1 142 18                @ /root/Bela/projects/Thesis/AudioEffects.cpp:142:18
	vstr	s4, [r6, #16]
.Ltmp73:
	.loc	1 75 6                  @ /root/Bela/projects/Thesis/AudioEffects.cpp:75:6
	vmrs	APSR_nzcv, fpscr
	blt	.LBB5_6
.Ltmp74:
@ BB#1:
	@DEBUG_VALUE: pitchShift:outputL <- [%SP+0]
	@DEBUG_VALUE: pitchShift:audio_r <- %S2
	@DEBUG_VALUE: pitchShift:audio_l <- %S1
	.loc	1 78 44 discriminator 1 @ /root/Bela/projects/Thesis/AudioEffects.cpp:78:44
	vcmpe.f32	s4, s0
	vmrs	APSR_nzcv, fpscr
	blt	.LBB5_4
.Ltmp75:
@ BB#2:
	@DEBUG_VALUE: pitchShift:outputL <- [%SP+0]
	@DEBUG_VALUE: pitchShift:audio_r <- %S2
	@DEBUG_VALUE: pitchShift:audio_l <- %S1
	vldr	s0, .LCPI5_1
	vcmpe.f32	s4, s0
	vmrs	APSR_nzcv, fpscr
	bge	.LBB5_4
.Ltmp76:
@ BB#3:
	@DEBUG_VALUE: pitchShift:outputL <- [%SP+0]
	@DEBUG_VALUE: pitchShift:audio_r <- %S2
	@DEBUG_VALUE: pitchShift:audio_l <- %S1
	vmov.f32	d3, #1.000000e+00
	b	.LBB5_6
.Ltmp77:
.LBB5_4:
	@DEBUG_VALUE: pitchShift:outputL <- [%SP+0]
	@DEBUG_VALUE: pitchShift:audio_r <- %S2
	@DEBUG_VALUE: pitchShift:audio_l <- %S1
	.loc	1 82 36 discriminator 1 @ /root/Bela/projects/Thesis/AudioEffects.cpp:82:36
	vldr	s0, .LCPI5_1
.Ltmp78:
	.loc	1 145 16                @ /root/Bela/projects/Thesis/AudioEffects.cpp:145:16
	vorr	d3, d2, d2
.Ltmp79:
	.loc	1 82 13 discriminator 1 @ /root/Bela/projects/Thesis/AudioEffects.cpp:82:13
	vcmpe.f32	s4, s0
	vmrs	APSR_nzcv, fpscr
	blt	.LBB5_6
.Ltmp80:
@ BB#5:
	@DEBUG_VALUE: pitchShift:outputL <- [%SP+0]
	@DEBUG_VALUE: pitchShift:audio_r <- %S2
	@DEBUG_VALUE: pitchShift:audio_l <- %S1
	vmov.f32	d3, #1.500000e+00
.Ltmp81:
	@DEBUG_VALUE: DimIndoorsAdj:pitchFactorCompensated <- 1.500000e+00
.LBB5_6:                                @ %_Z13DimIndoorsAdjf.exit
	@DEBUG_VALUE: pitchShift:outputL <- [%SP+0]
	@DEBUG_VALUE: pitchShift:audio_r <- %S2
	@DEBUG_VALUE: pitchShift:audio_l <- %S1
	.loc	1 145 14                @ /root/Bela/projects/Thesis/AudioEffects.cpp:145:14
	vstr	s6, [r6, #36]
	.loc	1 147 17                @ /root/Bela/projects/Thesis/AudioEffects.cpp:147:17
	ldr	r0, [r6, #20]
.Ltmp82:
	@DEBUG_VALUE: operator[]:__n <- %R0
	.loc	8 781 32                @ /usr/bin/../lib/gcc/arm-linux-gnueabihf/6.3.0/../../../../include/c++/6.3.0/bits/stl_vector.h:781:32
	ldr	r8, [r6, #92]
	.loc	8 781 41 is_stmt 0      @ /usr/bin/../lib/gcc/arm-linux-gnueabihf/6.3.0/../../../../include/c++/6.3.0/bits/stl_vector.h:781:41
	add	r1, r8, r0, lsl #2
.Ltmp83:
	.loc	1 150 36 is_stmt 1      @ /root/Bela/projects/Thesis/AudioEffects.cpp:150:36
	add	r0, r0, #1
.Ltmp84:
	.loc	1 147 30                @ /root/Bela/projects/Thesis/AudioEffects.cpp:147:30
	vstr	s1, [r1]
	.loc	1 148 17                @ /root/Bela/projects/Thesis/AudioEffects.cpp:148:17
	ldr	r5, [r6, #28]
.Ltmp85:
	@DEBUG_VALUE: operator[]:__n <- %R5
	.loc	8 781 32                @ /usr/bin/../lib/gcc/arm-linux-gnueabihf/6.3.0/../../../../include/c++/6.3.0/bits/stl_vector.h:781:32
	ldr	r9, [r6, #104]
	.loc	8 781 41 is_stmt 0      @ /usr/bin/../lib/gcc/arm-linux-gnueabihf/6.3.0/../../../../include/c++/6.3.0/bits/stl_vector.h:781:41
	add	r1, r9, r5, lsl #2
.Ltmp86:
	.loc	1 148 30 is_stmt 1      @ /root/Bela/projects/Thesis/AudioEffects.cpp:148:30
	vstr	s2, [r1]
.Ltmp87:
	.loc	8 656 40                @ /usr/bin/../lib/gcc/arm-linux-gnueabihf/6.3.0/../../../../include/c++/6.3.0/bits/stl_vector.h:656:40
	ldr	r1, [r6, #96]
	.loc	8 656 50 is_stmt 0      @ /usr/bin/../lib/gcc/arm-linux-gnueabihf/6.3.0/../../../../include/c++/6.3.0/bits/stl_vector.h:656:50
	sub	r1, r1, r8
	asr	r7, r1, #2
.Ltmp88:
	.loc	1 150 41 is_stmt 1      @ /root/Bela/projects/Thesis/AudioEffects.cpp:150:41
	mov	r1, r7
	bl	__aeabi_uidivmod
.Ltmp89:
	mov	r4, r1
	.loc	1 150 21 is_stmt 0      @ /root/Bela/projects/Thesis/AudioEffects.cpp:150:21
	str	r4, [r6, #20]
.Ltmp90:
	.loc	8 656 40 is_stmt 1      @ /usr/bin/../lib/gcc/arm-linux-gnueabihf/6.3.0/../../../../include/c++/6.3.0/bits/stl_vector.h:656:40
	ldr	r0, [r6, #108]
	.loc	8 656 50 is_stmt 0      @ /usr/bin/../lib/gcc/arm-linux-gnueabihf/6.3.0/../../../../include/c++/6.3.0/bits/stl_vector.h:656:50
	sub	r0, r0, r9
	asr	r10, r0, #2
.Ltmp91:
	.loc	1 151 36 is_stmt 1      @ /root/Bela/projects/Thesis/AudioEffects.cpp:151:36
	add	r0, r5, #1
	.loc	1 151 41 is_stmt 0      @ /root/Bela/projects/Thesis/AudioEffects.cpp:151:41
	mov	r1, r10
	bl	__aeabi_uidivmod
	.loc	1 153 28 is_stmt 1      @ /root/Bela/projects/Thesis/AudioEffects.cpp:153:28
	vmov	s0, r4
	.loc	1 151 41                @ /root/Bela/projects/Thesis/AudioEffects.cpp:151:41
	mov	r5, r1
.Ltmp92:
	.loc	1 153 28                @ /root/Bela/projects/Thesis/AudioEffects.cpp:153:28
	vcvt.f32.s32	d16, d0
	.loc	1 151 21                @ /root/Bela/projects/Thesis/AudioEffects.cpp:151:21
	str	r5, [r6, #28]
	.loc	1 153 42                @ /root/Bela/projects/Thesis/AudioEffects.cpp:153:42
	vldr	s16, [r6, #36]
	.loc	1 153 54 is_stmt 0      @ /root/Bela/projects/Thesis/AudioEffects.cpp:153:54
	mov	r1, r7
	.loc	1 153 40                @ /root/Bela/projects/Thesis/AudioEffects.cpp:153:40
	vmul.f32	d16, d16, d8
	.loc	1 153 27                @ /root/Bela/projects/Thesis/AudioEffects.cpp:153:27
	vcvt.s32.f32	d0, d16
	vmov	r0, s0
	.loc	1 153 54                @ /root/Bela/projects/Thesis/AudioEffects.cpp:153:54
	bl	__aeabi_uidivmod
	.loc	1 154 28 is_stmt 1      @ /root/Bela/projects/Thesis/AudioEffects.cpp:154:28
	vmov	s0, r5
	.loc	1 153 54                @ /root/Bela/projects/Thesis/AudioEffects.cpp:153:54
	mov	r4, r1
	.loc	1 154 28                @ /root/Bela/projects/Thesis/AudioEffects.cpp:154:28
	vcvt.f32.s32	d16, d0
	.loc	1 154 54 is_stmt 0      @ /root/Bela/projects/Thesis/AudioEffects.cpp:154:54
	mov	r1, r10
	.loc	1 153 20 is_stmt 1      @ /root/Bela/projects/Thesis/AudioEffects.cpp:153:20
	str	r4, [r6, #24]
	.loc	1 154 40                @ /root/Bela/projects/Thesis/AudioEffects.cpp:154:40
	vmul.f32	d16, d16, d8
	.loc	1 154 27 is_stmt 0      @ /root/Bela/projects/Thesis/AudioEffects.cpp:154:27
	vcvt.s32.f32	d0, d16
	vmov	r0, s0
	.loc	1 154 54                @ /root/Bela/projects/Thesis/AudioEffects.cpp:154:54
	bl	__aeabi_uidivmod
	.loc	1 156 14 is_stmt 1      @ /root/Bela/projects/Thesis/AudioEffects.cpp:156:14
	ldr	r2, [sp]                @ 4-byte Reload
	.loc	1 154 20                @ /root/Bela/projects/Thesis/AudioEffects.cpp:154:20
	str	r1, [r6, #32]
	.loc	1 156 16                @ /root/Bela/projects/Thesis/AudioEffects.cpp:156:16
	ldr	r0, [r8, r4, lsl #2]
	.loc	1 156 14 is_stmt 0      @ /root/Bela/projects/Thesis/AudioEffects.cpp:156:14
	str	r0, [r2]
	.loc	1 157 19 is_stmt 1      @ /root/Bela/projects/Thesis/AudioEffects.cpp:157:19
	ldr	r0, [r9, r1, lsl #2]
	.loc	1 157 17 is_stmt 0      @ /root/Bela/projects/Thesis/AudioEffects.cpp:157:17
	ldr	r1, [sp, #4]            @ 4-byte Reload
	str	r0, [r1]
	.loc	1 159 1 is_stmt 1       @ /root/Bela/projects/Thesis/AudioEffects.cpp:159:1
	sub	sp, r11, #40
	vpop	{d8}
	add	sp, sp, #4
	pop	{r4, r5, r6, r7, r8, r9, r10, r11, pc}
.Ltmp93:
	.p2align	2
@ BB#7:
.LCPI5_0:
	.long	1058642330              @ float 0.600000024
.LCPI5_1:
	.long	1066192077              @ float 1.10000002
.Lfunc_end5:
	.size	_Z10pitchShiftfffRfS_, .Lfunc_end5-_Z10pitchShiftfffRfS_
	.cfi_endproc
	.fnend

	.section	.text.startup,"ax",%progbits
	.p2align	2
	.type	_GLOBAL__sub_I_AudioEffects.ii,%function
_GLOBAL__sub_I_AudioEffects.ii:         @ @_GLOBAL__sub_I_AudioEffects.ii
.Lfunc_begin6:
	.loc	14 0 0                  @ /root/Bela/projects/Thesis/build/AudioEffects.cpp:0:0
	.fnstart
	.cfi_startproc
@ BB#0:
	.save	{r4, r5, r6, r7, r8, r10, r11, lr}
	push	{r4, r5, r6, r7, r8, r10, r11, lr}
.Ltmp94:
	.cfi_def_cfa_offset 32
.Ltmp95:
	.cfi_offset lr, -4
.Ltmp96:
	.cfi_offset r11, -8
.Ltmp97:
	.cfi_offset r10, -12
.Ltmp98:
	.cfi_offset r8, -16
.Ltmp99:
	.cfi_offset r7, -20
.Ltmp100:
	.cfi_offset r6, -24
.Ltmp101:
	.cfi_offset r5, -28
.Ltmp102:
	.cfi_offset r4, -32
	.setfp	r11, sp, #24
	add	r11, sp, #24
.Ltmp103:
	.cfi_def_cfa r11, 8
.Ltmp104:
	@DEBUG_VALUE: vector:__n <- 4096
	@DEBUG_VALUE: _Vector_base:__n <- 4096
	.loc	8 91 25 prologue_end    @ /usr/bin/../lib/gcc/arm-linux-gnueabihf/6.3.0/../../../../include/c++/6.3.0/bits/stl_vector.h:91:25
	movw	r4, :lower16:.L_MergedGlobals
.Ltmp105:
	.loc	4 104 27                @ /usr/bin/../lib/gcc/arm-linux-gnueabihf/6.3.0/../../../../include/c++/6.3.0/ext/new_allocator.h:104:27
	mov	r0, #16384
.Ltmp106:
	.loc	8 91 25                 @ /usr/bin/../lib/gcc/arm-linux-gnueabihf/6.3.0/../../../../include/c++/6.3.0/bits/stl_vector.h:91:25
	movt	r4, :upper16:.L_MergedGlobals
	mov	r7, #0
	mov	r5, r4
	str	r7, [r5, #92]!
.Ltmp107:
	@DEBUG_VALUE: allocate:__n <- 4096
	@DEBUG_VALUE: allocate:__n <- 4096
	@DEBUG_VALUE: _M_allocate:__n <- 4096
	@DEBUG_VALUE: _M_create_storage:__n <- 4096
	@DEBUG_VALUE: _M_default_initialize:this <- %R5
	@DEBUG_VALUE: vector:this <- %R5
	.loc	8 91 37 is_stmt 0       @ /usr/bin/../lib/gcc/arm-linux-gnueabihf/6.3.0/../../../../include/c++/6.3.0/bits/stl_vector.h:91:37
	str	r7, [r4, #96]
	.loc	8 91 50                 @ /usr/bin/../lib/gcc/arm-linux-gnueabihf/6.3.0/../../../../include/c++/6.3.0/bits/stl_vector.h:91:50
	str	r7, [r4, #100]
.Ltmp108:
	.loc	4 104 27 is_stmt 1      @ /usr/bin/../lib/gcc/arm-linux-gnueabihf/6.3.0/../../../../include/c++/6.3.0/ext/new_allocator.h:104:27
	bl	_Znwj
.Ltmp109:
	.file	23 "/usr/bin/../lib/gcc/arm-linux-gnueabihf/6.3.0/../../../../include/c++/6.3.0/bits" "stl_algobase.h"
	.loc	23 754 11               @ /usr/bin/../lib/gcc/arm-linux-gnueabihf/6.3.0/../../../../include/c++/6.3.0/bits/stl_algobase.h:754:11
	mov	r1, #0
	mov	r2, #16384
.Ltmp110:
	.loc	8 185 25                @ /usr/bin/../lib/gcc/arm-linux-gnueabihf/6.3.0/../../../../include/c++/6.3.0/bits/stl_vector.h:185:25
	str	r0, [r5]
	.loc	8 187 59                @ /usr/bin/../lib/gcc/arm-linux-gnueabihf/6.3.0/../../../../include/c++/6.3.0/bits/stl_vector.h:187:59
	add	r6, r0, #16384
	.loc	8 187 34 is_stmt 0      @ /usr/bin/../lib/gcc/arm-linux-gnueabihf/6.3.0/../../../../include/c++/6.3.0/bits/stl_vector.h:187:34
	str	r6, [r4, #100]
.Ltmp111:
	.loc	23 754 11 is_stmt 1     @ /usr/bin/../lib/gcc/arm-linux-gnueabihf/6.3.0/../../../../include/c++/6.3.0/bits/stl_algobase.h:754:11
	bl	memset
.Ltmp112:
	.loc	1 21 20 discriminator 6 @ /root/Bela/projects/Thesis/AudioEffects.cpp:21:20
	movw	r8, :lower16:__dso_handle
.Ltmp113:
	.loc	8 1308 26               @ /usr/bin/../lib/gcc/arm-linux-gnueabihf/6.3.0/../../../../include/c++/6.3.0/bits/stl_vector.h:1308:26
	str	r6, [r4, #96]
.Ltmp114:
	.loc	1 21 20 discriminator 6 @ /root/Bela/projects/Thesis/AudioEffects.cpp:21:20
	movw	r6, :lower16:_ZNSt6vectorIfSaIfEED2Ev
	movt	r8, :upper16:__dso_handle
	movt	r6, :upper16:_ZNSt6vectorIfSaIfEED2Ev
	mov	r1, r5
	mov	r0, r6
	mov	r2, r8
	bl	__cxa_atexit
.Ltmp115:
	.loc	8 91 25                 @ /usr/bin/../lib/gcc/arm-linux-gnueabihf/6.3.0/../../../../include/c++/6.3.0/bits/stl_vector.h:91:25
	str	r7, [r4, #104]!
.Ltmp116:
	.loc	4 104 27                @ /usr/bin/../lib/gcc/arm-linux-gnueabihf/6.3.0/../../../../include/c++/6.3.0/ext/new_allocator.h:104:27
	mov	r0, #16384
.Ltmp117:
	.loc	8 91 37                 @ /usr/bin/../lib/gcc/arm-linux-gnueabihf/6.3.0/../../../../include/c++/6.3.0/bits/stl_vector.h:91:37
	str	r7, [r4, #4]
	.loc	8 91 50 is_stmt 0       @ /usr/bin/../lib/gcc/arm-linux-gnueabihf/6.3.0/../../../../include/c++/6.3.0/bits/stl_vector.h:91:50
	str	r7, [r4, #8]
.Ltmp118:
	.loc	4 104 27 is_stmt 1      @ /usr/bin/../lib/gcc/arm-linux-gnueabihf/6.3.0/../../../../include/c++/6.3.0/ext/new_allocator.h:104:27
	bl	_Znwj
.Ltmp119:
	.loc	23 754 11               @ /usr/bin/../lib/gcc/arm-linux-gnueabihf/6.3.0/../../../../include/c++/6.3.0/bits/stl_algobase.h:754:11
	mov	r1, #0
	mov	r2, #16384
.Ltmp120:
	.loc	8 185 25                @ /usr/bin/../lib/gcc/arm-linux-gnueabihf/6.3.0/../../../../include/c++/6.3.0/bits/stl_vector.h:185:25
	str	r0, [r4]
	.loc	8 187 59                @ /usr/bin/../lib/gcc/arm-linux-gnueabihf/6.3.0/../../../../include/c++/6.3.0/bits/stl_vector.h:187:59
	add	r5, r0, #16384
.Ltmp121:
	.loc	8 187 34 is_stmt 0      @ /usr/bin/../lib/gcc/arm-linux-gnueabihf/6.3.0/../../../../include/c++/6.3.0/bits/stl_vector.h:187:34
	str	r5, [r4, #8]
.Ltmp122:
	.loc	23 754 11 is_stmt 1     @ /usr/bin/../lib/gcc/arm-linux-gnueabihf/6.3.0/../../../../include/c++/6.3.0/bits/stl_algobase.h:754:11
	bl	memset
.Ltmp123:
	.loc	8 1308 26               @ /usr/bin/../lib/gcc/arm-linux-gnueabihf/6.3.0/../../../../include/c++/6.3.0/bits/stl_vector.h:1308:26
	str	r5, [r4, #4]
.Ltmp124:
	.loc	1 22 20 discriminator 6 @ /root/Bela/projects/Thesis/AudioEffects.cpp:22:20
	mov	r0, r6
	mov	r1, r4
	mov	r2, r8
.Ltmp125:
	@DEBUG_VALUE: _M_default_initialize:this <- %R4
	@DEBUG_VALUE: vector:this <- %R4
	@DEBUG_VALUE: __niter <- 4096
	@DEBUG_VALUE: __fill_n_a<float *, unsigned int, float>:__n <- 4096
	@DEBUG_VALUE: fill_n<float *, unsigned int, float>:__n <- 4096
	@DEBUG_VALUE: __uninit_default_n<float *, unsigned int>:__n <- 4096
	@DEBUG_VALUE: __uninitialized_default_n<float *, unsigned int>:__assignable <- 1
	@DEBUG_VALUE: __uninitialized_default_n<float *, unsigned int>:__n <- 4096
	@DEBUG_VALUE: __uninitialized_default_n_a<float *, unsigned int, float>:__n <- 4096
	@DEBUG_VALUE: _M_default_initialize:__n <- 4096
	@DEBUG_VALUE: allocate:__n <- 4096
	@DEBUG_VALUE: allocate:__n <- 4096
	@DEBUG_VALUE: _M_allocate:__n <- 4096
	@DEBUG_VALUE: _M_create_storage:__n <- 4096
	@DEBUG_VALUE: _Vector_base:__n <- 4096
	@DEBUG_VALUE: vector:__n <- 4096
	@DEBUG_VALUE: __niter <- 4096
	@DEBUG_VALUE: __fill_n_a<float *, unsigned int, float>:__n <- 4096
	@DEBUG_VALUE: fill_n<float *, unsigned int, float>:__n <- 4096
	@DEBUG_VALUE: __uninit_default_n<float *, unsigned int>:__n <- 4096
	@DEBUG_VALUE: __uninitialized_default_n<float *, unsigned int>:__assignable <- 1
	@DEBUG_VALUE: __uninitialized_default_n<float *, unsigned int>:__n <- 4096
	@DEBUG_VALUE: __uninitialized_default_n_a<float *, unsigned int, float>:__n <- 4096
	@DEBUG_VALUE: _M_default_initialize:__n <- 4096
	pop	{r4, r5, r6, r7, r8, r10, r11, lr}
.Ltmp126:
	b	__cxa_atexit
.Ltmp127:
.Lfunc_end6:
	.size	_GLOBAL__sub_I_AudioEffects.ii, .Lfunc_end6-_GLOBAL__sub_I_AudioEffects.ii
	.cfi_endproc
	.file	24 "/usr/bin/../lib/gcc/arm-linux-gnueabihf/6.3.0/../../../../include/c++/6.3.0/ext" "type_traits.h"
	.file	25 "/usr/bin/../lib/gcc/arm-linux-gnueabihf/6.3.0/../../../../include/c++/6.3.0/bits" "stl_uninitialized.h"
	.fnend

	.type	gDelayBuffer_l,%object  @ @gDelayBuffer_l
	.bss
	.globl	gDelayBuffer_l
	.p2align	2
gDelayBuffer_l:
	.zero	176400
	.size	gDelayBuffer_l, 176400

	.type	gDelayBuffer_r,%object  @ @gDelayBuffer_r
	.globl	gDelayBuffer_r
	.p2align	2
gDelayBuffer_r:
	.zero	176400
	.size	gDelayBuffer_r, 176400

	.type	gDelayAmount,%object    @ @gDelayAmount
	.data
	.globl	gDelayAmount
	.p2align	2
gDelayAmount:
	.long	1065353216              @ float 1
	.size	gDelayAmount, 4

	.section	.init_array,"aw",%init_array
	.p2align	2
	.long	_GLOBAL__sub_I_AudioEffects.ii(target1)
	.type	.L_MergedGlobals,%object @ @_MergedGlobals
	.data
	.p2align	4
.L_MergedGlobals:
	.long	0                       @ 0x0
	.long	1065336439              @ float 0.999000012
	.long	1061158912              @ float 0.75
	.long	22050                   @ 0x5622
	.long	1067030938              @ float 1.20000005
	.long	0                       @ 0x0
	.long	0                       @ 0x0
	.long	0                       @ 0x0
	.long	0                       @ 0x0
	.long	0                       @ float 0
	.long	1043693452              @ float 0.177244365
	.long	1052082060              @ float 0.35448873
	.long	1043693452              @ float 0.177244365
	.long	3204594480              @ float -0.50871563
	.long	1046407918              @ float 0.217693061
	.long	0                       @ float 0
	.long	0                       @ float 0
	.long	0                       @ float 0
	.long	0                       @ float 0
	.long	0                       @ float 0
	.long	0                       @ float 0
	.long	0                       @ float 0
	.long	0                       @ float 0
	.zero	12
	.zero	12
	.size	.L_MergedGlobals, 116

	.section	".note.GNU-stack","",%progbits
	.eabi_attribute	30, 2	@ Tag_ABI_optimization_goals