	.text
	.syntax unified
	.eabi_attribute	67, "2.09"	@ Tag_conformance
	.cpu	cortex-a8
	.eabi_attribute	6, 10	@ Tag_CPU_arch
	.eabi_attribute	7, 65	@ Tag_CPU_arch_profile
	.eabi_attribute	8, 1	@ Tag_ARM_ISA_use
	.eabi_attribute	9, 2	@ Tag_THUMB_ISA_use
	.fpu	neon
	.eabi_attribute	17, 1	@ Tag_ABI_PCS_GOT_use
	.eabi_attribute	20, 2	@ Tag_ABI_FP_denormal
	.eabi_attribute	23, 1	@ Tag_ABI_FP_number_model
	.eabi_attribute	34, 1	@ Tag_CPU_unaligned_access
	.eabi_attribute	24, 1	@ Tag_ABI_align_needed
	.eabi_attribute	25, 1	@ Tag_ABI_align_preserved
	.eabi_attribute	28, 1	@ Tag_ABI_VFP_args
	.eabi_attribute	38, 1	@ Tag_ABI_FP_16bit_format
	.eabi_attribute	18, 4	@ Tag_ABI_PCS_wchar_t
	.eabi_attribute	26, 2	@ Tag_ABI_enum_size
	.eabi_attribute	14, 0	@ Tag_ABI_PCS_R9_use
	.eabi_attribute	68, 1	@ Tag_Virtualization_use
	.file	"/root/Bela/projects/Thesis/build/BME280I2C.bc"
	.file	1 "/usr/bin/../lib/gcc/arm-linux-gnueabihf/6.3.0/../../../../include/arm-linux-gnueabihf/c++/6.3.0/bits" "c++config.h"
	.file	2 "/usr/bin/../lib/gcc/arm-linux-gnueabihf/6.3.0/../../../../include/arm-linux-gnueabihf/c++/6.3.0/bits" "atomic_word.h"
	.file	3 "/usr/bin/../lib/gcc/arm-linux-gnueabihf/6.3.0/../../../../include/c++/6.3.0/bits" "ios_base.h"
	.file	4 "/usr/bin/../lib/gcc/arm-linux-gnueabihf/6.3.0/../../../../include/c++/6.3.0" "iostream"
	.file	5 "/root/Bela/projects/Thesis" "BME280.h"
	.file	6 "/root/Bela/projects/Thesis" "BME280I2C.h"
	.file	7 "/usr/include" "stdint.h"
	.file	8 "/usr/bin/../lib/gcc/arm-linux-gnueabihf/6.3.0/../../../../include/c++/6.3.0/bits" "postypes.h"
	.file	9 "/usr/include" "wchar.h"
	.file	10 "/usr/lib/llvm-3.9/bin/../lib/clang/3.9.1/include" "stddef.h"
	.file	11 "/usr/include" "libio.h"
	.file	12 "/usr/include/arm-linux-gnueabihf/bits" "types.h"
	.file	13 "/usr/include" "stdio.h"
	.file	14 "/usr/lib/llvm-3.9/bin/../lib/clang/3.9.1/include" "stdarg.h"
	.file	15 "/usr/bin/../lib/gcc/arm-linux-gnueabihf/6.3.0/../../../../include/c++/6.3.0/bits" "exception_ptr.h"
	.file	16 "/usr/bin/../lib/gcc/arm-linux-gnueabihf/6.3.0/../../../../include/c++/6.3.0/debug" "debug.h"
	.file	17 "/usr/include/arm-linux-gnueabihf/sys" "types.h"
	.file	18 "/usr/include" "unistd.h"
	.file	19 "/usr/include" "locale.h"
	.file	20 "/usr/include" "ctype.h"
	.file	21 "/usr/include" "stdlib.h"
	.file	22 "/usr/include/arm-linux-gnueabihf/bits" "stdlib-float.h"
	.file	23 "/usr/include/arm-linux-gnueabihf/bits" "stdlib-bsearch.h"
	.file	24 "/usr/bin/../lib/gcc/arm-linux-gnueabihf/6.3.0/../../../../include/c++/6.3.0" "cstdlib"
	.file	25 "/usr/include" "_G_config.h"
	.file	26 "/usr/include/arm-linux-gnueabihf/bits" "stdio.h"
	.file	27 "/usr/include" "wctype.h"
	.file	28 "/usr/include/arm-linux-gnueabihf/bits" "math-finite.h"
	.file	29 "/usr/include/arm-linux-gnueabihf/bits" "mathcalls.h"
	.file	30 "/usr/include/arm-linux-gnueabihf/bits" "mathdef.h"
	.file	31 "/usr/include" "time.h"
	.globl	_ZN15I2cBMEFunctions8readByteEh
	.p2align	2
	.type	_ZN15I2cBMEFunctions8readByteEh,%function
_ZN15I2cBMEFunctions8readByteEh:        @ @_ZN15I2cBMEFunctions8readByteEh
.Lfunc_begin0:
	.file	32 "/root/Bela/projects/Thesis" "BME280I2C.cpp"
	.loc	32 38 0                 @ /root/Bela/projects/Thesis/BME280I2C.cpp:38:0
	.fnstart
	.cfi_startproc
@ BB#0:
	.save	{r4, r10, r11, lr}
	push	{r4, r10, r11, lr}
.Ltmp0:
	.cfi_def_cfa_offset 16
.Ltmp1:
	.cfi_offset lr, -4
.Ltmp2:
	.cfi_offset r11, -8
.Ltmp3:
	.cfi_offset r10, -12
.Ltmp4:
	.cfi_offset r4, -16
	.setfp	r11, sp, #8
	add	r11, sp, #8
.Ltmp5:
	.cfi_def_cfa r11, 8
	.pad	#40
	sub	sp, sp, #40
	@DEBUG_VALUE: readByte:this <- %R0
	@DEBUG_VALUE: readByte:reg <- %R1
.Ltmp6:
	@DEBUG_VALUE: readByte:outbuf <- %R1
	.loc	32 48 12 prologue_end   @ /root/Bela/projects/Thesis/BME280I2C.cpp:48:12
	strb	r1, [r11, #-10]
	mov	r4, #0
	.loc	32 49 24                @ /root/Bela/projects/Thesis/BME280I2C.cpp:49:24
	ldrh	r1, [r0, #16]
.Ltmp7:
	.loc	32 51 21                @ /root/Bela/projects/Thesis/BME280I2C.cpp:51:21
	mov	r2, #1
	.loc	32 49 22                @ /root/Bela/projects/Thesis/BME280I2C.cpp:49:22
	strh	r1, [sp, #4]
	sub	r3, r11, #10
.Ltmp8:
	@DEBUG_VALUE: readByte:outbuf <- [%R3+0]
	.loc	32 50 23                @ /root/Bela/projects/Thesis/BME280I2C.cpp:50:23
	strh	r4, [sp, #6]
	.loc	32 51 21                @ /root/Bela/projects/Thesis/BME280I2C.cpp:51:21
	strh	r2, [sp, #8]
	.loc	32 52 21                @ /root/Bela/projects/Thesis/BME280I2C.cpp:52:21
	str	r3, [sp, #12]
	.loc	32 55 22                @ /root/Bela/projects/Thesis/BME280I2C.cpp:55:22
	strh	r1, [sp, #16]
	sub	r1, r11, #9
.Ltmp9:
	@DEBUG_VALUE: readByte:inbuf <- [%R1+0]
	.loc	32 56 23                @ /root/Bela/projects/Thesis/BME280I2C.cpp:56:23
	strh	r2, [sp, #18]
	.loc	32 57 21                @ /root/Bela/projects/Thesis/BME280I2C.cpp:57:21
	strh	r2, [sp, #20]
	sub	r2, r11, #20
.Ltmp10:
	@DEBUG_VALUE: readByte:packets <- [%R2+0]
	.loc	32 58 21                @ /root/Bela/projects/Thesis/BME280I2C.cpp:58:21
	str	r1, [sp, #24]
	add	r1, sp, #4
.Ltmp11:
	@DEBUG_VALUE: readByte:messages <- [%R1+0]
	.loc	32 61 18                @ /root/Bela/projects/Thesis/BME280I2C.cpp:61:18
	str	r1, [r11, #-20]
	mov	r1, #2
.Ltmp12:
	.loc	32 62 19                @ /root/Bela/projects/Thesis/BME280I2C.cpp:62:19
	str	r1, [r11, #-16]
.Ltmp13:
	.loc	32 63 8                 @ /root/Bela/projects/Thesis/BME280I2C.cpp:63:8
	movw	r1, #1799
	.loc	32 63 14 is_stmt 0      @ /root/Bela/projects/Thesis/BME280I2C.cpp:63:14
	ldr	r0, [r0, #12]
.Ltmp14:
	.loc	32 63 8                 @ /root/Bela/projects/Thesis/BME280I2C.cpp:63:8
	bl	ioctl
.Ltmp15:
	.loc	32 63 8                 @ /root/Bela/projects/Thesis/BME280I2C.cpp:63:8
	cmp	r0, #0
	blt	.LBB0_2
@ BB#1:
	.loc	32 68 12 is_stmt 1      @ /root/Bela/projects/Thesis/BME280I2C.cpp:68:12
	ldrb	r4, [r11, #-9]
	b	.LBB0_3
.LBB0_2:
.Ltmp16:
	.loc	32 64 9                 @ /root/Bela/projects/Thesis/BME280I2C.cpp:64:9
	movw	r0, :lower16:.L.str
	movt	r0, :upper16:.L.str
	bl	rt_printf
.Ltmp17:
.LBB0_3:
	.loc	32 69 1                 @ /root/Bela/projects/Thesis/BME280I2C.cpp:69:1
	mov	r0, r4
	sub	sp, r11, #8
	pop	{r4, r10, r11, pc}
.Ltmp18:
.Lfunc_end0:
	.size	_ZN15I2cBMEFunctions8readByteEh, .Lfunc_end0-_ZN15I2cBMEFunctions8readByteEh
	.cfi_endproc
	.fnend

	.globl	_ZN15I2cBMEFunctions9readBytesEhhPh
	.p2align	2
	.type	_ZN15I2cBMEFunctions9readBytesEhhPh,%function
_ZN15I2cBMEFunctions9readBytesEhhPh:    @ @_ZN15I2cBMEFunctions9readBytesEhhPh
.Lfunc_begin1:
	.loc	32 71 0                 @ /root/Bela/projects/Thesis/BME280I2C.cpp:71:0
	.fnstart
	.cfi_startproc
@ BB#0:
	.save	{r11, lr}
	push	{r11, lr}
.Ltmp19:
	.cfi_def_cfa_offset 8
.Ltmp20:
	.cfi_offset lr, -4
.Ltmp21:
	.cfi_offset r11, -8
	.setfp	r11, sp
	mov	r11, sp
.Ltmp22:
	.cfi_def_cfa_register r11
	.pad	#40
	sub	sp, sp, #40
	@DEBUG_VALUE: readBytes:this <- %R0
	@DEBUG_VALUE: readBytes:reg <- %R1
	@DEBUG_VALUE: readBytes:count <- %R2
	@DEBUG_VALUE: readBytes:inbuf <- %R3
.Ltmp23:
	@DEBUG_VALUE: readBytes:outbuf <- %R1
	.loc	32 81 12 prologue_end   @ /root/Bela/projects/Thesis/BME280I2C.cpp:81:12
	strb	r1, [r11, #-1]
	.loc	32 83 23                @ /root/Bela/projects/Thesis/BME280I2C.cpp:83:23
	mov	r1, #0
.Ltmp24:
	.loc	32 82 24                @ /root/Bela/projects/Thesis/BME280I2C.cpp:82:24
	ldrh	r12, [r0, #16]
	mov	lr, #1
	.loc	32 82 22 is_stmt 0      @ /root/Bela/projects/Thesis/BME280I2C.cpp:82:22
	strh	r12, [sp, #4]
	.loc	32 83 23 is_stmt 1      @ /root/Bela/projects/Thesis/BME280I2C.cpp:83:23
	strh	r1, [sp, #6]
	sub	r1, r11, #1
.Ltmp25:
	@DEBUG_VALUE: readBytes:outbuf <- [%R1+0]
	.loc	32 84 21                @ /root/Bela/projects/Thesis/BME280I2C.cpp:84:21
	strh	lr, [sp, #8]
	.loc	32 85 21                @ /root/Bela/projects/Thesis/BME280I2C.cpp:85:21
	str	r1, [sp, #12]
	add	r1, sp, #4
.Ltmp26:
	@DEBUG_VALUE: readBytes:messages <- [%R1+0]
	.loc	32 94 18                @ /root/Bela/projects/Thesis/BME280I2C.cpp:94:18
	str	r1, [r11, #-12]
	mov	r1, #2
.Ltmp27:
	.loc	32 88 22                @ /root/Bela/projects/Thesis/BME280I2C.cpp:88:22
	strh	r12, [sp, #16]
	.loc	32 89 23                @ /root/Bela/projects/Thesis/BME280I2C.cpp:89:23
	strh	lr, [sp, #18]
	.loc	32 90 21                @ /root/Bela/projects/Thesis/BME280I2C.cpp:90:21
	strh	r2, [sp, #20]
	sub	r2, r11, #12
.Ltmp28:
	@DEBUG_VALUE: readBytes:packets <- [%R2+0]
	.loc	32 95 19                @ /root/Bela/projects/Thesis/BME280I2C.cpp:95:19
	str	r1, [r11, #-8]
.Ltmp29:
	.loc	32 96 8                 @ /root/Bela/projects/Thesis/BME280I2C.cpp:96:8
	movw	r1, #1799
.Ltmp30:
	.loc	32 91 21                @ /root/Bela/projects/Thesis/BME280I2C.cpp:91:21
	str	r3, [sp, #24]
.Ltmp31:
	.loc	32 96 14                @ /root/Bela/projects/Thesis/BME280I2C.cpp:96:14
	ldr	r0, [r0, #12]
.Ltmp32:
	.loc	32 96 8 is_stmt 0       @ /root/Bela/projects/Thesis/BME280I2C.cpp:96:8
	bl	ioctl
.Ltmp33:
	.loc	32 97 9 is_stmt 1       @ /root/Bela/projects/Thesis/BME280I2C.cpp:97:9
	movw	r0, :lower16:.L.str.1
	movt	r0, :upper16:.L.str.1
	bl	rt_printf
	.loc	32 98 9                 @ /root/Bela/projects/Thesis/BME280I2C.cpp:98:9
	mov	r0, #1
	mov	sp, r11
	pop	{r11, pc}
.Ltmp34:
.Lfunc_end1:
	.size	_ZN15I2cBMEFunctions9readBytesEhhPh, .Lfunc_end1-_ZN15I2cBMEFunctions9readBytesEhhPh
	.cfi_endproc
	.fnend

	.globl	_ZN9BME280I2CC2ERKNS_8SettingsE
	.p2align	2
	.type	_ZN9BME280I2CC2ERKNS_8SettingsE,%function
_ZN9BME280I2CC2ERKNS_8SettingsE:        @ @_ZN9BME280I2CC2ERKNS_8SettingsE
.Lfunc_begin2:
	.loc	32 113 0                @ /root/Bela/projects/Thesis/BME280I2C.cpp:113:0
	.fnstart
	.cfi_startproc
@ BB#0:
	.save	{r4, r5, r11, lr}
	push	{r4, r5, r11, lr}
.Ltmp35:
	.cfi_def_cfa_offset 16
.Ltmp36:
	.cfi_offset lr, -4
.Ltmp37:
	.cfi_offset r11, -8
.Ltmp38:
	.cfi_offset r5, -12
.Ltmp39:
	.cfi_offset r4, -16
	.setfp	r11, sp, #8
	add	r11, sp, #8
.Ltmp40:
	.cfi_def_cfa r11, 8
	@DEBUG_VALUE: BME280I2C:this <- %R0
	@DEBUG_VALUE: BME280I2C:settings <- %R1
	mov	r4, r1
.Ltmp41:
	@DEBUG_VALUE: BME280I2C:settings <- %R4
	mov	r5, r0
.Ltmp42:
	@DEBUG_VALUE: BME280I2C:this <- %R5
	.loc	32 111 3 prologue_end   @ /root/Bela/projects/Thesis/BME280I2C.cpp:111:3
	bl	_ZN6BME280C2ERKNS_8SettingsE
	.loc	32 113 1                @ /root/Bela/projects/Thesis/BME280I2C.cpp:113:1
	movw	r0, :lower16:_ZTV9BME280I2C
	movt	r0, :upper16:_ZTV9BME280I2C
	add	r0, r0, #8
	str	r0, [r5]
	.loc	6 128 6                 @ /root/Bela/projects/Thesis/BME280I2C.h:128:6
	mov	r0, #118
	str	r0, [r5, #84]
	.loc	32 112 3                @ /root/Bela/projects/Thesis/BME280I2C.cpp:112:3
	add	r0, r5, #88
	vld1.32	{d16, d17}, [r4]!
.Ltmp43:
	vld1.32	{d18, d19}, [r4]
	vst1.32	{d16, d17}, [r0]
	add	r0, r5, #104
	vst1.32	{d18, d19}, [r0]
	.loc	32 114 1                @ /root/Bela/projects/Thesis/BME280I2C.cpp:114:1
	mov	r0, r5
	pop	{r4, r5, r11, pc}
.Ltmp44:
.Lfunc_end2:
	.size	_ZN9BME280I2CC2ERKNS_8SettingsE, .Lfunc_end2-_ZN9BME280I2CC2ERKNS_8SettingsE
	.cfi_endproc
	.fnend

	.globl	_ZN9BME280I2C11setSettingsERKNS_8SettingsE
	.p2align	2
	.type	_ZN9BME280I2C11setSettingsERKNS_8SettingsE,%function
_ZN9BME280I2C11setSettingsERKNS_8SettingsE: @ @_ZN9BME280I2C11setSettingsERKNS_8SettingsE
.Lfunc_begin3:
	.loc	32 122 0                @ /root/Bela/projects/Thesis/BME280I2C.cpp:122:0
	.fnstart
	.cfi_startproc
@ BB#0:
	@DEBUG_VALUE: setSettings:this <- %R0
	@DEBUG_VALUE: setSettings:settings <- %R1
	.loc	32 123 15 prologue_end  @ /root/Bela/projects/Thesis/BME280I2C.cpp:123:15
	mov	r2, r1
	vld1.32	{d16, d17}, [r2]!
	vld1.32	{d18, d19}, [r2]
	.loc	32 123 4 is_stmt 0      @ /root/Bela/projects/Thesis/BME280I2C.cpp:123:4
	add	r2, r0, #88
	.loc	32 123 15               @ /root/Bela/projects/Thesis/BME280I2C.cpp:123:15
	vst1.32	{d16, d17}, [r2]
	add	r2, r0, #104
	vst1.32	{d18, d19}, [r2]
	.loc	32 124 12 is_stmt 1     @ /root/Bela/projects/Thesis/BME280I2C.cpp:124:12
	b	_ZN6BME28011setSettingsERKNS_8SettingsE
.Ltmp45:
.Lfunc_end3:
	.size	_ZN9BME280I2C11setSettingsERKNS_8SettingsE, .Lfunc_end3-_ZN9BME280I2C11setSettingsERKNS_8SettingsE
	.cfi_endproc
	.fnend

	.globl	_ZNK9BME280I2C11getSettingsEv
	.p2align	2
	.type	_ZNK9BME280I2C11getSettingsEv,%function
_ZNK9BME280I2C11getSettingsEv:          @ @_ZNK9BME280I2C11getSettingsEv
.Lfunc_begin4:
	.loc	32 130 0                @ /root/Bela/projects/Thesis/BME280I2C.cpp:130:0
	.fnstart
	.cfi_startproc
@ BB#0:
	@DEBUG_VALUE: getSettings:this <- %R0
	.loc	32 131 11 prologue_end  @ /root/Bela/projects/Thesis/BME280I2C.cpp:131:11
	add	r0, r0, #88
.Ltmp46:
	.loc	32 131 4 is_stmt 0      @ /root/Bela/projects/Thesis/BME280I2C.cpp:131:4
	bx	lr
.Ltmp47:
.Lfunc_end4:
	.size	_ZNK9BME280I2C11getSettingsEv, .Lfunc_end4-_ZNK9BME280I2C11getSettingsEv
	.cfi_endproc
	.fnend

	.globl	_ZN9BME280I2C13WriteRegisterEhh
	.p2align	2
	.type	_ZN9BME280I2C13WriteRegisterEhh,%function
_ZN9BME280I2C13WriteRegisterEhh:        @ @_ZN9BME280I2C13WriteRegisterEhh
.Lfunc_begin5:
	.loc	32 141 0 is_stmt 1      @ /root/Bela/projects/Thesis/BME280I2C.cpp:141:0
	.fnstart
	.cfi_startproc
@ BB#0:
	.save	{r4, r5, r6, r7, r11, lr}
	push	{r4, r5, r6, r7, r11, lr}
.Ltmp48:
	.cfi_def_cfa_offset 24
.Ltmp49:
	.cfi_offset lr, -4
.Ltmp50:
	.cfi_offset r11, -8
.Ltmp51:
	.cfi_offset r7, -12
.Ltmp52:
	.cfi_offset r6, -16
.Ltmp53:
	.cfi_offset r5, -20
.Ltmp54:
	.cfi_offset r4, -24
	.setfp	r11, sp, #16
	add	r11, sp, #16
.Ltmp55:
	.cfi_def_cfa r11, 8
	.pad	#8
	sub	sp, sp, #8
	@DEBUG_VALUE: WriteRegister:this <- %R0
	@DEBUG_VALUE: WriteRegister:reg <- %R1
	@DEBUG_VALUE: WriteRegister:data <- %R2
	mov	r7, r0
.Ltmp56:
	@DEBUG_VALUE: WriteRegister:this <- %R7
	mov	r6, r2
.Ltmp57:
	@DEBUG_VALUE: WriteRegister:data <- %R6
	.loc	32 142 16 prologue_end  @ /root/Bela/projects/Thesis/BME280I2C.cpp:142:16
	ldr	r0, [r7]
	mov	r4, r1
.Ltmp58:
	@DEBUG_VALUE: WriteRegister:reg <- %R4
	.loc	32 142 16 is_stmt 0 discriminator 1 @ /root/Bela/projects/Thesis/BME280I2C.cpp:142:16
	mov	r1, #1
	mov	r2, #118
	mov	r5, #1
	.loc	32 142 16               @ /root/Bela/projects/Thesis/BME280I2C.cpp:142:16
	ldr	r3, [r0, #32]
	.loc	32 142 16 discriminator 1 @ /root/Bela/projects/Thesis/BME280I2C.cpp:142:16
	mov	r0, r7
	blx	r3
	.loc	32 143 20 is_stmt 1     @ /root/Bela/projects/Thesis/BME280I2C.cpp:143:20
	strb	r4, [sp, #6]
	add	r1, sp, #6
.Ltmp59:
	@DEBUG_VALUE: WriteRegister:buf <- [%R1+0]
	strb	r6, [sp, #7]
.Ltmp60:
	.loc	32 145 5                @ /root/Bela/projects/Thesis/BME280I2C.cpp:145:5
	mov	r2, #2
	.loc	32 145 11 is_stmt 0     @ /root/Bela/projects/Thesis/BME280I2C.cpp:145:11
	ldr	r0, [r7, #12]
	.loc	32 145 5                @ /root/Bela/projects/Thesis/BME280I2C.cpp:145:5
	bl	write
.Ltmp61:
	.loc	32 145 5                @ /root/Bela/projects/Thesis/BME280I2C.cpp:145:5
	cmp	r0, #2
	beq	.LBB5_2
.Ltmp62:
@ BB#1:
	@DEBUG_VALUE: WriteRegister:reg <- %R4
	@DEBUG_VALUE: WriteRegister:data <- %R6
	@DEBUG_VALUE: WriteRegister:this <- %R7
	.file	33 "/usr/bin/../lib/gcc/arm-linux-gnueabihf/6.3.0/../../../../include/c++/6.3.0" "ostream"
	.loc	33 561 2 is_stmt 1      @ /usr/bin/../lib/gcc/arm-linux-gnueabihf/6.3.0/../../../../include/c++/6.3.0/ostream:561:2
	movw	r5, :lower16:_ZSt4cout
	movw	r1, :lower16:.L.str.2
	movt	r5, :upper16:_ZSt4cout
.Ltmp63:
	@DEBUG_VALUE: operator<<<std::char_traits<char> >:__out <- %R5
	movt	r1, :upper16:.L.str.2
.Ltmp64:
	@DEBUG_VALUE: operator<<<std::char_traits<char> >:__s <- %R1
	mov	r0, r5
	mov	r2, #25
	bl	_ZSt16__ostream_insertIcSt11char_traitsIcEERSt13basic_ostreamIT_T0_ES6_PKS3_i
.Ltmp65:
	.loc	32 146 44 discriminator 1 @ /root/Bela/projects/Thesis/BME280I2C.cpp:146:44
	mov	r0, r5
	mov	r1, r4
	bl	_ZNSolsEi
.Ltmp66:
	@DEBUG_VALUE: operator<<<std::char_traits<char> >:__out <- %R0
	.loc	33 561 2                @ /usr/bin/../lib/gcc/arm-linux-gnueabihf/6.3.0/../../../../include/c++/6.3.0/ostream:561:2
	movw	r1, :lower16:.L.str.3
	mov	r2, #11
	movt	r1, :upper16:.L.str.3
.Ltmp67:
	@DEBUG_VALUE: operator<<<std::char_traits<char> >:__s <- %R1
	bl	_ZSt16__ostream_insertIcSt11char_traitsIcEERSt13basic_ostreamIT_T0_ES6_PKS3_i
.Ltmp68:
	mov	r5, #0
.Ltmp69:
.LBB5_2:
	@DEBUG_VALUE: WriteRegister:reg <- %R4
	@DEBUG_VALUE: WriteRegister:data <- %R6
	@DEBUG_VALUE: WriteRegister:this <- %R7
	.loc	32 150 1                @ /root/Bela/projects/Thesis/BME280I2C.cpp:150:1
	mov	r0, r5
	sub	sp, r11, #16
	pop	{r4, r5, r6, r7, r11, pc}
.Ltmp70:
.Lfunc_end5:
	.size	_ZN9BME280I2C13WriteRegisterEhh, .Lfunc_end5-_ZN9BME280I2C13WriteRegisterEhh
	.cfi_endproc
	.file	34 "/usr/bin/../lib/gcc/arm-linux-gnueabihf/6.3.0/../../../../include/c++/6.3.0/bits" "char_traits.h"
	.fnend

	.globl	_ZN9BME280I2C12ReadRegisterEhPhh
	.p2align	2
	.type	_ZN9BME280I2C12ReadRegisterEhPhh,%function
_ZN9BME280I2C12ReadRegisterEhPhh:       @ @_ZN9BME280I2C12ReadRegisterEhPhh
.Lfunc_begin6:
	.loc	32 160 0                @ /root/Bela/projects/Thesis/BME280I2C.cpp:160:0
	.fnstart
	.cfi_startproc
@ BB#0:
	.save	{r4, r5, r6, r7, r8, r10, r11, lr}
	push	{r4, r5, r6, r7, r8, r10, r11, lr}
.Ltmp71:
	.cfi_def_cfa_offset 32
.Ltmp72:
	.cfi_offset lr, -4
.Ltmp73:
	.cfi_offset r11, -8
.Ltmp74:
	.cfi_offset r10, -12
.Ltmp75:
	.cfi_offset r8, -16
.Ltmp76:
	.cfi_offset r7, -20
.Ltmp77:
	.cfi_offset r6, -24
.Ltmp78:
	.cfi_offset r5, -28
.Ltmp79:
	.cfi_offset r4, -32
	.setfp	r11, sp, #24
	add	r11, sp, #24
.Ltmp80:
	.cfi_def_cfa r11, 8
	.pad	#40
	sub	sp, sp, #40
	@DEBUG_VALUE: ReadRegister:this <- %R0
	@DEBUG_VALUE: ReadRegister:reg <- %R1
	@DEBUG_VALUE: ReadRegister:inbuf <- %R2
	@DEBUG_VALUE: ReadRegister:count <- %R3
.Ltmp81:
	@DEBUG_VALUE: ReadRegister:outbuf <- %R1
	mov	r7, r0
.Ltmp82:
	@DEBUG_VALUE: ReadRegister:this <- %R7
	mov	r4, r3
.Ltmp83:
	@DEBUG_VALUE: ReadRegister:count <- %R4
	.loc	32 161 17 prologue_end  @ /root/Bela/projects/Thesis/BME280I2C.cpp:161:17
	ldr	r0, [r7]
	mov	r5, r2
.Ltmp84:
	@DEBUG_VALUE: ReadRegister:inbuf <- %R5
	mov	r6, r1
.Ltmp85:
	@DEBUG_VALUE: ReadRegister:outbuf <- %R6
	@DEBUG_VALUE: ReadRegister:reg <- %R6
	.loc	32 161 17 is_stmt 0 discriminator 1 @ /root/Bela/projects/Thesis/BME280I2C.cpp:161:17
	mov	r1, #1
	mov	r2, #118
	mov	r8, #1
	.loc	32 161 17               @ /root/Bela/projects/Thesis/BME280I2C.cpp:161:17
	ldr	r3, [r0, #32]
	.loc	32 161 17 discriminator 1 @ /root/Bela/projects/Thesis/BME280I2C.cpp:161:17
	mov	r0, r7
	blx	r3
	.loc	32 171 12 is_stmt 1     @ /root/Bela/projects/Thesis/BME280I2C.cpp:171:12
	strb	r6, [r11, #-25]
	.loc	32 173 23               @ /root/Bela/projects/Thesis/BME280I2C.cpp:173:23
	mov	r1, #0
	.loc	32 172 24               @ /root/Bela/projects/Thesis/BME280I2C.cpp:172:24
	ldrh	r0, [r7, #84]
	add	r2, sp, #28
.Ltmp86:
	@DEBUG_VALUE: ReadRegister:packets <- [%R2+0]
	.loc	32 172 22 is_stmt 0     @ /root/Bela/projects/Thesis/BME280I2C.cpp:172:22
	strh	r0, [sp, #4]
	.loc	32 173 23 is_stmt 1     @ /root/Bela/projects/Thesis/BME280I2C.cpp:173:23
	strh	r1, [sp, #6]
	sub	r1, r11, #25
.Ltmp87:
	@DEBUG_VALUE: ReadRegister:outbuf <- [%R1+0]
	.loc	32 174 21               @ /root/Bela/projects/Thesis/BME280I2C.cpp:174:21
	strh	r8, [sp, #8]
	.loc	32 175 21               @ /root/Bela/projects/Thesis/BME280I2C.cpp:175:21
	str	r1, [sp, #12]
.Ltmp88:
	.loc	32 186 8                @ /root/Bela/projects/Thesis/BME280I2C.cpp:186:8
	movw	r1, #1799
.Ltmp89:
	.loc	32 178 22               @ /root/Bela/projects/Thesis/BME280I2C.cpp:178:22
	strh	r0, [sp, #16]
	add	r0, sp, #4
.Ltmp90:
	@DEBUG_VALUE: ReadRegister:messages <- [%R0+0]
	.loc	32 184 18               @ /root/Bela/projects/Thesis/BME280I2C.cpp:184:18
	str	r0, [sp, #28]
	mov	r0, #2
.Ltmp91:
	.loc	32 179 23               @ /root/Bela/projects/Thesis/BME280I2C.cpp:179:23
	strh	r8, [sp, #18]
	.loc	32 180 21               @ /root/Bela/projects/Thesis/BME280I2C.cpp:180:21
	strh	r4, [sp, #20]
	.loc	32 181 21               @ /root/Bela/projects/Thesis/BME280I2C.cpp:181:21
	str	r5, [sp, #24]
	.loc	32 185 19               @ /root/Bela/projects/Thesis/BME280I2C.cpp:185:19
	str	r0, [sp, #32]
.Ltmp92:
	.loc	32 186 14               @ /root/Bela/projects/Thesis/BME280I2C.cpp:186:14
	ldr	r0, [r7, #12]
	.loc	32 186 8 is_stmt 0      @ /root/Bela/projects/Thesis/BME280I2C.cpp:186:8
	bl	ioctl
.Ltmp93:
	.loc	32 188 9 is_stmt 1      @ /root/Bela/projects/Thesis/BME280I2C.cpp:188:9
	mov	r0, #1
	sub	sp, r11, #24
	pop	{r4, r5, r6, r7, r8, r10, r11, pc}
.Ltmp94:
.Lfunc_end6:
	.size	_ZN9BME280I2C12ReadRegisterEhPhh, .Lfunc_end6-_ZN9BME280I2C12ReadRegisterEhPhh
	.cfi_endproc
	.fnend

	.globl	_ZN9BME280I2C6updateEv
	.p2align	2
	.type	_ZN9BME280I2C6updateEv,%function
_ZN9BME280I2C6updateEv:                 @ @_ZN9BME280I2C6updateEv
.Lfunc_begin7:
	.loc	32 196 0                @ /root/Bela/projects/Thesis/BME280I2C.cpp:196:0
	.fnstart
	.cfi_startproc
@ BB#0:
	.save	{r11, lr}
	push	{r11, lr}
.Ltmp95:
	.cfi_def_cfa_offset 8
.Ltmp96:
	.cfi_offset lr, -4
.Ltmp97:
	.cfi_offset r11, -8
	.setfp	r11, sp
	mov	r11, sp
.Ltmp98:
	.cfi_def_cfa_register r11
	.pad	#24
	sub	sp, sp, #24
	@DEBUG_VALUE: update:this <- %R0
.Ltmp99:
	.loc	32 197 10 prologue_end  @ /root/Bela/projects/Thesis/BME280I2C.cpp:197:10
	movw	r1, #0
	sub	r2, r11, #4
.Ltmp100:
	@DEBUG_VALUE: update:temp <- [%R2+0]
	@DEBUG_VALUE: update:presUnit <- 0
	@DEBUG_VALUE: update:tempUnit <- 0
	movt	r1, #32704
.Ltmp101:
	@DEBUG_VALUE: update:temp <- nan
	sub	r3, r11, #8
.Ltmp102:
	@DEBUG_VALUE: update:hum <- [%R3+0]
	str	r1, [r11, #-4]
.Ltmp103:
	@DEBUG_VALUE: update:hum <- nan
	.loc	32 197 39 is_stmt 0     @ /root/Bela/projects/Thesis/BME280I2C.cpp:197:39
	str	r1, [r11, #-8]
.Ltmp104:
	@DEBUG_VALUE: update:pres <- nan
	.loc	32 197 67               @ /root/Bela/projects/Thesis/BME280I2C.cpp:197:67
	str	r1, [sp, #12]
	mov	r1, #0
	.loc	32 202 4 is_stmt 1      @ /root/Bela/projects/Thesis/BME280I2C.cpp:202:4
	str	r1, [sp]
	str	r1, [sp, #4]
	add	r1, sp, #12
.Ltmp105:
	@DEBUG_VALUE: update:pres <- [%R1+0]
	bl	_ZN6BME2804readERfS0_S0_NS_8TempUnitENS_8PresUnitE
.Ltmp106:
	.loc	32 210 4                @ /root/Bela/projects/Thesis/BME280I2C.cpp:210:4
	movw	r0, #33920
	movt	r0, #30
	bl	usleep
	.loc	32 211 1                @ /root/Bela/projects/Thesis/BME280I2C.cpp:211:1
	mov	sp, r11
	pop	{r11, pc}
.Ltmp107:
.Lfunc_end7:
	.size	_ZN9BME280I2C6updateEv, .Lfunc_end7-_ZN9BME280I2C6updateEv
	.cfi_endproc
	.fnend

	.globl	_ZN9BME280I2C17BeginTransmissionEhh
	.p2align	2
	.type	_ZN9BME280I2C17BeginTransmissionEhh,%function
_ZN9BME280I2C17BeginTransmissionEhh:    @ @_ZN9BME280I2C17BeginTransmissionEhh
.Lfunc_begin8:
	.loc	32 213 0                @ /root/Bela/projects/Thesis/BME280I2C.cpp:213:0
	.fnstart
	.cfi_startproc
@ BB#0:
	.save	{r4, r5, r6, r10, r11, lr}
	push	{r4, r5, r6, r10, r11, lr}
.Ltmp108:
	.cfi_def_cfa_offset 24
.Ltmp109:
	.cfi_offset lr, -4
.Ltmp110:
	.cfi_offset r11, -8
.Ltmp111:
	.cfi_offset r10, -12
.Ltmp112:
	.cfi_offset r6, -16
.Ltmp113:
	.cfi_offset r5, -20
.Ltmp114:
	.cfi_offset r4, -24
	.setfp	r11, sp, #16
	add	r11, sp, #16
.Ltmp115:
	.cfi_def_cfa r11, 8
	.pad	#80
	sub	sp, sp, #80
	@DEBUG_VALUE: BeginTransmission:this <- %R0
	@DEBUG_VALUE: BeginTransmission:bus <- %R1
	@DEBUG_VALUE: BeginTransmission:i2caddr <- %R2
	mov	r4, r0
.Ltmp116:
	@DEBUG_VALUE: initI2C_RW:address <- %R2
	@DEBUG_VALUE: BeginTransmission:this <- %R4
	mov	r3, r1
.Ltmp117:
	@DEBUG_VALUE: BeginTransmission:bus <- %R3
	add	r5, sp, #4
.Ltmp118:
	.loc	32 214 16 prologue_end  @ /root/Bela/projects/Thesis/BME280I2C.cpp:214:16
	str	r2, [r4, #84]
.Ltmp119:
	@DEBUG_VALUE: initI2C_RW:fileHnd <- 0
	@DEBUG_VALUE: initI2C_RW:bus <- %R3
	.file	35 "./include" "I2c.h"
	.loc	35 44 10                @ ./include/I2c.h:44:10
	str	r3, [r4, #4]
	mov	r0, #0
	.loc	35 45 14                @ ./include/I2c.h:45:14
	str	r2, [r4, #8]
	.loc	35 50 2                 @ ./include/I2c.h:50:2
	movw	r2, :lower16:.L.str.6
.Ltmp120:
	.loc	35 46 11                @ ./include/I2c.h:46:11
	str	r0, [r4, #12]
	.loc	35 50 2                 @ ./include/I2c.h:50:2
	movt	r2, :upper16:.L.str.6
	mov	r0, r5
	mov	r1, #64
	bl	snprintf
.Ltmp121:
	.loc	35 52 18                @ ./include/I2c.h:52:18
	mov	r0, r5
	mov	r1, #2
	bl	open
	.loc	35 52 16 is_stmt 0      @ ./include/I2c.h:52:16
	str	r0, [r4, #12]
.Ltmp122:
	.loc	35 52 6                 @ ./include/I2c.h:52:6
	cmp	r0, #0
	blt	.LBB8_8
.Ltmp123:
@ BB#1:
	@DEBUG_VALUE: BeginTransmission:this <- %R4
	.loc	35 59 30 is_stmt 1      @ ./include/I2c.h:59:30
	ldr	r2, [r4, #8]
	.loc	35 59 6 is_stmt 0       @ ./include/I2c.h:59:6
	movw	r1, #1795
	bl	ioctl
.Ltmp124:
	.loc	35 59 6                 @ ./include/I2c.h:59:6
	cmp	r0, #0
	blt	.LBB8_9
.Ltmp125:
@ BB#2:
	@DEBUG_VALUE: BeginTransmission:this <- %R4
	.loc	32 245 12 is_stmt 1     @ /root/Bela/projects/Thesis/BME280I2C.cpp:245:12
	mov	r0, #208
.Ltmp126:
	@DEBUG_VALUE: Read8:outbuf <- -48
	mov	r6, #0
	strb	r0, [r11, #-18]
	.loc	32 248 21               @ /root/Bela/projects/Thesis/BME280I2C.cpp:248:21
	mov	r1, #1
	.loc	32 246 24               @ /root/Bela/projects/Thesis/BME280I2C.cpp:246:24
	ldrh	r0, [r4, #84]
	sub	r2, r11, #18
.Ltmp127:
	@DEBUG_VALUE: Read8:outbuf <- [%R2+0]
	.loc	32 246 22 is_stmt 0     @ /root/Bela/projects/Thesis/BME280I2C.cpp:246:22
	strh	r0, [sp, #4]
	.loc	32 247 23 is_stmt 1     @ /root/Bela/projects/Thesis/BME280I2C.cpp:247:23
	strh	r6, [sp, #6]
	.loc	32 248 21               @ /root/Bela/projects/Thesis/BME280I2C.cpp:248:21
	strh	r1, [sp, #8]
	.loc	32 249 21               @ /root/Bela/projects/Thesis/BME280I2C.cpp:249:21
	str	r2, [sp, #12]
	sub	r2, r11, #28
.Ltmp128:
	@DEBUG_VALUE: Read8:packets <- [%R2+0]
	.loc	32 252 22               @ /root/Bela/projects/Thesis/BME280I2C.cpp:252:22
	strh	r0, [sp, #16]
	sub	r0, r11, #17
.Ltmp129:
	@DEBUG_VALUE: Read8:inbuf <- [%R0+0]
	@DEBUG_VALUE: Read8:reg <- -48
	.loc	32 253 23               @ /root/Bela/projects/Thesis/BME280I2C.cpp:253:23
	strh	r1, [sp, #18]
	.loc	32 254 21               @ /root/Bela/projects/Thesis/BME280I2C.cpp:254:21
	strh	r1, [sp, #20]
.Ltmp130:
	.loc	32 260 8                @ /root/Bela/projects/Thesis/BME280I2C.cpp:260:8
	movw	r1, #1799
.Ltmp131:
	.loc	32 255 21               @ /root/Bela/projects/Thesis/BME280I2C.cpp:255:21
	str	r0, [sp, #24]
	mov	r0, #2
.Ltmp132:
	.loc	32 258 18               @ /root/Bela/projects/Thesis/BME280I2C.cpp:258:18
	str	r5, [r11, #-28]
	.loc	32 259 19               @ /root/Bela/projects/Thesis/BME280I2C.cpp:259:19
	str	r0, [r11, #-24]
.Ltmp133:
	.loc	32 260 14               @ /root/Bela/projects/Thesis/BME280I2C.cpp:260:14
	ldr	r0, [r4, #12]
	.loc	32 260 8 is_stmt 0      @ /root/Bela/projects/Thesis/BME280I2C.cpp:260:8
	bl	ioctl
.Ltmp134:
	.loc	32 260 8                @ /root/Bela/projects/Thesis/BME280I2C.cpp:260:8
	cmp	r0, #0
.Ltmp135:
	@DEBUG_VALUE: Read8:this <- %R4
	blt	.LBB8_4
.Ltmp136:
@ BB#3:
	@DEBUG_VALUE: Read8:this <- %R4
	@DEBUG_VALUE: BeginTransmission:this <- %R4
	.loc	32 265 12 is_stmt 1     @ /root/Bela/projects/Thesis/BME280I2C.cpp:265:12
	ldrb	r6, [r11, #-17]
	b	.LBB8_5
.Ltmp137:
.LBB8_4:
	@DEBUG_VALUE: Read8:this <- %R4
	@DEBUG_VALUE: BeginTransmission:this <- %R4
	.loc	32 261 9                @ /root/Bela/projects/Thesis/BME280I2C.cpp:261:9
	movw	r0, :lower16:.L.str.5
	movt	r0, :upper16:.L.str.5
	bl	rt_printf
.Ltmp138:
.LBB8_5:                                @ %_ZN9BME280I2C5Read8Eh.exit
	@DEBUG_VALUE: Read8:this <- %R4
	@DEBUG_VALUE: BeginTransmission:this <- %R4
	.loc	32 221 5                @ /root/Bela/projects/Thesis/BME280I2C.cpp:221:5
	cmp	r6, #96
	bne	.LBB8_7
.Ltmp139:
@ BB#6:
	@DEBUG_VALUE: Read8:this <- %R4
	@DEBUG_VALUE: BeginTransmission:this <- %R4
	.loc	32 226 2                @ /root/Bela/projects/Thesis/BME280I2C.cpp:226:2
	movw	r0, #34464
	movt	r0, #1
	bl	usleep
	mov	r0, #1
	.loc	32 233 1 discriminator 1 @ /root/Bela/projects/Thesis/BME280I2C.cpp:233:1
	sub	sp, r11, #16
	pop	{r4, r5, r6, r10, r11, pc}
.Ltmp140:
.LBB8_7:
	@DEBUG_VALUE: Read8:this <- %R4
	@DEBUG_VALUE: BeginTransmission:this <- %R4
	.loc	32 222 6                @ /root/Bela/projects/Thesis/BME280I2C.cpp:222:6
	movw	r0, :lower16:.L.str.4
	mov	r1, r6
	movt	r0, :upper16:.L.str.4
	bl	rt_printf
	b	.LBB8_11
.Ltmp141:
.LBB8_8:
	@DEBUG_VALUE: BeginTransmission:this <- %R4
	.loc	35 54 11                @ ./include/I2c.h:54:11
	movw	r0, :lower16:stderr
	.loc	35 54 3 is_stmt 0       @ ./include/I2c.h:54:3
	movw	r1, :lower16:.L.str.7
	.loc	35 54 11                @ ./include/I2c.h:54:11
	movt	r0, :upper16:stderr
	.loc	35 54 3                 @ ./include/I2c.h:54:3
	movt	r1, :upper16:.L.str.7
	.loc	35 54 11                @ ./include/I2c.h:54:11
	ldr	r0, [r0]
	add	r2, sp, #4
	b	.LBB8_10
.Ltmp142:
.LBB8_9:
	@DEBUG_VALUE: BeginTransmission:this <- %R4
	.loc	35 60 11 is_stmt 1      @ ./include/I2c.h:60:11
	movw	r0, :lower16:stderr
	.loc	35 60 54 is_stmt 0      @ ./include/I2c.h:60:54
	ldr	r2, [r4, #8]
	.loc	35 60 11                @ ./include/I2c.h:60:11
	movt	r0, :upper16:stderr
	.loc	35 60 3                 @ ./include/I2c.h:60:3
	movw	r1, :lower16:.L.str.8
	.loc	35 60 11                @ ./include/I2c.h:60:11
	ldr	r0, [r0]
	.loc	35 60 3                 @ ./include/I2c.h:60:3
	movt	r1, :upper16:.L.str.8
.Ltmp143:
.LBB8_10:                               @ %_ZN3I2c10initI2C_RWEiii.exit.thread
	@DEBUG_VALUE: BeginTransmission:this <- %R4
	bl	fprintf
.Ltmp144:
.LBB8_11:                               @ %_ZN3I2c10initI2C_RWEiii.exit.thread
	@DEBUG_VALUE: BeginTransmission:this <- %R4
	mov	r0, #0
	.loc	32 233 1 is_stmt 1 discriminator 1 @ /root/Bela/projects/Thesis/BME280I2C.cpp:233:1
	sub	sp, r11, #16
	pop	{r4, r5, r6, r10, r11, pc}
.Ltmp145:
.Lfunc_end8:
	.size	_ZN9BME280I2C17BeginTransmissionEhh, .Lfunc_end8-_ZN9BME280I2C17BeginTransmissionEhh
	.cfi_endproc
	.file	36 "/usr/include/asm-generic" "int-ll64.h"
	.file	37 "/usr/include/linux" "i2c.h"
	.file	38 "/usr/include/linux" "i2c-dev.h"
	.fnend

	.globl	_ZN9BME280I2C5Read8Eh
	.p2align	2
	.type	_ZN9BME280I2C5Read8Eh,%function
_ZN9BME280I2C5Read8Eh:                  @ @_ZN9BME280I2C5Read8Eh
.Lfunc_begin9:
	.loc	32 235 0                @ /root/Bela/projects/Thesis/BME280I2C.cpp:235:0
	.fnstart
	.cfi_startproc
@ BB#0:
	.save	{r4, r10, r11, lr}
	push	{r4, r10, r11, lr}
.Ltmp146:
	.cfi_def_cfa_offset 16
.Ltmp147:
	.cfi_offset lr, -4
.Ltmp148:
	.cfi_offset r11, -8
.Ltmp149:
	.cfi_offset r10, -12
.Ltmp150:
	.cfi_offset r4, -16
	.setfp	r11, sp, #8
	add	r11, sp, #8
.Ltmp151:
	.cfi_def_cfa r11, 8
	.pad	#40
	sub	sp, sp, #40
	@DEBUG_VALUE: Read8:this <- %R0
	@DEBUG_VALUE: Read8:reg <- %R1
.Ltmp152:
	@DEBUG_VALUE: Read8:outbuf <- %R1
	.loc	32 245 12 prologue_end  @ /root/Bela/projects/Thesis/BME280I2C.cpp:245:12
	strb	r1, [r11, #-10]
	mov	r4, #0
	.loc	32 246 24               @ /root/Bela/projects/Thesis/BME280I2C.cpp:246:24
	ldrh	r1, [r0, #84]
.Ltmp153:
	.loc	32 248 21               @ /root/Bela/projects/Thesis/BME280I2C.cpp:248:21
	mov	r2, #1
	.loc	32 246 22               @ /root/Bela/projects/Thesis/BME280I2C.cpp:246:22
	strh	r1, [sp, #4]
	sub	r3, r11, #10
.Ltmp154:
	@DEBUG_VALUE: Read8:outbuf <- [%R3+0]
	.loc	32 247 23               @ /root/Bela/projects/Thesis/BME280I2C.cpp:247:23
	strh	r4, [sp, #6]
	.loc	32 248 21               @ /root/Bela/projects/Thesis/BME280I2C.cpp:248:21
	strh	r2, [sp, #8]
	.loc	32 249 21               @ /root/Bela/projects/Thesis/BME280I2C.cpp:249:21
	str	r3, [sp, #12]
	.loc	32 252 22               @ /root/Bela/projects/Thesis/BME280I2C.cpp:252:22
	strh	r1, [sp, #16]
	sub	r1, r11, #9
.Ltmp155:
	@DEBUG_VALUE: Read8:inbuf <- [%R1+0]
	.loc	32 253 23               @ /root/Bela/projects/Thesis/BME280I2C.cpp:253:23
	strh	r2, [sp, #18]
	.loc	32 254 21               @ /root/Bela/projects/Thesis/BME280I2C.cpp:254:21
	strh	r2, [sp, #20]
	sub	r2, r11, #20
.Ltmp156:
	@DEBUG_VALUE: Read8:packets <- [%R2+0]
	.loc	32 255 21               @ /root/Bela/projects/Thesis/BME280I2C.cpp:255:21
	str	r1, [sp, #24]
	add	r1, sp, #4
.Ltmp157:
	@DEBUG_VALUE: Read8:messages <- [%R1+0]
	.loc	32 258 18               @ /root/Bela/projects/Thesis/BME280I2C.cpp:258:18
	str	r1, [r11, #-20]
	mov	r1, #2
.Ltmp158:
	.loc	32 259 19               @ /root/Bela/projects/Thesis/BME280I2C.cpp:259:19
	str	r1, [r11, #-16]
.Ltmp159:
	.loc	32 260 8                @ /root/Bela/projects/Thesis/BME280I2C.cpp:260:8
	movw	r1, #1799
	.loc	32 260 14 is_stmt 0     @ /root/Bela/projects/Thesis/BME280I2C.cpp:260:14
	ldr	r0, [r0, #12]
.Ltmp160:
	.loc	32 260 8                @ /root/Bela/projects/Thesis/BME280I2C.cpp:260:8
	bl	ioctl
.Ltmp161:
	.loc	32 260 8                @ /root/Bela/projects/Thesis/BME280I2C.cpp:260:8
	cmp	r0, #0
	blt	.LBB9_2
@ BB#1:
	.loc	32 265 12 is_stmt 1     @ /root/Bela/projects/Thesis/BME280I2C.cpp:265:12
	ldrb	r4, [r11, #-9]
	b	.LBB9_3
.LBB9_2:
.Ltmp162:
	.loc	32 261 9                @ /root/Bela/projects/Thesis/BME280I2C.cpp:261:9
	movw	r0, :lower16:.L.str.5
	movt	r0, :upper16:.L.str.5
	bl	rt_printf
.Ltmp163:
.LBB9_3:
	.loc	32 266 1                @ /root/Bela/projects/Thesis/BME280I2C.cpp:266:1
	mov	r0, r4
	sub	sp, r11, #8
	pop	{r4, r10, r11, pc}
.Ltmp164:
.Lfunc_end9:
	.size	_ZN9BME280I2C5Read8Eh, .Lfunc_end9-_ZN9BME280I2C5Read8Eh
	.cfi_endproc
	.fnend

	.section	.text._ZN3I2cD2Ev,"axG",%progbits,_ZN3I2cD2Ev,comdat
	.weak	_ZN3I2cD2Ev
	.p2align	2
	.type	_ZN3I2cD2Ev,%function
_ZN3I2cD2Ev:                            @ @_ZN3I2cD2Ev
.Lfunc_begin10:
	.loc	35 90 0                 @ ./include/I2c.h:90:0
	.fnstart
	.cfi_startproc
@ BB#0:
	@DEBUG_VALUE: ~I2c:this <- %R0
	.loc	35 90 20 prologue_end   @ ./include/I2c.h:90:20
	bx	lr
.Ltmp165:
.Lfunc_end10:
	.size	_ZN3I2cD2Ev, .Lfunc_end10-_ZN3I2cD2Ev
	.cfi_endproc
	.fnend

	.section	.text._ZN9BME280I2CD0Ev,"axG",%progbits,_ZN9BME280I2CD0Ev,comdat
	.weak	_ZN9BME280I2CD0Ev
	.p2align	2
	.type	_ZN9BME280I2CD0Ev,%function
_ZN9BME280I2CD0Ev:                      @ @_ZN9BME280I2CD0Ev
.Lfunc_begin11:
	.loc	6 58 0                  @ /root/Bela/projects/Thesis/BME280I2C.h:58:0
	.fnstart
	.cfi_startproc
@ BB#0:
	@DEBUG_VALUE: ~BME280I2C:this <- %R0
	.loc	6 58 7 prologue_end discriminator 1 @ /root/Bela/projects/Thesis/BME280I2C.h:58:7
	b	_ZdlPv
.Ltmp166:
.Lfunc_end11:
	.size	_ZN9BME280I2CD0Ev, .Lfunc_end11-_ZN9BME280I2CD0Ev
	.cfi_endproc
	.fnend

	.section	.text.startup,"ax",%progbits
	.p2align	2
	.type	_GLOBAL__sub_I_BME280I2C.ii,%function
_GLOBAL__sub_I_BME280I2C.ii:            @ @_GLOBAL__sub_I_BME280I2C.ii
.Lfunc_begin12:
	.file	39 "/root/Bela/projects/Thesis/build" "BME280I2C.cpp"
	.loc	39 0 0                  @ /root/Bela/projects/Thesis/build/BME280I2C.cpp:0:0
	.fnstart
	.cfi_startproc
@ BB#0:
	.save	{r4, r10, r11, lr}
	push	{r4, r10, r11, lr}
.Ltmp167:
	.cfi_def_cfa_offset 16
.Ltmp168:
	.cfi_offset lr, -4
.Ltmp169:
	.cfi_offset r11, -8
.Ltmp170:
	.cfi_offset r10, -12
.Ltmp171:
	.cfi_offset r4, -16
	.setfp	r11, sp, #8
	add	r11, sp, #8
.Ltmp172:
	.cfi_def_cfa r11, 8
.Ltmp173:
	.loc	4 74 25 prologue_end    @ /usr/bin/../lib/gcc/arm-linux-gnueabihf/6.3.0/../../../../include/c++/6.3.0/iostream:74:25
	movw	r4, :lower16:_ZStL8__ioinit
	movt	r4, :upper16:_ZStL8__ioinit
	mov	r0, r4
	bl	_ZNSt8ios_base4InitC1Ev
	.loc	4 74 25 is_stmt 0 discriminator 1 @ /usr/bin/../lib/gcc/arm-linux-gnueabihf/6.3.0/../../../../include/c++/6.3.0/iostream:74:25
	movw	r0, :lower16:_ZNSt8ios_base4InitD1Ev
	movw	r2, :lower16:__dso_handle
	movt	r0, :upper16:_ZNSt8ios_base4InitD1Ev
	movt	r2, :upper16:__dso_handle
	mov	r1, r4
	pop	{r4, r10, r11, lr}
	b	__cxa_atexit
.Ltmp174:
.Lfunc_end12:
	.size	_GLOBAL__sub_I_BME280I2C.ii, .Lfunc_end12-_GLOBAL__sub_I_BME280I2C.ii
	.cfi_endproc
	.fnend

	.type	_ZStL8__ioinit,%object  @ @_ZStL8__ioinit
	.local	_ZStL8__ioinit
	.comm	_ZStL8__ioinit,1,1
	.type	.L.str,%object          @ @.str
	.section	.rodata.str1.1,"aMS",%progbits,1
.L.str:
	.asciz	"Unable to send data (65) "
	.size	.L.str, 26

	.type	.L.str.1,%object        @ @.str.1
.L.str.1:
	.asciz	"Unable to send data (98) "
	.size	.L.str.1, 26

	.type	_ZTV9BME280I2C,%object  @ @_ZTV9BME280I2C
	.section	.rodata,"a",%progbits
	.globl	_ZTV9BME280I2C
	.p2align	2
_ZTV9BME280I2C:
	.long	0
	.long	_ZTI9BME280I2C
	.long	_ZN3I2cD2Ev
	.long	_ZN9BME280I2CD0Ev
	.long	_ZN6BME28010InitializeEv
	.long	_ZN6BME28011setSettingsERKNS_8SettingsE
	.long	_ZNK9BME280I2C11getSettingsEv
	.long	_ZN9BME280I2C13WriteRegisterEhh
	.long	_ZN9BME280I2C12ReadRegisterEhPhh
	.long	_ZN9BME280I2C11setSettingsERKNS_8SettingsE
	.long	_ZN9BME280I2C17BeginTransmissionEhh
	.size	_ZTV9BME280I2C, 44

	.type	.L.str.2,%object        @ @.str.2
	.section	.rodata.str1.1,"aMS",%progbits,1
.L.str.2:
	.asciz	"Failed to write register "
	.size	.L.str.2, 26

	.type	.L.str.3,%object        @ @.str.3
.L.str.3:
	.asciz	" on BME280\n"
	.size	.L.str.3, 12

	.type	.L.str.4,%object        @ @.str.4
.L.str.4:
	.asciz	"Could not connect to BME280: 0x%X\n"
	.size	.L.str.4, 35

	.type	.L.str.5,%object        @ @.str.5
.L.str.5:
	.asciz	"Unable to send data (282) "
	.size	.L.str.5, 27

	.type	_ZTS9BME280I2C,%object  @ @_ZTS9BME280I2C
	.section	.rodata,"a",%progbits
	.globl	_ZTS9BME280I2C
_ZTS9BME280I2C:
	.asciz	"9BME280I2C"
	.size	_ZTS9BME280I2C, 11

	.type	_ZTI9BME280I2C,%object  @ @_ZTI9BME280I2C
	.globl	_ZTI9BME280I2C
	.p2align	2
_ZTI9BME280I2C:
	.long	_ZTVN10__cxxabiv120__si_class_type_infoE+8
	.long	_ZTS9BME280I2C
	.long	_ZTI6BME280
	.size	_ZTI9BME280I2C, 12

	.type	.L.str.6,%object        @ @.str.6
	.section	.rodata.str1.1,"aMS",%progbits,1
.L.str.6:
	.asciz	"/dev/i2c-%d"
	.size	.L.str.6, 12

	.type	.L.str.7,%object        @ @.str.7
.L.str.7:
	.asciz	"Failed to open %s I2C Bus\n"
	.size	.L.str.7, 27

	.type	.L.str.8,%object        @ @.str.8
.L.str.8:
	.asciz	"I2C_SLAVE address %#x failed..."
	.size	.L.str.8, 32

	.section	.init_array,"aw",%init_array
	.p2align	2
	.long	_GLOBAL__sub_I_BME280I2C.ii(target1)
	.file	40 "<stdin>"
	.section	".note.GNU-stack","",%progbits
	.eabi_attribute	30, 2	@ Tag_ABI_optimization_goals