	.text
	.syntax unified
	.eabi_attribute	67, "2.09"	@ Tag_conformance
	.cpu	cortex-a8
	.eabi_attribute	6, 10	@ Tag_CPU_arch
	.eabi_attribute	7, 65	@ Tag_CPU_arch_profile
	.eabi_attribute	8, 1	@ Tag_ARM_ISA_use
	.eabi_attribute	9, 2	@ Tag_THUMB_ISA_use
	.fpu	neon
	.eabi_attribute	17, 1	@ Tag_ABI_PCS_GOT_use
	.eabi_attribute	20, 2	@ Tag_ABI_FP_denormal
	.eabi_attribute	23, 1	@ Tag_ABI_FP_number_model
	.eabi_attribute	34, 1	@ Tag_CPU_unaligned_access
	.eabi_attribute	24, 1	@ Tag_ABI_align_needed
	.eabi_attribute	25, 1	@ Tag_ABI_align_preserved
	.eabi_attribute	28, 1	@ Tag_ABI_VFP_args
	.eabi_attribute	38, 1	@ Tag_ABI_FP_16bit_format
	.eabi_attribute	18, 4	@ Tag_ABI_PCS_wchar_t
	.eabi_attribute	26, 2	@ Tag_ABI_enum_size
	.eabi_attribute	14, 0	@ Tag_ABI_PCS_R9_use
	.eabi_attribute	68, 1	@ Tag_Virtualization_use
	.file	"/root/Bela/projects/Thesis/build/BME280.bc"
	.file	1 "./include" "I2c.h"
	.file	2 "/usr/include/arm-linux-gnueabihf/bits" "types.h"
	.file	3 "/usr/include" "stdio.h"
	.file	4 "/usr/lib/llvm-3.9/bin/../lib/clang/3.9.1/include" "stddef.h"
	.file	5 "/usr/include" "stdint.h"
	.file	6 "/root/Bela/projects/Thesis" "BME280.h"
	.file	7 "/usr/include/arm-linux-gnueabihf/sys" "types.h"
	.file	8 "/usr/bin/../lib/gcc/arm-linux-gnueabihf/6.3.0/../../../../include/arm-linux-gnueabihf/c++/6.3.0/bits" "c++config.h"
	.file	9 "/usr/include/arm-linux-gnueabihf/bits" "math-finite.h"
	.file	10 "/usr/include/arm-linux-gnueabihf/bits" "mathcalls.h"
	.file	11 "/usr/include/arm-linux-gnueabihf/bits" "mathdef.h"
	.file	12 "/usr/include" "unistd.h"
	.file	13 "/usr/include" "time.h"
	.globl	_ZN6BME280C2ERKNS_8SettingsE
	.p2align	2
	.type	_ZN6BME280C2ERKNS_8SettingsE,%function
_ZN6BME280C2ERKNS_8SettingsE:           @ @_ZN6BME280C2ERKNS_8SettingsE
.Lfunc_begin0:
	.file	14 "/root/Bela/projects/Thesis" "BME280.cpp"
	.loc	14 41 0                 @ /root/Bela/projects/Thesis/BME280.cpp:41:0
	.fnstart
	.cfi_startproc
@ BB#0:
	@DEBUG_VALUE: BME280:this <- %R0
	@DEBUG_VALUE: BME280:settings <- %R1
	.loc	14 41 1 prologue_end    @ /root/Bela/projects/Thesis/BME280.cpp:41:1
	movw	r2, :lower16:_ZTV6BME280
	movt	r2, :upper16:_ZTV6BME280
	add	r2, r2, #8
	str	r2, [r0]
	.loc	14 39 3                 @ /root/Bela/projects/Thesis/BME280.cpp:39:3
	vld1.32	{d16, d17}, [r1]
	add	r1, r1, #12
.Ltmp0:
	vld1.32	{d18, d19}, [r1]
	add	r1, r0, #28
	vst1.32	{d18, d19}, [r1]
	add	r1, r0, #16
	vst1.32	{d16, d17}, [r1]
	.loc	14 40 3                 @ /root/Bela/projects/Thesis/BME280.cpp:40:3
	mov	r1, #0
	strb	r1, [r0, #80]
	.loc	14 42 1                 @ /root/Bela/projects/Thesis/BME280.cpp:42:1
	bx	lr
.Ltmp1:
.Lfunc_end0:
	.size	_ZN6BME280C2ERKNS_8SettingsE, .Lfunc_end0-_ZN6BME280C2ERKNS_8SettingsE
	.cfi_endproc
	.fnend

	.globl	_ZN6BME28010InitializeEv
	.p2align	2
	.type	_ZN6BME28010InitializeEv,%function
_ZN6BME28010InitializeEv:               @ @_ZN6BME28010InitializeEv
.Lfunc_begin1:
	.loc	14 47 0                 @ /root/Bela/projects/Thesis/BME280.cpp:47:0
	.fnstart
	.cfi_startproc
@ BB#0:
	.save	{r4, r5, r6, r7, r8, r9, r10, r11, lr}
	push	{r4, r5, r6, r7, r8, r9, r10, r11, lr}
.Ltmp2:
	.cfi_def_cfa_offset 36
.Ltmp3:
	.cfi_offset lr, -4
.Ltmp4:
	.cfi_offset r11, -8
.Ltmp5:
	.cfi_offset r10, -12
.Ltmp6:
	.cfi_offset r9, -16
.Ltmp7:
	.cfi_offset r8, -20
.Ltmp8:
	.cfi_offset r7, -24
.Ltmp9:
	.cfi_offset r6, -28
.Ltmp10:
	.cfi_offset r5, -32
.Ltmp11:
	.cfi_offset r4, -36
	.setfp	r11, sp, #28
	add	r11, sp, #28
.Ltmp12:
	.cfi_def_cfa r11, 8
	.pad	#28
	sub	sp, sp, #28
	@DEBUG_VALUE: Initialize:this <- %R0
	mov	r4, r0
.Ltmp13:
	@DEBUG_VALUE: ReadChipID:this <- %R4
	@DEBUG_VALUE: Initialize:success <- 1
	@DEBUG_VALUE: Initialize:this <- %R4
	add	r2, sp, #23
.Ltmp14:
	.loc	14 92 5 prologue_end    @ /root/Bela/projects/Thesis/BME280.cpp:92:5
	ldr	r0, [r4]
	mov	r1, #208
	mov	r3, #1
	ldr	r7, [r0, #24]
	mov	r0, r4
	blx	r7
	.loc	14 95 11                @ /root/Bela/projects/Thesis/BME280.cpp:95:11
	ldrb	r0, [sp, #23]
	.loc	14 95 4 is_stmt 0       @ /root/Bela/projects/Thesis/BME280.cpp:95:4
	cmp	r0, #88
	beq	.LBB1_3
.Ltmp15:
@ BB#1:
	@DEBUG_VALUE: Initialize:this <- %R4
	@DEBUG_VALUE: ReadChipID:this <- %R4
	cmp	r0, #96
	bne	.LBB1_7
.Ltmp16:
@ BB#2:
	@DEBUG_VALUE: Initialize:this <- %R4
	@DEBUG_VALUE: ReadChipID:this <- %R4
	.loc	14 98 23 is_stmt 1      @ /root/Bela/projects/Thesis/BME280.cpp:98:23
	mov	r0, #96
	b	.LBB1_4
.Ltmp17:
.LBB1_3:
	@DEBUG_VALUE: Initialize:this <- %R4
	@DEBUG_VALUE: ReadChipID:this <- %R4
	.loc	14 101 23               @ /root/Bela/projects/Thesis/BME280.cpp:101:23
	mov	r0, #88
.Ltmp18:
.LBB1_4:
	@DEBUG_VALUE: Initialize:this <- %R4
	@DEBUG_VALUE: ReadChipID:this <- %R4
	str	r0, [r4, #76]
.Ltmp19:
	@DEBUG_VALUE: ReadTrim:ord <- 0
	@DEBUG_VALUE: ReadTrim:success <- 1
	@DEBUG_VALUE: ReadTrim:this <- %R4
	.loc	14 178 44               @ /root/Bela/projects/Thesis/BME280.cpp:178:44
	add	r2, r4, #44
	.loc	14 178 15 is_stmt 0     @ /root/Bela/projects/Thesis/BME280.cpp:178:15
	ldr	r0, [r4]
	mov	r1, #136
	mov	r3, #6
	ldr	r7, [r0, #24]
	mov	r0, r4
	blx	r7
	mov	r5, r0
.Ltmp20:
	@DEBUG_VALUE: ReadTrim:ord <- 6
	.loc	14 183 15 is_stmt 1     @ /root/Bela/projects/Thesis/BME280.cpp:183:15
	ldr	r0, [r4]
	.loc	14 183 45 is_stmt 0     @ /root/Bela/projects/Thesis/BME280.cpp:183:45
	add	r2, r4, #50
	.loc	14 183 15               @ /root/Bela/projects/Thesis/BME280.cpp:183:15
	mov	r1, #142
	mov	r3, #18
	ldr	r7, [r0, #24]
	mov	r0, r4
	blx	r7
	mov	r6, r0
.Ltmp21:
	@DEBUG_VALUE: ReadTrim:ord <- 24
	.loc	14 188 15 is_stmt 1     @ /root/Bela/projects/Thesis/BME280.cpp:188:15
	ldr	r0, [r4]
	.loc	14 188 44 is_stmt 0     @ /root/Bela/projects/Thesis/BME280.cpp:188:44
	add	r2, r4, #68
	.loc	14 188 15               @ /root/Bela/projects/Thesis/BME280.cpp:188:15
	mov	r1, #161
	mov	r3, #1
	ldr	r7, [r0, #24]
	mov	r0, r4
	blx	r7
.Ltmp22:
	@DEBUG_VALUE: ReadTrim:ord <- 25
	.loc	14 193 15 is_stmt 1     @ /root/Bela/projects/Thesis/BME280.cpp:193:15
	ldr	r1, [r4]
	.loc	14 193 44 is_stmt 0     @ /root/Bela/projects/Thesis/BME280.cpp:193:44
	add	r2, r4, #69
	.loc	14 193 15               @ /root/Bela/projects/Thesis/BME280.cpp:193:15
	mov	r3, #7
	ldr	r7, [r1, #24]
	.loc	14 178 15 is_stmt 1     @ /root/Bela/projects/Thesis/BME280.cpp:178:15
	and	r1, r5, r6
	.loc	14 183 12               @ /root/Bela/projects/Thesis/BME280.cpp:183:12
	and	r8, r1, r0
	.loc	14 193 15               @ /root/Bela/projects/Thesis/BME280.cpp:193:15
	mov	r0, r4
	mov	r1, #225
	blx	r7
.Ltmp23:
	@DEBUG_VALUE: ReadTrim:ord <- 32
	.loc	14 56 21                @ /root/Bela/projects/Thesis/BME280.cpp:56:21
	ldr	r7, [r4, #36]
.Ltmp24:
	@DEBUG_VALUE: InitializeFilter:filter <- %R7
	@DEBUG_VALUE: InitializeFilter:this <- %R4
	mov	r1, #0
.Ltmp25:
	.loc	14 56 10 is_stmt 0      @ /root/Bela/projects/Thesis/BME280.cpp:56:10
	cmp	r7, #0
	beq	.LBB1_6
.Ltmp26:
@ BB#5:
	@DEBUG_VALUE: InitializeFilter:this <- %R4
	@DEBUG_VALUE: InitializeFilter:filter <- %R7
	@DEBUG_VALUE: ReadTrim:this <- %R4
	@DEBUG_VALUE: Initialize:this <- %R4
	@DEBUG_VALUE: ReadChipID:this <- %R4
	.loc	14 76 21 is_stmt 1      @ /root/Bela/projects/Thesis/BME280.cpp:76:21
	str	r1, [r4, #36]
.Ltmp27:
	.loc	14 165 73               @ /root/Bela/projects/Thesis/BME280.cpp:165:73
	add	r10, r4, #24
	str	r0, [sp, #12]           @ 4-byte Spill
.Ltmp28:
	.loc	14 119 4                @ /root/Bela/projects/Thesis/BME280.cpp:119:4
	ldr	r0, [r4]
.Ltmp29:
	@DEBUG_VALUE: CalculateRegisters:this <- %R4
	.loc	14 167 110              @ /root/Bela/projects/Thesis/BME280.cpp:167:110
	ldr	r1, [r4, #40]
	.loc	14 165 36               @ /root/Bela/projects/Thesis/BME280.cpp:165:36
	ldr	r6, [r4, #16]
	.loc	14 165 109 is_stmt 0    @ /root/Bela/projects/Thesis/BME280.cpp:165:109
	str	r1, [sp, #16]           @ 4-byte Spill
.Ltmp30:
	.loc	14 119 4 is_stmt 1      @ /root/Bela/projects/Thesis/BME280.cpp:119:4
	mov	r1, #242
.Ltmp31:
	.loc	14 165 73               @ /root/Bela/projects/Thesis/BME280.cpp:165:73
	ldm	r10, {r5, r9, r10}
.Ltmp32:
	.loc	14 119 4                @ /root/Bela/projects/Thesis/BME280.cpp:119:4
	ldr	r3, [r0, #20]
	mov	r0, r4
	ldrb	r2, [r4, #20]
	blx	r3
	.loc	14 120 4                @ /root/Bela/projects/Thesis/BME280.cpp:120:4
	ldr	r0, [r4]
.Ltmp33:
	.loc	14 165 81               @ /root/Bela/projects/Thesis/BME280.cpp:165:81
	lsl	r1, r5, #2
	.loc	14 165 50 is_stmt 0     @ /root/Bela/projects/Thesis/BME280.cpp:165:50
	orr	r1, r1, r6, lsl #5
.Ltmp34:
	.loc	14 120 4 is_stmt 1      @ /root/Bela/projects/Thesis/BME280.cpp:120:4
	ldr	r3, [r0, #20]
.Ltmp35:
	.loc	14 165 87               @ /root/Bela/projects/Thesis/BME280.cpp:165:87
	orr	r0, r1, r9
.Ltmp36:
	.loc	14 120 4                @ /root/Bela/projects/Thesis/BME280.cpp:120:4
	mov	r1, #244
	uxtb	r2, r0
	mov	r0, r4
	blx	r3
	.loc	14 121 4                @ /root/Bela/projects/Thesis/BME280.cpp:121:4
	ldr	r0, [r4]
	mov	r1, #245
	ldr	r3, [r0, #20]
.Ltmp37:
	.loc	14 167 88               @ /root/Bela/projects/Thesis/BME280.cpp:167:88
	ldr	r0, [sp, #16]           @ 4-byte Reload
	orr	r0, r0, r10, lsl #5
.Ltmp38:
	.loc	14 121 4                @ /root/Bela/projects/Thesis/BME280.cpp:121:4
	uxtb	r2, r0
	mov	r0, r4
	blx	r3
	add	r1, sp, #24
.Ltmp39:
	@DEBUG_VALUE: InitializeFilter:dummy <- [%R1+0]
	mov	r0, #0
.Ltmp40:
	.loc	14 81 3                 @ /root/Bela/projects/Thesis/BME280.cpp:81:3
	str	r0, [sp]
	mov	r0, #1
	str	r0, [sp, #4]
	mov	r0, r4
	mov	r2, r1
	mov	r3, r1
	bl	_ZN6BME2804readERfS0_S0_NS_8TempUnitENS_8PresUnitE
.Ltmp41:
	ldr	r0, [sp, #12]           @ 4-byte Reload
.Ltmp42:
	.loc	14 59 7                 @ /root/Bela/projects/Thesis/BME280.cpp:59:7
	lsl	r1, r7, #2
.Ltmp43:
	.loc	14 83 21                @ /root/Bela/projects/Thesis/BME280.cpp:83:21
	str	r7, [r4, #36]
.Ltmp44:
.LBB1_6:
	@DEBUG_VALUE: InitializeFilter:this <- %R4
	@DEBUG_VALUE: InitializeFilter:filter <- %R7
	@DEBUG_VALUE: ReadTrim:this <- %R4
	@DEBUG_VALUE: Initialize:this <- %R4
	@DEBUG_VALUE: ReadChipID:this <- %R4
	str	r1, [sp, #16]           @ 4-byte Spill
.Ltmp45:
	.loc	14 188 12               @ /root/Bela/projects/Thesis/BME280.cpp:188:12
	and	r5, r8, r0
.Ltmp46:
	@DEBUG_VALUE: CalculateRegisters:this <- %R4
	.loc	14 119 4                @ /root/Bela/projects/Thesis/BME280.cpp:119:4
	ldr	r0, [r4]
	mov	r1, #242
	ldrb	r2, [r4, #20]
.Ltmp47:
	.loc	14 165 36               @ /root/Bela/projects/Thesis/BME280.cpp:165:36
	ldr	r6, [r4, #16]
.Ltmp48:
	.loc	14 119 4                @ /root/Bela/projects/Thesis/BME280.cpp:119:4
	ldr	r3, [r0, #20]
	mov	r0, r4
.Ltmp49:
	.loc	14 167 110              @ /root/Bela/projects/Thesis/BME280.cpp:167:110
	ldr	r9, [r4, #40]
	.loc	14 165 109              @ /root/Bela/projects/Thesis/BME280.cpp:165:109
	ldr	r7, [r4, #28]
.Ltmp50:
	.loc	14 167 34               @ /root/Bela/projects/Thesis/BME280.cpp:167:34
	ldr	r10, [r4, #32]
	.loc	14 165 73               @ /root/Bela/projects/Thesis/BME280.cpp:165:73
	ldr	r8, [r4, #24]
.Ltmp51:
	.loc	14 119 4                @ /root/Bela/projects/Thesis/BME280.cpp:119:4
	blx	r3
	.loc	14 120 4                @ /root/Bela/projects/Thesis/BME280.cpp:120:4
	ldr	r0, [r4]
.Ltmp52:
	.loc	14 165 81               @ /root/Bela/projects/Thesis/BME280.cpp:165:81
	lsl	r1, r8, #2
	.loc	14 165 50 is_stmt 0     @ /root/Bela/projects/Thesis/BME280.cpp:165:50
	orr	r1, r1, r6, lsl #5
.Ltmp53:
	.loc	14 120 4 is_stmt 1      @ /root/Bela/projects/Thesis/BME280.cpp:120:4
	ldr	r3, [r0, #20]
.Ltmp54:
	.loc	14 165 87               @ /root/Bela/projects/Thesis/BME280.cpp:165:87
	orr	r0, r1, r7
.Ltmp55:
	.loc	14 120 4                @ /root/Bela/projects/Thesis/BME280.cpp:120:4
	mov	r1, #244
	uxtb	r2, r0
	mov	r0, r4
	blx	r3
.Ltmp56:
	.loc	14 167 52               @ /root/Bela/projects/Thesis/BME280.cpp:167:52
	ldr	r1, [sp, #16]           @ 4-byte Reload
.Ltmp57:
	.loc	14 121 4                @ /root/Bela/projects/Thesis/BME280.cpp:121:4
	ldr	r0, [r4]
.Ltmp58:
	.loc	14 167 52               @ /root/Bela/projects/Thesis/BME280.cpp:167:52
	orr	r1, r1, r10, lsl #5
.Ltmp59:
	.loc	14 121 4                @ /root/Bela/projects/Thesis/BME280.cpp:121:4
	ldr	r3, [r0, #20]
.Ltmp60:
	.loc	14 167 88               @ /root/Bela/projects/Thesis/BME280.cpp:167:88
	orr	r0, r1, r9
.Ltmp61:
	.loc	14 121 4                @ /root/Bela/projects/Thesis/BME280.cpp:121:4
	mov	r1, #245
	uxtb	r2, r0
	mov	r0, r4
	blx	r3
	b	.LBB1_8
.Ltmp62:
.LBB1_7:                                @ %_ZN6BME28010ReadChipIDEv.exit
	@DEBUG_VALUE: Initialize:this <- %R4
	@DEBUG_VALUE: ReadChipID:this <- %R4
	mov	r5, #0
.Ltmp63:
	.loc	14 104 23               @ /root/Bela/projects/Thesis/BME280.cpp:104:23
	str	r5, [r4, #76]
.Ltmp64:
.LBB1_8:
	@DEBUG_VALUE: Initialize:this <- %R4
	@DEBUG_VALUE: ReadChipID:this <- %R4
	.loc	14 64 18                @ /root/Bela/projects/Thesis/BME280.cpp:64:18
	strb	r5, [r4, #80]
	.loc	14 66 4                 @ /root/Bela/projects/Thesis/BME280.cpp:66:4
	mov	r0, r5
	sub	sp, r11, #28
	pop	{r4, r5, r6, r7, r8, r9, r10, r11, pc}
.Ltmp65:
.Lfunc_end1:
	.size	_ZN6BME28010InitializeEv, .Lfunc_end1-_ZN6BME28010InitializeEv
	.cfi_endproc
	.fnend

	.globl	_ZN6BME28010ReadChipIDEv
	.p2align	2
	.type	_ZN6BME28010ReadChipIDEv,%function
_ZN6BME28010ReadChipIDEv:               @ @_ZN6BME28010ReadChipIDEv
.Lfunc_begin2:
	.loc	14 89 0                 @ /root/Bela/projects/Thesis/BME280.cpp:89:0
	.fnstart
	.cfi_startproc
@ BB#0:
	.save	{r4, r5, r11, lr}
	push	{r4, r5, r11, lr}
.Ltmp66:
	.cfi_def_cfa_offset 16
.Ltmp67:
	.cfi_offset lr, -4
.Ltmp68:
	.cfi_offset r11, -8
.Ltmp69:
	.cfi_offset r5, -12
.Ltmp70:
	.cfi_offset r4, -16
	.setfp	r11, sp, #8
	add	r11, sp, #8
.Ltmp71:
	.cfi_def_cfa r11, 8
	.pad	#8
	sub	sp, sp, #8
	@DEBUG_VALUE: ReadChipID:this <- %R0
	mov	r4, r0
.Ltmp72:
	@DEBUG_VALUE: ReadChipID:this <- %R4
	add	r2, sp, #7
.Ltmp73:
	@DEBUG_VALUE: ReadChipID:id <- [%R2+0]
	.loc	14 92 5 prologue_end    @ /root/Bela/projects/Thesis/BME280.cpp:92:5
	ldr	r0, [r4]
	mov	r1, #208
	mov	r3, #1
	mov	r5, #1
	ldr	r12, [r0, #24]
	mov	r0, r4
	blx	r12
.Ltmp74:
	.loc	14 95 11                @ /root/Bela/projects/Thesis/BME280.cpp:95:11
	ldrb	r0, [sp, #7]
	.loc	14 95 4 is_stmt 0       @ /root/Bela/projects/Thesis/BME280.cpp:95:4
	cmp	r0, #88
	beq	.LBB2_3
.Ltmp75:
@ BB#1:
	@DEBUG_VALUE: ReadChipID:this <- %R4
	cmp	r0, #96
	bne	.LBB2_4
.Ltmp76:
@ BB#2:
	@DEBUG_VALUE: ReadChipID:this <- %R4
	.loc	14 98 23 is_stmt 1      @ /root/Bela/projects/Thesis/BME280.cpp:98:23
	mov	r0, #96
	mov	r5, #1
	str	r0, [r4, #76]
	b	.LBB2_5
.Ltmp77:
.LBB2_3:
	@DEBUG_VALUE: ReadChipID:this <- %R4
	.loc	14 101 23               @ /root/Bela/projects/Thesis/BME280.cpp:101:23
	mov	r0, #88
	str	r0, [r4, #76]
	b	.LBB2_5
.Ltmp78:
.LBB2_4:
	@DEBUG_VALUE: ReadChipID:this <- %R4
	mov	r5, #0
	.loc	14 104 23               @ /root/Bela/projects/Thesis/BME280.cpp:104:23
	str	r5, [r4, #76]
.Ltmp79:
.LBB2_5:
	@DEBUG_VALUE: ReadChipID:this <- %R4
	.loc	14 109 1                @ /root/Bela/projects/Thesis/BME280.cpp:109:1
	mov	r0, r5
	sub	sp, r11, #8
	pop	{r4, r5, r11, pc}
.Ltmp80:
.Lfunc_end2:
	.size	_ZN6BME28010ReadChipIDEv, .Lfunc_end2-_ZN6BME28010ReadChipIDEv
	.cfi_endproc
	.fnend

	.globl	_ZN6BME2808ReadTrimEv
	.p2align	2
	.type	_ZN6BME2808ReadTrimEv,%function
_ZN6BME2808ReadTrimEv:                  @ @_ZN6BME2808ReadTrimEv
.Lfunc_begin3:
	.loc	14 173 0                @ /root/Bela/projects/Thesis/BME280.cpp:173:0
	.fnstart
	.cfi_startproc
@ BB#0:
	.save	{r4, r5, r6, r7, r11, lr}
	push	{r4, r5, r6, r7, r11, lr}
.Ltmp81:
	.cfi_def_cfa_offset 24
.Ltmp82:
	.cfi_offset lr, -4
.Ltmp83:
	.cfi_offset r11, -8
.Ltmp84:
	.cfi_offset r7, -12
.Ltmp85:
	.cfi_offset r6, -16
.Ltmp86:
	.cfi_offset r5, -20
.Ltmp87:
	.cfi_offset r4, -24
	.setfp	r11, sp, #16
	add	r11, sp, #16
.Ltmp88:
	.cfi_def_cfa r11, 8
	@DEBUG_VALUE: ReadTrim:this <- %R0
	mov	r4, r0
.Ltmp89:
	@DEBUG_VALUE: ReadTrim:success <- 1
	@DEBUG_VALUE: ReadTrim:ord <- 0
	@DEBUG_VALUE: ReadTrim:this <- %R4
	.loc	14 178 15 prologue_end  @ /root/Bela/projects/Thesis/BME280.cpp:178:15
	mov	r1, #136
	mov	r2, r4
	mov	r3, #6
	ldr	r0, [r2], #44
	ldr	r6, [r0, #24]
	mov	r0, r4
	blx	r6
	.loc	14 183 15               @ /root/Bela/projects/Thesis/BME280.cpp:183:15
	mov	r2, r4
	.loc	14 178 15               @ /root/Bela/projects/Thesis/BME280.cpp:178:15
	mov	r7, r0
.Ltmp90:
	@DEBUG_VALUE: ReadTrim:ord <- 6
	.loc	14 183 15               @ /root/Bela/projects/Thesis/BME280.cpp:183:15
	ldr	r0, [r2], #50
	mov	r1, #142
	mov	r3, #18
	ldr	r6, [r0, #24]
	mov	r0, r4
	blx	r6
	.loc	14 188 15               @ /root/Bela/projects/Thesis/BME280.cpp:188:15
	mov	r2, r4
	.loc	14 183 15               @ /root/Bela/projects/Thesis/BME280.cpp:183:15
	mov	r6, r0
.Ltmp91:
	@DEBUG_VALUE: ReadTrim:ord <- 24
	.loc	14 188 15               @ /root/Bela/projects/Thesis/BME280.cpp:188:15
	ldr	r0, [r2], #68
	mov	r1, #161
	mov	r3, #1
	ldr	r5, [r0, #24]
	mov	r0, r4
	blx	r5
.Ltmp92:
	@DEBUG_VALUE: ReadTrim:ord <- 25
	.loc	14 193 15               @ /root/Bela/projects/Thesis/BME280.cpp:193:15
	mov	r2, r4
	.loc	14 178 15               @ /root/Bela/projects/Thesis/BME280.cpp:178:15
	and	r3, r7, r6
	.loc	14 193 15               @ /root/Bela/projects/Thesis/BME280.cpp:193:15
	ldr	r1, [r2], #69
	.loc	14 183 12               @ /root/Bela/projects/Thesis/BME280.cpp:183:12
	and	r5, r3, r0
	.loc	14 193 15               @ /root/Bela/projects/Thesis/BME280.cpp:193:15
	mov	r0, r4
	mov	r3, #7
	ldr	r7, [r1, #24]
	mov	r1, #225
	blx	r7
	.loc	14 188 12               @ /root/Bela/projects/Thesis/BME280.cpp:188:12
	and	r0, r5, r0
.Ltmp93:
	@DEBUG_VALUE: ReadTrim:ord <- 32
	.loc	14 207 4 discriminator 2 @ /root/Bela/projects/Thesis/BME280.cpp:207:4
	pop	{r4, r5, r6, r7, r11, pc}
.Ltmp94:
.Lfunc_end3:
	.size	_ZN6BME2808ReadTrimEv, .Lfunc_end3-_ZN6BME2808ReadTrimEv
	.cfi_endproc
	.fnend

	.globl	_ZN6BME28016InitializeFilterEv
	.p2align	2
	.type	_ZN6BME28016InitializeFilterEv,%function
_ZN6BME28016InitializeFilterEv:         @ @_ZN6BME28016InitializeFilterEv
.Lfunc_begin4:
	.loc	14 72 0                 @ /root/Bela/projects/Thesis/BME280.cpp:72:0
	.fnstart
	.cfi_startproc
@ BB#0:
	.save	{r4, r5, r6, r7, r8, r9, r10, r11, lr}
	push	{r4, r5, r6, r7, r8, r9, r10, r11, lr}
.Ltmp95:
	.cfi_def_cfa_offset 36
.Ltmp96:
	.cfi_offset lr, -4
.Ltmp97:
	.cfi_offset r11, -8
.Ltmp98:
	.cfi_offset r10, -12
.Ltmp99:
	.cfi_offset r9, -16
.Ltmp100:
	.cfi_offset r8, -20
.Ltmp101:
	.cfi_offset r7, -24
.Ltmp102:
	.cfi_offset r6, -28
.Ltmp103:
	.cfi_offset r5, -32
.Ltmp104:
	.cfi_offset r4, -36
	.setfp	r11, sp, #28
	add	r11, sp, #28
.Ltmp105:
	.cfi_def_cfa r11, 8
	.pad	#12
	sub	sp, sp, #12
	@DEBUG_VALUE: InitializeFilter:this <- %R0
	mov	r4, r0
.Ltmp106:
	@DEBUG_VALUE: InitializeFilter:this <- %R4
	mov	r0, #0
.Ltmp107:
	.loc	14 75 30 prologue_end   @ /root/Bela/projects/Thesis/BME280.cpp:75:30
	ldr	r9, [r4, #36]
.Ltmp108:
	@DEBUG_VALUE: InitializeFilter:filter <- %R9
	.loc	14 119 4                @ /root/Bela/projects/Thesis/BME280.cpp:119:4
	mov	r1, #242
.Ltmp109:
	.loc	14 76 21                @ /root/Bela/projects/Thesis/BME280.cpp:76:21
	str	r0, [r4, #36]
.Ltmp110:
	.loc	14 119 4                @ /root/Bela/projects/Thesis/BME280.cpp:119:4
	ldr	r0, [r4]
.Ltmp111:
	@DEBUG_VALUE: CalculateRegisters:this <- %R4
	@DEBUG_VALUE: WriteSettings:this <- %R4
	ldrb	r2, [r4, #20]
.Ltmp112:
	.loc	14 165 36               @ /root/Bela/projects/Thesis/BME280.cpp:165:36
	ldr	r7, [r4, #16]
.Ltmp113:
	.loc	14 119 4                @ /root/Bela/projects/Thesis/BME280.cpp:119:4
	ldr	r3, [r0, #20]
	mov	r0, r4
.Ltmp114:
	.loc	14 167 110              @ /root/Bela/projects/Thesis/BME280.cpp:167:110
	ldr	r10, [r4, #40]
	.loc	14 167 34 is_stmt 0     @ /root/Bela/projects/Thesis/BME280.cpp:167:34
	ldr	r5, [r4, #32]
	.loc	14 165 109 is_stmt 1    @ /root/Bela/projects/Thesis/BME280.cpp:165:109
	ldr	r6, [r4, #28]
	.loc	14 165 73 is_stmt 0     @ /root/Bela/projects/Thesis/BME280.cpp:165:73
	ldr	r8, [r4, #24]
.Ltmp115:
	.loc	14 119 4 is_stmt 1      @ /root/Bela/projects/Thesis/BME280.cpp:119:4
	blx	r3
	.loc	14 120 4                @ /root/Bela/projects/Thesis/BME280.cpp:120:4
	ldr	r1, [r4]
.Ltmp116:
	.loc	14 165 81               @ /root/Bela/projects/Thesis/BME280.cpp:165:81
	lsl	r0, r8, #2
	.loc	14 165 50 is_stmt 0     @ /root/Bela/projects/Thesis/BME280.cpp:165:50
	orr	r0, r0, r7, lsl #5
	.loc	14 165 87               @ /root/Bela/projects/Thesis/BME280.cpp:165:87
	orr	r0, r0, r6
.Ltmp117:
	.loc	14 120 4 is_stmt 1      @ /root/Bela/projects/Thesis/BME280.cpp:120:4
	ldr	r3, [r1, #20]
	mov	r1, #244
	uxtb	r2, r0
	mov	r0, r4
	blx	r3
	.loc	14 121 4                @ /root/Bela/projects/Thesis/BME280.cpp:121:4
	ldr	r0, [r4]
	mov	r1, #245
	ldr	r3, [r0, #20]
.Ltmp118:
	.loc	14 167 88               @ /root/Bela/projects/Thesis/BME280.cpp:167:88
	orr	r0, r10, r5, lsl #5
.Ltmp119:
	.loc	14 121 4                @ /root/Bela/projects/Thesis/BME280.cpp:121:4
	uxtb	r2, r0
	mov	r0, r4
	blx	r3
	mov	r1, #0
.Ltmp120:
	.loc	14 81 3                 @ /root/Bela/projects/Thesis/BME280.cpp:81:3
	mov	r0, #1
	str	r1, [sp]
	add	r1, sp, #8
.Ltmp121:
	@DEBUG_VALUE: InitializeFilter:dummy <- [%R1+0]
	str	r0, [sp, #4]
	mov	r0, r4
	mov	r2, r1
	mov	r3, r1
	bl	_ZN6BME2804readERfS0_S0_NS_8TempUnitENS_8PresUnitE
.Ltmp122:
	.loc	14 83 21                @ /root/Bela/projects/Thesis/BME280.cpp:83:21
	str	r9, [r4, #36]
	.loc	14 84 1                 @ /root/Bela/projects/Thesis/BME280.cpp:84:1
	sub	sp, r11, #28
	pop	{r4, r5, r6, r7, r8, r9, r10, r11, pc}
.Ltmp123:
.Lfunc_end4:
	.size	_ZN6BME28016InitializeFilterEv, .Lfunc_end4-_ZN6BME28016InitializeFilterEv
	.cfi_endproc
	.fnend

	.globl	_ZN6BME28013WriteSettingsEv
	.p2align	2
	.type	_ZN6BME28013WriteSettingsEv,%function
_ZN6BME28013WriteSettingsEv:            @ @_ZN6BME28013WriteSettingsEv
.Lfunc_begin5:
	.loc	14 114 0                @ /root/Bela/projects/Thesis/BME280.cpp:114:0
	.fnstart
	.cfi_startproc
@ BB#0:
	.save	{r4, r5, r6, r7, r8, r9, r10, r11, lr}
	push	{r4, r5, r6, r7, r8, r9, r10, r11, lr}
.Ltmp124:
	.cfi_def_cfa_offset 36
.Ltmp125:
	.cfi_offset lr, -4
.Ltmp126:
	.cfi_offset r11, -8
.Ltmp127:
	.cfi_offset r10, -12
.Ltmp128:
	.cfi_offset r9, -16
.Ltmp129:
	.cfi_offset r8, -20
.Ltmp130:
	.cfi_offset r7, -24
.Ltmp131:
	.cfi_offset r6, -28
.Ltmp132:
	.cfi_offset r5, -32
.Ltmp133:
	.cfi_offset r4, -36
	.setfp	r11, sp, #28
	add	r11, sp, #28
.Ltmp134:
	.cfi_def_cfa r11, 8
	.pad	#4
	sub	sp, sp, #4
	@DEBUG_VALUE: WriteSettings:this <- %R0
	mov	r4, r0
.Ltmp135:
	@DEBUG_VALUE: CalculateRegisters:this <- %R4
	@DEBUG_VALUE: WriteSettings:this <- %R4
	.loc	14 165 73 prologue_end  @ /root/Bela/projects/Thesis/BME280.cpp:165:73
	add	r10, r4, #24
.Ltmp136:
	.loc	14 119 4                @ /root/Bela/projects/Thesis/BME280.cpp:119:4
	ldr	r0, [r4]
	mov	r1, #242
.Ltmp137:
	.loc	14 165 36               @ /root/Bela/projects/Thesis/BME280.cpp:165:36
	ldr	r5, [r4, #16]
	.loc	14 165 73 is_stmt 0     @ /root/Bela/projects/Thesis/BME280.cpp:165:73
	ldm	r10, {r6, r7, r8, r9, r10}
.Ltmp138:
	.loc	14 119 4 is_stmt 1      @ /root/Bela/projects/Thesis/BME280.cpp:119:4
	ldr	r3, [r0, #20]
	mov	r0, r4
	ldrb	r2, [r4, #20]
	blx	r3
	.loc	14 120 4                @ /root/Bela/projects/Thesis/BME280.cpp:120:4
	ldr	r0, [r4]
.Ltmp139:
	.loc	14 165 81               @ /root/Bela/projects/Thesis/BME280.cpp:165:81
	lsl	r1, r6, #2
	.loc	14 165 50 is_stmt 0     @ /root/Bela/projects/Thesis/BME280.cpp:165:50
	orr	r1, r1, r5, lsl #5
.Ltmp140:
	.loc	14 120 4 is_stmt 1      @ /root/Bela/projects/Thesis/BME280.cpp:120:4
	ldr	r3, [r0, #20]
.Ltmp141:
	.loc	14 165 87               @ /root/Bela/projects/Thesis/BME280.cpp:165:87
	orr	r0, r1, r7
.Ltmp142:
	.loc	14 120 4                @ /root/Bela/projects/Thesis/BME280.cpp:120:4
	mov	r1, #244
	uxtb	r2, r0
	mov	r0, r4
	blx	r3
.Ltmp143:
	.loc	14 167 82               @ /root/Bela/projects/Thesis/BME280.cpp:167:82
	lsl	r0, r9, #2
.Ltmp144:
	.loc	14 121 4                @ /root/Bela/projects/Thesis/BME280.cpp:121:4
	ldr	r1, [r4]
.Ltmp145:
	.loc	14 167 52               @ /root/Bela/projects/Thesis/BME280.cpp:167:52
	orr	r0, r0, r8, lsl #5
	.loc	14 167 88 is_stmt 0     @ /root/Bela/projects/Thesis/BME280.cpp:167:88
	orr	r0, r0, r10
.Ltmp146:
	.loc	14 121 4 is_stmt 1      @ /root/Bela/projects/Thesis/BME280.cpp:121:4
	ldr	r3, [r1, #20]
	mov	r1, #245
	uxtb	r2, r0
	mov	r0, r4
	sub	sp, r11, #28
	pop	{r4, r5, r6, r7, r8, r9, r10, r11, lr}
.Ltmp147:
	bx	r3
.Ltmp148:
.Lfunc_end5:
	.size	_ZN6BME28013WriteSettingsEv, .Lfunc_end5-_ZN6BME28013WriteSettingsEv
	.cfi_endproc
	.fnend

	.globl	_ZN6BME2804readERfS0_S0_NS_8TempUnitENS_8PresUnitE
	.p2align	3
	.type	_ZN6BME2804readERfS0_S0_NS_8TempUnitENS_8PresUnitE,%function
_ZN6BME2804readERfS0_S0_NS_8TempUnitENS_8PresUnitE: @ @_ZN6BME2804readERfS0_S0_NS_8TempUnitENS_8PresUnitE
.Lfunc_begin6:
	.loc	14 413 0                @ /root/Bela/projects/Thesis/BME280.cpp:413:0
	.fnstart
	.cfi_startproc
@ BB#0:
	.save	{r4, r5, r6, r7, r8, r9, r10, r11, lr}
	push	{r4, r5, r6, r7, r8, r9, r10, r11, lr}
.Ltmp149:
	.cfi_def_cfa_offset 36
.Ltmp150:
	.cfi_offset lr, -4
.Ltmp151:
	.cfi_offset r11, -8
.Ltmp152:
	.cfi_offset r10, -12
.Ltmp153:
	.cfi_offset r9, -16
.Ltmp154:
	.cfi_offset r8, -20
.Ltmp155:
	.cfi_offset r7, -24
.Ltmp156:
	.cfi_offset r6, -28
.Ltmp157:
	.cfi_offset r5, -32
.Ltmp158:
	.cfi_offset r4, -36
	.setfp	r11, sp, #28
	add	r11, sp, #28
.Ltmp159:
	.cfi_def_cfa r11, 8
	.pad	#36
	sub	sp, sp, #36
	@DEBUG_VALUE: read:this <- %R0
	@DEBUG_VALUE: read:pressure <- %R1
	@DEBUG_VALUE: read:temp <- %R2
	@DEBUG_VALUE: read:humidity <- %R3
	mov	r9, r1
.Ltmp160:
	@DEBUG_VALUE: read:pressure <- %R9
	add	r1, sp, #4
.Ltmp161:
	@DEBUG_VALUE: read:data <- [%R1+0]
	mov	r4, r3
.Ltmp162:
	@DEBUG_VALUE: read:humidity <- %R4
	mov	r7, r2
.Ltmp163:
	@DEBUG_VALUE: read:temp <- %R7
	mov	r6, r0
.Ltmp164:
	@DEBUG_VALUE: read:this <- %R6
	.loc	14 416 8 prologue_end   @ /root/Bela/projects/Thesis/BME280.cpp:416:8
	bl	_ZN6BME2808ReadDataEPi
.Ltmp165:
	.loc	14 416 7 is_stmt 0      @ /root/Bela/projects/Thesis/BME280.cpp:416:7
	cmp	r0, #0
	beq	.LBB6_2
.Ltmp166:
@ BB#1:
	@DEBUG_VALUE: read:this <- %R6
	@DEBUG_VALUE: read:temp <- %R7
	@DEBUG_VALUE: read:humidity <- %R4
	@DEBUG_VALUE: read:pressure <- %R9
	@DEBUG_VALUE: read:presUnit <- undef
	str	r4, [sp]                @ 4-byte Spill
	.loc	14 421 42 is_stmt 1     @ /root/Bela/projects/Thesis/BME280.cpp:421:42
	ldr	r4, [sp, #20]
.Ltmp167:
	.loc	14 421 24 is_stmt 0     @ /root/Bela/projects/Thesis/BME280.cpp:421:24
	ldr	r0, [sp, #16]
.Ltmp168:
	@DEBUG_VALUE: CalculateTemperature:this <- %R6
	.loc	14 421 59               @ /root/Bela/projects/Thesis/BME280.cpp:421:59
	ldr	r1, [sp, #24]
.Ltmp169:
	.loc	14 258 40 is_stmt 1     @ /root/Bela/projects/Thesis/BME280.cpp:258:40
	ldr	r2, [r6, #44]
.Ltmp170:
	.loc	14 421 50               @ /root/Bela/projects/Thesis/BME280.cpp:421:50
	lsl	r4, r4, #4
.Ltmp171:
	.loc	14 258 23               @ /root/Bela/projects/Thesis/BME280.cpp:258:23
	ldrb	r8, [r6, #45]
.Ltmp172:
	.loc	14 421 39               @ /root/Bela/projects/Thesis/BME280.cpp:421:39
	orr	r0, r4, r0, lsl #12
	.loc	14 421 56 is_stmt 0     @ /root/Bela/projects/Thesis/BME280.cpp:421:56
	orr	r0, r0, r1, asr #4
.Ltmp173:
	@DEBUG_VALUE: read:rawTemp <- %R0
	@DEBUG_VALUE: CalculateTemperature:raw <- %R0
	.loc	14 260 22 is_stmt 1     @ /root/Bela/projects/Thesis/BME280.cpp:260:22
	ldrb	r5, [r6, #49]
	.loc	14 258 40               @ /root/Bela/projects/Thesis/BME280.cpp:258:40
	uxtb	r1, r2
.Ltmp174:
	.loc	14 420 28               @ /root/Bela/projects/Thesis/BME280.cpp:420:28
	ldr	lr, [sp, #4]
.Ltmp175:
	.loc	14 258 38               @ /root/Bela/projects/Thesis/BME280.cpp:258:38
	orr	r1, r1, r8, lsl #8
.Ltmp176:
	.loc	14 420 46               @ /root/Bela/projects/Thesis/BME280.cpp:420:46
	ldr	r10, [sp, #8]
.Ltmp177:
	.loc	14 262 26               @ /root/Bela/projects/Thesis/BME280.cpp:262:26
	rsb	r4, r1, r0, asr #4
	.loc	14 261 19               @ /root/Bela/projects/Thesis/BME280.cpp:261:19
	asr	r0, r0, #3
.Ltmp178:
	.loc	14 261 25 is_stmt 0     @ /root/Bela/projects/Thesis/BME280.cpp:261:25
	sub	r0, r0, r1, lsl #1
	.loc	14 261 64               @ /root/Bela/projects/Thesis/BME280.cpp:261:64
	asr	r1, r2, #16
	.loc	14 262 47 is_stmt 1     @ /root/Bela/projects/Thesis/BME280.cpp:262:47
	mul	r4, r4, r4
	.loc	14 260 39               @ /root/Bela/projects/Thesis/BME280.cpp:260:39
	ldrb	r2, [r6, #48]
.Ltmp179:
	.loc	14 420 63               @ /root/Bela/projects/Thesis/BME280.cpp:420:63
	ldr	r3, [sp, #12]
.Ltmp180:
	.loc	14 260 37               @ /root/Bela/projects/Thesis/BME280.cpp:260:37
	orr	r2, r2, r5, lsl #8
	.loc	14 261 52               @ /root/Bela/projects/Thesis/BME280.cpp:261:52
	mul	r0, r0, r1
	.loc	14 265 67 discriminator 2 @ /root/Bela/projects/Thesis/BME280.cpp:265:67
	vldr	d17, .LCPI6_0
	.loc	14 262 102              @ /root/Bela/projects/Thesis/BME280.cpp:262:102
	sxth	r2, r2
	.loc	14 265 43 discriminator 1 @ /root/Bela/projects/Thesis/BME280.cpp:265:43
	vldr	d18, .LCPI6_1
	ldr	r12, [r11, #8]
	@DEBUG_VALUE: read:tempUnit <- %R12
	.loc	14 262 83               @ /root/Bela/projects/Thesis/BME280.cpp:262:83
	lsr	r1, r4, #12
	.loc	14 265 72 discriminator 2 @ /root/Bela/projects/Thesis/BME280.cpp:265:72
	vldr	d19, .LCPI6_2
	.loc	14 262 90               @ /root/Bela/projects/Thesis/BME280.cpp:262:90
	mul	r1, r2, r1
	.loc	14 265 11               @ /root/Bela/projects/Thesis/BME280.cpp:265:11
	cmp	r12, #0
	.loc	14 262 111              @ /root/Bela/projects/Thesis/BME280.cpp:262:111
	asr	r1, r1, #14
.Ltmp181:
	@DEBUG_VALUE: CalculateTemperature:var2 <- %R1
	.loc	14 263 18               @ /root/Bela/projects/Thesis/BME280.cpp:263:18
	add	r4, r1, r0, asr #11
.Ltmp182:
	@DEBUG_VALUE: read:t_fine <- %R4
	@DEBUG_VALUE: CalculateHumidity:t_fine <- %R4
	.loc	14 264 20               @ /root/Bela/projects/Thesis/BME280.cpp:264:20
	add	r0, r4, r4, lsl #2
.Ltmp183:
	.loc	14 424 15               @ /root/Bela/projects/Thesis/BME280.cpp:424:15
	mov	r2, r4
.Ltmp184:
	.loc	14 264 24               @ /root/Bela/projects/Thesis/BME280.cpp:264:24
	add	r0, r0, #128
	.loc	14 264 31 is_stmt 0     @ /root/Bela/projects/Thesis/BME280.cpp:264:31
	asr	r0, r0, #8
.Ltmp185:
	@DEBUG_VALUE: CalculateTemperature:final <- %R0
	.loc	14 265 38 is_stmt 1 discriminator 1 @ /root/Bela/projects/Thesis/BME280.cpp:265:38
	vmov	s0, r0
.Ltmp186:
	@DEBUG_VALUE: CalculateTemperature:final <- %S0
	.loc	14 420 54               @ /root/Bela/projects/Thesis/BME280.cpp:420:54
	lsl	r0, r10, #4
	.loc	14 420 43 is_stmt 0     @ /root/Bela/projects/Thesis/BME280.cpp:420:43
	orr	r0, r0, lr, lsl #12
.Ltmp187:
	.loc	14 265 38 is_stmt 1 discriminator 1 @ /root/Bela/projects/Thesis/BME280.cpp:265:38
	vcvt.f64.s32	d16, s0
.Ltmp188:
	.loc	14 420 60               @ /root/Bela/projects/Thesis/BME280.cpp:420:60
	orr	r1, r0, r3, asr #4
.Ltmp189:
	@DEBUG_VALUE: read:rawPressure <- %R1
	ldr	r3, [r11, #12]
	.loc	14 424 15               @ /root/Bela/projects/Thesis/BME280.cpp:424:15
	mov	r0, r6
	.loc	14 422 44               @ /root/Bela/projects/Thesis/BME280.cpp:422:44
	ldr	r8, [sp, #32]
	.loc	14 422 28 is_stmt 0     @ /root/Bela/projects/Thesis/BME280.cpp:422:28
	ldr	r5, [sp, #28]
.Ltmp190:
	.loc	14 265 67 is_stmt 1 discriminator 2 @ /root/Bela/projects/Thesis/BME280.cpp:265:67
	vmul.f64	d17, d16, d17
	.loc	14 265 43 is_stmt 0 discriminator 1 @ /root/Bela/projects/Thesis/BME280.cpp:265:43
	vmul.f64	d16, d16, d18
	.loc	14 265 72 discriminator 2 @ /root/Bela/projects/Thesis/BME280.cpp:265:72
	vadd.f64	d17, d17, d19
	.loc	14 265 11               @ /root/Bela/projects/Thesis/BME280.cpp:265:11
	vmoveq.f64	d17, d16
	.loc	14 265 11 discriminator 3 @ /root/Bela/projects/Thesis/BME280.cpp:265:11
	vcvt.f32.f64	s0, d17
.Ltmp191:
	.loc	14 423 9 is_stmt 1      @ /root/Bela/projects/Thesis/BME280.cpp:423:9
	vstr	s0, [r7]
	.loc	14 424 15               @ /root/Bela/projects/Thesis/BME280.cpp:424:15
	bl	_ZN6BME28017CalculatePressureEiiNS_8PresUnitE
.Ltmp192:
	.loc	14 424 13 is_stmt 0     @ /root/Bela/projects/Thesis/BME280.cpp:424:13
	vstr	s0, [r9]
.Ltmp193:
	.loc	14 285 19 is_stmt 1     @ /root/Bela/projects/Thesis/BME280.cpp:285:19
	sub	r2, r4, #76800
.Ltmp194:
	@DEBUG_VALUE: CalculateHumidity:var1 <- %R2
	.loc	14 278 21               @ /root/Bela/projects/Thesis/BME280.cpp:278:21
	ldr	r0, [r6, #68]
	.loc	14 281 22               @ /root/Bela/projects/Thesis/BME280.cpp:281:22
	ldr	r1, [r6, #72]
	.loc	14 288 30               @ /root/Bela/projects/Thesis/BME280.cpp:288:30
	mov	r6, #32768
.Ltmp195:
	.loc	14 293 35               @ /root/Bela/projects/Thesis/BME280.cpp:293:35
	vldr	d17, .LCPI6_3
	.loc	14 280 21               @ /root/Bela/projects/Thesis/BME280.cpp:280:21
	lsr	r3, r0, #24
	.loc	14 287 81               @ /root/Bela/projects/Thesis/BME280.cpp:287:81
	mul	r3, r2, r3
	.loc	14 287 55 is_stmt 0     @ /root/Bela/projects/Thesis/BME280.cpp:287:55
	asr	r7, r1, #24
.Ltmp196:
	.loc	14 287 43               @ /root/Bela/projects/Thesis/BME280.cpp:287:43
	mul	r7, r2, r7
	.loc	14 288 30 is_stmt 1     @ /root/Bela/projects/Thesis/BME280.cpp:288:30
	add	r3, r6, r3, asr #11
.Ltmp197:
	.loc	14 422 42               @ /root/Bela/projects/Thesis/BME280.cpp:422:42
	orr	r6, r8, r5, lsl #8
.Ltmp198:
	@DEBUG_VALUE: read:rawHumidity <- %R6
	@DEBUG_VALUE: CalculateHumidity:raw <- %R6
	.loc	14 286 27               @ /root/Bela/projects/Thesis/BME280.cpp:286:27
	mov	r5, #16384
	.loc	14 287 64               @ /root/Bela/projects/Thesis/BME280.cpp:287:64
	asr	r7, r7, #10
	.loc	14 286 27               @ /root/Bela/projects/Thesis/BME280.cpp:286:27
	add	r6, r5, r6, lsl #14
.Ltmp199:
	.loc	14 287 71               @ /root/Bela/projects/Thesis/BME280.cpp:287:71
	mul	r3, r3, r7
	.loc	14 288 58               @ /root/Bela/projects/Thesis/BME280.cpp:288:58
	mov	r7, #2097152
	add	r3, r7, r3, asr #10
	.loc	14 281 46               @ /root/Bela/projects/Thesis/BME280.cpp:281:46
	ubfx	r7, r1, #8, #4
	.loc	14 281 38 is_stmt 0     @ /root/Bela/projects/Thesis/BME280.cpp:281:38
	orr	r7, r7, r1, lsl #4
	.loc	14 286 55 is_stmt 1     @ /root/Bela/projects/Thesis/BME280.cpp:286:55
	sub	r7, r6, r7, lsl #20
	.loc	14 289 14               @ /root/Bela/projects/Thesis/BME280.cpp:289:14
	sbfx	r6, r0, #8, #16
	.loc	14 282 38               @ /root/Bela/projects/Thesis/BME280.cpp:282:38
	ubfx	r1, r1, #12, #12
	.loc	14 290 70               @ /root/Bela/projects/Thesis/BME280.cpp:290:70
	uxtb	r0, r0
	.loc	14 288 80               @ /root/Bela/projects/Thesis/BME280.cpp:288:80
	mul	r3, r3, r6
	.loc	14 286 85               @ /root/Bela/projects/Thesis/BME280.cpp:286:85
	mls	r1, r2, r1, r7
	.loc	14 289 22               @ /root/Bela/projects/Thesis/BME280.cpp:289:22
	add	r2, r3, #8192
.Ltmp200:
	.loc	14 289 30 is_stmt 0     @ /root/Bela/projects/Thesis/BME280.cpp:289:30
	asr	r2, r2, #14
	.loc	14 287 22 is_stmt 1     @ /root/Bela/projects/Thesis/BME280.cpp:287:22
	asr	r1, r1, #15
	.loc	14 287 29 is_stmt 0     @ /root/Bela/projects/Thesis/BME280.cpp:287:29
	mul	r1, r2, r1
.Ltmp201:
	@DEBUG_VALUE: CalculateHumidity:var1 <- %R1
	.loc	14 290 29 is_stmt 1     @ /root/Bela/projects/Thesis/BME280.cpp:290:29
	asr	r2, r1, #15
	.loc	14 290 36 is_stmt 0     @ /root/Bela/projects/Thesis/BME280.cpp:290:36
	mul	r2, r2, r2
	.loc	14 290 52               @ /root/Bela/projects/Thesis/BME280.cpp:290:52
	lsr	r2, r2, #7
	.loc	14 290 58               @ /root/Bela/projects/Thesis/BME280.cpp:290:58
	mul	r0, r2, r0
	.loc	14 290 17               @ /root/Bela/projects/Thesis/BME280.cpp:290:17
	sub	r0, r1, r0, lsr #4
.Ltmp202:
	@DEBUG_VALUE: CalculateHumidity:var1 <- %R0
	.loc	14 291 12 is_stmt 1     @ /root/Bela/projects/Thesis/BME280.cpp:291:12
	cmp	r0, #0
	movwlt	r0, #0
.Ltmp203:
	.loc	14 292 12               @ /root/Bela/projects/Thesis/BME280.cpp:292:12
	cmp	r0, #419430400
	movgt	r0, #419430400
	.loc	14 293 28               @ /root/Bela/projects/Thesis/BME280.cpp:293:28
	asr	r0, r0, #12
	.loc	14 293 11 is_stmt 0     @ /root/Bela/projects/Thesis/BME280.cpp:293:11
	vmov	s0, r0
	vcvt.f64.u32	d16, s0
.Ltmp204:
	.loc	14 425 13 is_stmt 1     @ /root/Bela/projects/Thesis/BME280.cpp:425:13
	ldr	r0, [sp]                @ 4-byte Reload
.Ltmp205:
	.loc	14 293 35               @ /root/Bela/projects/Thesis/BME280.cpp:293:35
	vmul.f64	d16, d16, d17
	.loc	14 293 11 is_stmt 0     @ /root/Bela/projects/Thesis/BME280.cpp:293:11
	vcvt.f32.f64	s0, d16
.Ltmp206:
	.loc	14 425 13 is_stmt 1     @ /root/Bela/projects/Thesis/BME280.cpp:425:13
	vstr	s0, [r0]
.Ltmp207:
	@DEBUG_VALUE: CalculateHumidity:this <- %R6
	@DEBUG_VALUE: CalculateTemperature:unit <- %R12
	.loc	14 426 1 discriminator 2 @ /root/Bela/projects/Thesis/BME280.cpp:426:1
	sub	sp, r11, #28
	pop	{r4, r5, r6, r7, r8, r9, r10, r11, pc}
.Ltmp208:
.LBB6_2:
	@DEBUG_VALUE: read:this <- %R6
	@DEBUG_VALUE: read:temp <- %R7
	@DEBUG_VALUE: read:humidity <- %R4
	@DEBUG_VALUE: read:pressure <- %R9
	.loc	14 417 34               @ /root/Bela/projects/Thesis/BME280.cpp:417:34
	movw	r0, #0
	movt	r0, #32704
	str	r0, [r4]
	.loc	14 417 23 is_stmt 0     @ /root/Bela/projects/Thesis/BME280.cpp:417:23
	str	r0, [r7]
	.loc	14 417 16               @ /root/Bela/projects/Thesis/BME280.cpp:417:16
	str	r0, [r9]
.Ltmp209:
	.loc	14 426 1 is_stmt 1 discriminator 2 @ /root/Bela/projects/Thesis/BME280.cpp:426:1
	sub	sp, r11, #28
	pop	{r4, r5, r6, r7, r8, r9, r10, r11, pc}
.Ltmp210:
	.p2align	3
@ BB#3:
.LCPI6_0:
	.long	2370821947              @ double 0.017999999999999999
	.long	1066561175
.LCPI6_1:
	.long	1202590843              @ double 0.01
	.long	1065646817
.LCPI6_2:
	.long	0                       @ double 32
	.long	1077936128
.LCPI6_3:
	.long	0                       @ double 9.765625E-4
	.long	1062207488
.Lfunc_end6:
	.size	_ZN6BME2804readERfS0_S0_NS_8TempUnitENS_8PresUnitE, .Lfunc_end6-_ZN6BME2804readERfS0_S0_NS_8TempUnitENS_8PresUnitE
	.cfi_endproc
	.fnend

	.globl	_ZN6BME28018CalculateRegistersERhS0_S0_
	.p2align	2
	.type	_ZN6BME28018CalculateRegistersERhS0_S0_,%function
_ZN6BME28018CalculateRegistersERhS0_S0_: @ @_ZN6BME28018CalculateRegistersERhS0_S0_
.Lfunc_begin7:
	.loc	14 161 0                @ /root/Bela/projects/Thesis/BME280.cpp:161:0
	.fnstart
	.cfi_startproc
@ BB#0:
	.save	{r11, lr}
	push	{r11, lr}
.Ltmp211:
	.cfi_def_cfa_offset 8
.Ltmp212:
	.cfi_offset lr, -4
.Ltmp213:
	.cfi_offset r11, -8
	@DEBUG_VALUE: CalculateRegisters:this <- %R0
	@DEBUG_VALUE: CalculateRegisters:ctrlHum <- %R1
	@DEBUG_VALUE: CalculateRegisters:ctrlMeas <- %R2
	@DEBUG_VALUE: CalculateRegisters:config <- %R3
.Ltmp214:
	.loc	14 163 34 prologue_end  @ /root/Bela/projects/Thesis/BME280.cpp:163:34
	ldr	r12, [r0, #20]
	.loc	14 163 12 is_stmt 0     @ /root/Bela/projects/Thesis/BME280.cpp:163:12
	strb	r12, [r1]
	.loc	14 165 73 is_stmt 1     @ /root/Bela/projects/Thesis/BME280.cpp:165:73
	ldr	r1, [r0, #24]
.Ltmp215:
	.loc	14 165 36 is_stmt 0     @ /root/Bela/projects/Thesis/BME280.cpp:165:36
	ldr	r12, [r0, #16]
	.loc	14 165 109              @ /root/Bela/projects/Thesis/BME280.cpp:165:109
	ldr	lr, [r0, #28]
	.loc	14 165 81               @ /root/Bela/projects/Thesis/BME280.cpp:165:81
	lsl	r1, r1, #2
	.loc	14 165 50               @ /root/Bela/projects/Thesis/BME280.cpp:165:50
	orr	r1, r1, r12, lsl #5
	.loc	14 165 87               @ /root/Bela/projects/Thesis/BME280.cpp:165:87
	orr	r1, r1, lr
	.loc	14 165 13               @ /root/Bela/projects/Thesis/BME280.cpp:165:13
	strb	r1, [r2]
	.loc	14 167 75 is_stmt 1     @ /root/Bela/projects/Thesis/BME280.cpp:167:75
	ldr	r2, [r0, #36]
.Ltmp216:
	.loc	14 167 34 is_stmt 0     @ /root/Bela/projects/Thesis/BME280.cpp:167:34
	ldr	r1, [r0, #32]
	.loc	14 167 110              @ /root/Bela/projects/Thesis/BME280.cpp:167:110
	ldr	r0, [r0, #40]
.Ltmp217:
	.loc	14 167 82               @ /root/Bela/projects/Thesis/BME280.cpp:167:82
	lsl	r2, r2, #2
	.loc	14 167 52               @ /root/Bela/projects/Thesis/BME280.cpp:167:52
	orr	r1, r2, r1, lsl #5
	.loc	14 167 88               @ /root/Bela/projects/Thesis/BME280.cpp:167:88
	orr	r0, r1, r0
	.loc	14 167 11               @ /root/Bela/projects/Thesis/BME280.cpp:167:11
	strb	r0, [r3]
	.loc	14 168 1 is_stmt 1      @ /root/Bela/projects/Thesis/BME280.cpp:168:1
	pop	{r11, pc}
.Ltmp218:
.Lfunc_end7:
	.size	_ZN6BME28018CalculateRegistersERhS0_S0_, .Lfunc_end7-_ZN6BME28018CalculateRegistersERhS0_S0_
	.cfi_endproc
	.fnend

	.globl	_ZN6BME28011setSettingsERKNS_8SettingsE
	.p2align	2
	.type	_ZN6BME28011setSettingsERKNS_8SettingsE,%function
_ZN6BME28011setSettingsERKNS_8SettingsE: @ @_ZN6BME28011setSettingsERKNS_8SettingsE
.Lfunc_begin8:
	.loc	14 130 0                @ /root/Bela/projects/Thesis/BME280.cpp:130:0
	.fnstart
	.cfi_startproc
@ BB#0:
	.save	{r4, r5, r6, r7, r8, r9, r10, r11, lr}
	push	{r4, r5, r6, r7, r8, r9, r10, r11, lr}
.Ltmp219:
	.cfi_def_cfa_offset 36
.Ltmp220:
	.cfi_offset lr, -4
.Ltmp221:
	.cfi_offset r11, -8
.Ltmp222:
	.cfi_offset r10, -12
.Ltmp223:
	.cfi_offset r9, -16
.Ltmp224:
	.cfi_offset r8, -20
.Ltmp225:
	.cfi_offset r7, -24
.Ltmp226:
	.cfi_offset r6, -28
.Ltmp227:
	.cfi_offset r5, -32
.Ltmp228:
	.cfi_offset r4, -36
	.setfp	r11, sp, #28
	add	r11, sp, #28
.Ltmp229:
	.cfi_def_cfa r11, 8
	.pad	#4
	sub	sp, sp, #4
	@DEBUG_VALUE: setSettings:this <- %R0
	@DEBUG_VALUE: setSettings:settings <- %R1
	mov	r4, r0
.Ltmp230:
	@DEBUG_VALUE: setSettings:this <- %R4
	.loc	14 131 15 prologue_end  @ /root/Bela/projects/Thesis/BME280.cpp:131:15
	add	r0, r1, #12
.Ltmp231:
	@DEBUG_VALUE: CalculateRegisters:this <- %R4
	@DEBUG_VALUE: WriteSettings:this <- %R4
	vld1.32	{d16, d17}, [r1]
.Ltmp232:
	.loc	14 165 73               @ /root/Bela/projects/Thesis/BME280.cpp:165:73
	add	r10, r4, #24
.Ltmp233:
	.loc	14 119 4                @ /root/Bela/projects/Thesis/BME280.cpp:119:4
	mov	r1, #242
.Ltmp234:
	.loc	14 131 15               @ /root/Bela/projects/Thesis/BME280.cpp:131:15
	vld1.32	{d18, d19}, [r0]
	.loc	14 131 4 is_stmt 0      @ /root/Bela/projects/Thesis/BME280.cpp:131:4
	add	r0, r4, #16
	.loc	14 131 15               @ /root/Bela/projects/Thesis/BME280.cpp:131:15
	vst1.32	{d16, d17}, [r0]
	add	r0, r4, #28
	vst1.32	{d18, d19}, [r0]
.Ltmp235:
	.loc	14 119 4 is_stmt 1      @ /root/Bela/projects/Thesis/BME280.cpp:119:4
	ldr	r0, [r4]
.Ltmp236:
	.loc	14 165 36               @ /root/Bela/projects/Thesis/BME280.cpp:165:36
	ldr	r5, [r4, #16]
	.loc	14 165 73 is_stmt 0     @ /root/Bela/projects/Thesis/BME280.cpp:165:73
	ldm	r10, {r6, r7, r8, r9, r10}
.Ltmp237:
	.loc	14 119 4 is_stmt 1      @ /root/Bela/projects/Thesis/BME280.cpp:119:4
	ldr	r3, [r0, #20]
	mov	r0, r4
	ldrb	r2, [r4, #20]
	blx	r3
	.loc	14 120 4                @ /root/Bela/projects/Thesis/BME280.cpp:120:4
	ldr	r0, [r4]
.Ltmp238:
	.loc	14 165 81               @ /root/Bela/projects/Thesis/BME280.cpp:165:81
	lsl	r1, r6, #2
	.loc	14 165 50 is_stmt 0     @ /root/Bela/projects/Thesis/BME280.cpp:165:50
	orr	r1, r1, r5, lsl #5
.Ltmp239:
	.loc	14 120 4 is_stmt 1      @ /root/Bela/projects/Thesis/BME280.cpp:120:4
	ldr	r3, [r0, #20]
.Ltmp240:
	.loc	14 165 87               @ /root/Bela/projects/Thesis/BME280.cpp:165:87
	orr	r0, r1, r7
.Ltmp241:
	.loc	14 120 4                @ /root/Bela/projects/Thesis/BME280.cpp:120:4
	mov	r1, #244
	uxtb	r2, r0
	mov	r0, r4
	blx	r3
.Ltmp242:
	.loc	14 167 82               @ /root/Bela/projects/Thesis/BME280.cpp:167:82
	lsl	r0, r9, #2
.Ltmp243:
	.loc	14 121 4                @ /root/Bela/projects/Thesis/BME280.cpp:121:4
	ldr	r1, [r4]
.Ltmp244:
	.loc	14 167 52               @ /root/Bela/projects/Thesis/BME280.cpp:167:52
	orr	r0, r0, r8, lsl #5
	.loc	14 167 88 is_stmt 0     @ /root/Bela/projects/Thesis/BME280.cpp:167:88
	orr	r0, r0, r10
.Ltmp245:
	.loc	14 121 4 is_stmt 1      @ /root/Bela/projects/Thesis/BME280.cpp:121:4
	ldr	r3, [r1, #20]
	mov	r1, #245
	uxtb	r2, r0
	mov	r0, r4
	sub	sp, r11, #28
	pop	{r4, r5, r6, r7, r8, r9, r10, r11, lr}
.Ltmp246:
	bx	r3
.Ltmp247:
.Lfunc_end8:
	.size	_ZN6BME28011setSettingsERKNS_8SettingsE, .Lfunc_end8-_ZN6BME28011setSettingsERKNS_8SettingsE
	.cfi_endproc
	.fnend

	.globl	_ZNK6BME28011getSettingsEv
	.p2align	2
	.type	_ZNK6BME28011getSettingsEv,%function
_ZNK6BME28011getSettingsEv:             @ @_ZNK6BME28011getSettingsEv
.Lfunc_begin9:
	.loc	14 138 0                @ /root/Bela/projects/Thesis/BME280.cpp:138:0
	.fnstart
	.cfi_startproc
@ BB#0:
	@DEBUG_VALUE: getSettings:this <- %R0
	.loc	14 139 11 prologue_end  @ /root/Bela/projects/Thesis/BME280.cpp:139:11
	add	r0, r0, #16
.Ltmp248:
	.loc	14 139 4 is_stmt 0      @ /root/Bela/projects/Thesis/BME280.cpp:139:4
	bx	lr
.Ltmp249:
.Lfunc_end9:
	.size	_ZNK6BME28011getSettingsEv, .Lfunc_end9-_ZNK6BME28011getSettingsEv
	.cfi_endproc
	.fnend

	.globl	_ZN6BME2805beginEv
	.p2align	2
	.type	_ZN6BME2805beginEv,%function
_ZN6BME2805beginEv:                     @ @_ZN6BME2805beginEv
.Lfunc_begin10:
	.loc	14 147 0 is_stmt 1      @ /root/Bela/projects/Thesis/BME280.cpp:147:0
	.fnstart
	.cfi_startproc
@ BB#0:
	.save	{r4, r10, r11, lr}
	push	{r4, r10, r11, lr}
.Ltmp250:
	.cfi_def_cfa_offset 16
.Ltmp251:
	.cfi_offset lr, -4
.Ltmp252:
	.cfi_offset r11, -8
.Ltmp253:
	.cfi_offset r10, -12
.Ltmp254:
	.cfi_offset r4, -16
	.setfp	r11, sp, #8
	add	r11, sp, #8
.Ltmp255:
	.cfi_def_cfa r11, 8
	@DEBUG_VALUE: begin:this <- %R0
	mov	r4, r0
.Ltmp256:
	@DEBUG_VALUE: begin:this <- %R4
	.loc	14 148 19 prologue_end  @ /root/Bela/projects/Thesis/BME280.cpp:148:19
	ldr	r0, [r4]
	ldr	r1, [r0, #8]
	.loc	14 148 19 is_stmt 0 discriminator 1 @ /root/Bela/projects/Thesis/BME280.cpp:148:19
	mov	r0, r4
	blx	r1
	.loc	14 149 15 is_stmt 1     @ /root/Bela/projects/Thesis/BME280.cpp:149:15
	ldrb	r1, [r4, #80]
	.loc	14 149 12 is_stmt 0     @ /root/Bela/projects/Thesis/BME280.cpp:149:12
	and	r0, r1, r0
	.loc	14 151 4 is_stmt 1      @ /root/Bela/projects/Thesis/BME280.cpp:151:4
	pop	{r4, r10, r11, pc}
.Ltmp257:
.Lfunc_end10:
	.size	_ZN6BME2805beginEv, .Lfunc_end10-_ZN6BME2805beginEv
	.cfi_endproc
	.fnend

	.globl	_ZN6BME2808ReadDataEPi
	.p2align	2
	.type	_ZN6BME2808ReadDataEPi,%function
_ZN6BME2808ReadDataEPi:                 @ @_ZN6BME2808ReadDataEPi
.Lfunc_begin11:
	.loc	14 216 0                @ /root/Bela/projects/Thesis/BME280.cpp:216:0
	.fnstart
	.cfi_startproc
@ BB#0:
	.save	{r4, r5, r6, r7, r8, r9, r10, r11, lr}
	push	{r4, r5, r6, r7, r8, r9, r10, r11, lr}
.Ltmp258:
	.cfi_def_cfa_offset 36
.Ltmp259:
	.cfi_offset lr, -4
.Ltmp260:
	.cfi_offset r11, -8
.Ltmp261:
	.cfi_offset r10, -12
.Ltmp262:
	.cfi_offset r9, -16
.Ltmp263:
	.cfi_offset r8, -20
.Ltmp264:
	.cfi_offset r7, -24
.Ltmp265:
	.cfi_offset r6, -28
.Ltmp266:
	.cfi_offset r5, -32
.Ltmp267:
	.cfi_offset r4, -36
	.setfp	r11, sp, #28
	add	r11, sp, #28
.Ltmp268:
	.cfi_def_cfa r11, 8
	.pad	#12
	sub	sp, sp, #12
	@DEBUG_VALUE: ReadData:this <- %R0
	@DEBUG_VALUE: ReadData:data <- %R1
	mov	r5, r0
.Ltmp269:
	@DEBUG_VALUE: ReadData:this <- %R5
	mov	r4, r1
.Ltmp270:
	@DEBUG_VALUE: ReadData:data <- %R4
	.loc	14 221 19 prologue_end  @ /root/Bela/projects/Thesis/BME280.cpp:221:19
	ldr	r0, [r5, #28]
.Ltmp271:
	.loc	14 221 8 is_stmt 0      @ /root/Bela/projects/Thesis/BME280.cpp:221:8
	cmp	r0, #1
	bne	.LBB11_2
.Ltmp272:
@ BB#1:
	@DEBUG_VALUE: ReadData:data <- %R4
	@DEBUG_VALUE: ReadData:this <- %R5
	@DEBUG_VALUE: CalculateRegisters:this <- %R5
	.loc	14 119 4 is_stmt 1      @ /root/Bela/projects/Thesis/BME280.cpp:119:4
	ldr	r0, [r5]
	mov	r1, #242
	ldrb	r2, [r5, #20]
.Ltmp273:
	.loc	14 165 36               @ /root/Bela/projects/Thesis/BME280.cpp:165:36
	ldr	r6, [r5, #16]
.Ltmp274:
	.loc	14 119 4                @ /root/Bela/projects/Thesis/BME280.cpp:119:4
	ldr	r3, [r0, #20]
	mov	r0, r5
.Ltmp275:
	.loc	14 167 34               @ /root/Bela/projects/Thesis/BME280.cpp:167:34
	ldr	r8, [r5, #32]
	.loc	14 167 75 is_stmt 0     @ /root/Bela/projects/Thesis/BME280.cpp:167:75
	ldr	r10, [r5, #36]
	.loc	14 167 110              @ /root/Bela/projects/Thesis/BME280.cpp:167:110
	ldr	r9, [r5, #40]
	.loc	14 165 73 is_stmt 1     @ /root/Bela/projects/Thesis/BME280.cpp:165:73
	ldr	r7, [r5, #24]
.Ltmp276:
	.loc	14 119 4                @ /root/Bela/projects/Thesis/BME280.cpp:119:4
	blx	r3
	.loc	14 120 4                @ /root/Bela/projects/Thesis/BME280.cpp:120:4
	ldr	r0, [r5]
.Ltmp277:
	.loc	14 165 44               @ /root/Bela/projects/Thesis/BME280.cpp:165:44
	lsl	r1, r6, #5
	.loc	14 165 87 is_stmt 0     @ /root/Bela/projects/Thesis/BME280.cpp:165:87
	orr	r1, r1, r7, lsl #2
.Ltmp278:
	.loc	14 120 4 is_stmt 1      @ /root/Bela/projects/Thesis/BME280.cpp:120:4
	ldr	r3, [r0, #20]
.Ltmp279:
	.loc	14 165 87               @ /root/Bela/projects/Thesis/BME280.cpp:165:87
	orr	r0, r1, #1
.Ltmp280:
	.loc	14 120 4                @ /root/Bela/projects/Thesis/BME280.cpp:120:4
	mov	r1, #244
	uxtb	r2, r0
	mov	r0, r5
	blx	r3
	.loc	14 121 4                @ /root/Bela/projects/Thesis/BME280.cpp:121:4
	ldr	r0, [r5]
.Ltmp281:
	.loc	14 167 82               @ /root/Bela/projects/Thesis/BME280.cpp:167:82
	lsl	r1, r10, #2
	.loc	14 167 52 is_stmt 0     @ /root/Bela/projects/Thesis/BME280.cpp:167:52
	orr	r1, r1, r8, lsl #5
.Ltmp282:
	.loc	14 121 4 is_stmt 1      @ /root/Bela/projects/Thesis/BME280.cpp:121:4
	ldr	r3, [r0, #20]
.Ltmp283:
	.loc	14 167 88               @ /root/Bela/projects/Thesis/BME280.cpp:167:88
	orr	r0, r1, r9
.Ltmp284:
	.loc	14 121 4                @ /root/Bela/projects/Thesis/BME280.cpp:121:4
	mov	r1, #245
	uxtb	r2, r0
	mov	r0, r5
	blx	r3
.Ltmp285:
.LBB11_2:
	@DEBUG_VALUE: ReadData:data <- %R4
	@DEBUG_VALUE: ReadData:this <- %R5
	.loc	14 227 14               @ /root/Bela/projects/Thesis/BME280.cpp:227:14
	ldr	r0, [r5]
	add	r6, sp, #4
	mov	r1, #247
	mov	r3, #8
	mov	r2, r6
	ldr	r7, [r0, #24]
	mov	r0, r5
	blx	r7
.Ltmp286:
	@DEBUG_VALUE: i <- 1
	.loc	14 231 38               @ /root/Bela/projects/Thesis/BME280.cpp:231:38
	vld1.32	{d16[0]}, [r6:32]
	add	r1, r6, #4
	vmovl.u8	q8, d16
	vmovl.u16	q8, d16
	.loc	14 231 15 is_stmt 0     @ /root/Bela/projects/Thesis/BME280.cpp:231:15
	vst1.32	{d16, d17}, [r4]!
.Ltmp287:
	.loc	14 231 38               @ /root/Bela/projects/Thesis/BME280.cpp:231:38
	vld1.32	{d16[0]}, [r1:32]
	vmovl.u8	q8, d16
	vmovl.u16	q8, d16
	.loc	14 231 15               @ /root/Bela/projects/Thesis/BME280.cpp:231:15
	vst1.32	{d16, d17}, [r4]
.Ltmp288:
	.loc	14 244 4 is_stmt 1      @ /root/Bela/projects/Thesis/BME280.cpp:244:4
	sub	sp, r11, #28
	pop	{r4, r5, r6, r7, r8, r9, r10, r11, pc}
.Ltmp289:
.Lfunc_end11:
	.size	_ZN6BME2808ReadDataEPi, .Lfunc_end11-_ZN6BME2808ReadDataEPi
	.cfi_endproc
	.fnend

	.globl	_ZN6BME28020CalculateTemperatureEiRiNS_8TempUnitE
	.p2align	3
	.type	_ZN6BME28020CalculateTemperatureEiRiNS_8TempUnitE,%function
_ZN6BME28020CalculateTemperatureEiRiNS_8TempUnitE: @ @_ZN6BME28020CalculateTemperatureEiRiNS_8TempUnitE
.Lfunc_begin12:
	.loc	14 255 0                @ /root/Bela/projects/Thesis/BME280.cpp:255:0
	.fnstart
	.cfi_startproc
@ BB#0:
	.save	{r4, r5, r6, lr}
	push	{r4, r5, r6, lr}
.Ltmp290:
	.cfi_def_cfa_offset 16
.Ltmp291:
	.cfi_offset lr, -4
.Ltmp292:
	.cfi_offset r6, -8
.Ltmp293:
	.cfi_offset r5, -12
.Ltmp294:
	.cfi_offset r4, -16
	@DEBUG_VALUE: CalculateTemperature:this <- %R0
	@DEBUG_VALUE: CalculateTemperature:raw <- %R1
	@DEBUG_VALUE: CalculateTemperature:t_fine <- %R2
	@DEBUG_VALUE: CalculateTemperature:unit <- %R3
.Ltmp295:
	.loc	14 258 40 prologue_end  @ /root/Bela/projects/Thesis/BME280.cpp:258:40
	ldr	r12, [r0, #44]
	.loc	14 265 11               @ /root/Bela/projects/Thesis/BME280.cpp:265:11
	cmp	r3, #0
	.loc	14 258 23               @ /root/Bela/projects/Thesis/BME280.cpp:258:23
	ldrb	lr, [r0, #45]
	.loc	14 260 22               @ /root/Bela/projects/Thesis/BME280.cpp:260:22
	ldrb	r5, [r0, #49]
	.loc	14 258 40               @ /root/Bela/projects/Thesis/BME280.cpp:258:40
	uxtb	r4, r12
	.loc	14 260 39               @ /root/Bela/projects/Thesis/BME280.cpp:260:39
	ldrb	r0, [r0, #48]
.Ltmp296:
	.loc	14 258 38               @ /root/Bela/projects/Thesis/BME280.cpp:258:38
	orr	lr, r4, lr, lsl #8
	.loc	14 265 67 discriminator 2 @ /root/Bela/projects/Thesis/BME280.cpp:265:67
	vldr	d17, .LCPI12_0
	.loc	14 262 26               @ /root/Bela/projects/Thesis/BME280.cpp:262:26
	rsb	r4, lr, r1, asr #4
	.loc	14 260 37               @ /root/Bela/projects/Thesis/BME280.cpp:260:37
	orr	r0, r0, r5, lsl #8
	.loc	14 261 19               @ /root/Bela/projects/Thesis/BME280.cpp:261:19
	asr	r1, r1, #3
.Ltmp297:
	.loc	14 265 43 discriminator 1 @ /root/Bela/projects/Thesis/BME280.cpp:265:43
	vldr	d18, .LCPI12_1
	.loc	14 262 47               @ /root/Bela/projects/Thesis/BME280.cpp:262:47
	mul	r6, r4, r4
	.loc	14 261 25               @ /root/Bela/projects/Thesis/BME280.cpp:261:25
	sub	r1, r1, lr, lsl #1
	.loc	14 262 102              @ /root/Bela/projects/Thesis/BME280.cpp:262:102
	sxth	r0, r0
	.loc	14 261 64               @ /root/Bela/projects/Thesis/BME280.cpp:261:64
	asr	r4, r12, #16
	.loc	14 265 72 discriminator 2 @ /root/Bela/projects/Thesis/BME280.cpp:265:72
	vldr	d19, .LCPI12_2
	.loc	14 261 52               @ /root/Bela/projects/Thesis/BME280.cpp:261:52
	mul	r1, r4, r1
	.loc	14 262 83               @ /root/Bela/projects/Thesis/BME280.cpp:262:83
	lsr	r6, r6, #12
	.loc	14 262 90 is_stmt 0     @ /root/Bela/projects/Thesis/BME280.cpp:262:90
	mul	r0, r0, r6
	.loc	14 262 111              @ /root/Bela/projects/Thesis/BME280.cpp:262:111
	asr	r0, r0, #14
.Ltmp298:
	@DEBUG_VALUE: CalculateTemperature:var2 <- %R0
	.loc	14 263 18 is_stmt 1     @ /root/Bela/projects/Thesis/BME280.cpp:263:18
	add	r0, r0, r1, asr #11
.Ltmp299:
	.loc	14 264 20               @ /root/Bela/projects/Thesis/BME280.cpp:264:20
	add	r1, r0, r0, lsl #2
	.loc	14 264 24 is_stmt 0     @ /root/Bela/projects/Thesis/BME280.cpp:264:24
	add	r1, r1, #128
	.loc	14 264 31               @ /root/Bela/projects/Thesis/BME280.cpp:264:31
	asr	r1, r1, #8
.Ltmp300:
	@DEBUG_VALUE: CalculateTemperature:final <- %R1
	.loc	14 265 38 is_stmt 1 discriminator 1 @ /root/Bela/projects/Thesis/BME280.cpp:265:38
	vmov	s0, r1
.Ltmp301:
	@DEBUG_VALUE: CalculateTemperature:final <- %S0
	vcvt.f64.s32	d16, s0
	.loc	14 263 11               @ /root/Bela/projects/Thesis/BME280.cpp:263:11
	str	r0, [r2]
	.loc	14 265 67 discriminator 2 @ /root/Bela/projects/Thesis/BME280.cpp:265:67
	vmul.f64	d17, d16, d17
	.loc	14 265 43 is_stmt 0 discriminator 1 @ /root/Bela/projects/Thesis/BME280.cpp:265:43
	vmul.f64	d16, d16, d18
	.loc	14 265 72 discriminator 2 @ /root/Bela/projects/Thesis/BME280.cpp:265:72
	vadd.f64	d17, d17, d19
	.loc	14 265 11               @ /root/Bela/projects/Thesis/BME280.cpp:265:11
	vmoveq.f64	d17, d16
	.loc	14 265 11 discriminator 3 @ /root/Bela/projects/Thesis/BME280.cpp:265:11
	vcvt.f32.f64	s0, d17
.Ltmp302:
	.loc	14 265 4 discriminator 3 @ /root/Bela/projects/Thesis/BME280.cpp:265:4
	pop	{r4, r5, r6, pc}
.Ltmp303:
	.p2align	3
@ BB#1:
.LCPI12_0:
	.long	2370821947              @ double 0.017999999999999999
	.long	1066561175
.LCPI12_1:
	.long	1202590843              @ double 0.01
	.long	1065646817
.LCPI12_2:
	.long	0                       @ double 32
	.long	1077936128
.Lfunc_end12:
	.size	_ZN6BME28020CalculateTemperatureEiRiNS_8TempUnitE, .Lfunc_end12-_ZN6BME28020CalculateTemperatureEiRiNS_8TempUnitE
	.cfi_endproc
	.fnend

	.globl	_ZN6BME28017CalculateHumidityEii
	.p2align	3
	.type	_ZN6BME28017CalculateHumidityEii,%function
_ZN6BME28017CalculateHumidityEii:       @ @_ZN6BME28017CalculateHumidityEii
.Lfunc_begin13:
	.loc	14 275 0 is_stmt 1      @ /root/Bela/projects/Thesis/BME280.cpp:275:0
	.fnstart
	.cfi_startproc
@ BB#0:
	.save	{r4, lr}
	push	{r4, lr}
.Ltmp304:
	.cfi_def_cfa_offset 8
.Ltmp305:
	.cfi_offset lr, -4
.Ltmp306:
	.cfi_offset r4, -8
	@DEBUG_VALUE: CalculateHumidity:this <- %R0
	@DEBUG_VALUE: CalculateHumidity:raw <- %R1
	@DEBUG_VALUE: CalculateHumidity:t_fine <- %R2
.Ltmp307:
	.loc	14 278 21 prologue_end  @ /root/Bela/projects/Thesis/BME280.cpp:278:21
	ldr	r12, [r0, #68]
	.loc	14 285 19               @ /root/Bela/projects/Thesis/BME280.cpp:285:19
	sub	r2, r2, #76800
.Ltmp308:
	@DEBUG_VALUE: CalculateHumidity:var1 <- %R2
	.loc	14 281 22               @ /root/Bela/projects/Thesis/BME280.cpp:281:22
	ldr	r0, [r0, #72]
.Ltmp309:
	.loc	14 288 30               @ /root/Bela/projects/Thesis/BME280.cpp:288:30
	mov	r4, #32768
	.loc	14 293 35               @ /root/Bela/projects/Thesis/BME280.cpp:293:35
	vldr	d17, .LCPI13_0
	.loc	14 280 21               @ /root/Bela/projects/Thesis/BME280.cpp:280:21
	lsr	r3, r12, #24
	.loc	14 287 81               @ /root/Bela/projects/Thesis/BME280.cpp:287:81
	mul	lr, r3, r2
	.loc	14 287 55 is_stmt 0     @ /root/Bela/projects/Thesis/BME280.cpp:287:55
	asr	r3, r0, #24
	.loc	14 287 43               @ /root/Bela/projects/Thesis/BME280.cpp:287:43
	mul	r3, r3, r2
	.loc	14 288 30 is_stmt 1     @ /root/Bela/projects/Thesis/BME280.cpp:288:30
	add	r4, r4, lr, asr #11
	.loc	14 287 64               @ /root/Bela/projects/Thesis/BME280.cpp:287:64
	asr	r3, r3, #10
	.loc	14 287 71 is_stmt 0     @ /root/Bela/projects/Thesis/BME280.cpp:287:71
	mul	lr, r3, r4
	.loc	14 281 46 is_stmt 1     @ /root/Bela/projects/Thesis/BME280.cpp:281:46
	ubfx	r4, r0, #8, #4
	.loc	14 281 38 is_stmt 0     @ /root/Bela/projects/Thesis/BME280.cpp:281:38
	orr	r4, r4, r0, lsl #4
	.loc	14 286 27 is_stmt 1     @ /root/Bela/projects/Thesis/BME280.cpp:286:27
	mov	r3, #16384
	add	r1, r3, r1, lsl #14
.Ltmp310:
	.loc	14 282 38               @ /root/Bela/projects/Thesis/BME280.cpp:282:38
	ubfx	r0, r0, #12, #12
	.loc	14 286 55               @ /root/Bela/projects/Thesis/BME280.cpp:286:55
	sub	r1, r1, r4, lsl #20
	.loc	14 286 85 is_stmt 0     @ /root/Bela/projects/Thesis/BME280.cpp:286:85
	mls	r0, r0, r2, r1
	.loc	14 288 58 is_stmt 1     @ /root/Bela/projects/Thesis/BME280.cpp:288:58
	mov	r1, #2097152
	add	r1, r1, lr, asr #10
	.loc	14 289 14               @ /root/Bela/projects/Thesis/BME280.cpp:289:14
	sbfx	r2, r12, #8, #16
.Ltmp311:
	.loc	14 288 80               @ /root/Bela/projects/Thesis/BME280.cpp:288:80
	mul	r1, r1, r2
	.loc	14 290 70               @ /root/Bela/projects/Thesis/BME280.cpp:290:70
	uxtb	r2, r12
	.loc	14 287 22               @ /root/Bela/projects/Thesis/BME280.cpp:287:22
	asr	r0, r0, #15
	.loc	14 289 22               @ /root/Bela/projects/Thesis/BME280.cpp:289:22
	add	r1, r1, #8192
	.loc	14 289 30 is_stmt 0     @ /root/Bela/projects/Thesis/BME280.cpp:289:30
	asr	r1, r1, #14
	.loc	14 287 29 is_stmt 1     @ /root/Bela/projects/Thesis/BME280.cpp:287:29
	mul	r0, r1, r0
.Ltmp312:
	@DEBUG_VALUE: CalculateHumidity:var1 <- %R0
	.loc	14 290 29               @ /root/Bela/projects/Thesis/BME280.cpp:290:29
	asr	r1, r0, #15
	.loc	14 290 36 is_stmt 0     @ /root/Bela/projects/Thesis/BME280.cpp:290:36
	mul	r1, r1, r1
	.loc	14 290 52               @ /root/Bela/projects/Thesis/BME280.cpp:290:52
	lsr	r1, r1, #7
	.loc	14 290 58               @ /root/Bela/projects/Thesis/BME280.cpp:290:58
	mul	r1, r1, r2
	.loc	14 290 17               @ /root/Bela/projects/Thesis/BME280.cpp:290:17
	sub	r0, r0, r1, lsr #4
.Ltmp313:
	.loc	14 291 12 is_stmt 1     @ /root/Bela/projects/Thesis/BME280.cpp:291:12
	cmp	r0, #0
	movwlt	r0, #0
	.loc	14 292 12               @ /root/Bela/projects/Thesis/BME280.cpp:292:12
	cmp	r0, #419430400
	movgt	r0, #419430400
	.loc	14 293 28               @ /root/Bela/projects/Thesis/BME280.cpp:293:28
	asr	r0, r0, #12
	.loc	14 293 11 is_stmt 0     @ /root/Bela/projects/Thesis/BME280.cpp:293:11
	vmov	s0, r0
	vcvt.f64.u32	d16, s0
	.loc	14 293 35               @ /root/Bela/projects/Thesis/BME280.cpp:293:35
	vmul.f64	d16, d16, d17
	.loc	14 293 11               @ /root/Bela/projects/Thesis/BME280.cpp:293:11
	vcvt.f32.f64	s0, d16
	.loc	14 293 4                @ /root/Bela/projects/Thesis/BME280.cpp:293:4
	pop	{r4, pc}
.Ltmp314:
	.p2align	3
@ BB#1:
.LCPI13_0:
	.long	0                       @ double 9.765625E-4
	.long	1062207488
.Lfunc_end13:
	.size	_ZN6BME28017CalculateHumidityEii, .Lfunc_end13-_ZN6BME28017CalculateHumidityEii
	.cfi_endproc
	.fnend

	.globl	_ZN6BME28017CalculatePressureEiiNS_8PresUnitE
	.p2align	3
	.type	_ZN6BME28017CalculatePressureEiiNS_8PresUnitE,%function
_ZN6BME28017CalculatePressureEiiNS_8PresUnitE: @ @_ZN6BME28017CalculatePressureEiiNS_8PresUnitE
.Lfunc_begin14:
	.loc	14 304 0 is_stmt 1      @ /root/Bela/projects/Thesis/BME280.cpp:304:0
	.fnstart
	.cfi_startproc
@ BB#0:
	.save	{r4, r5, r6, r7, r8, r9, r10, r11, lr}
	push	{r4, r5, r6, r7, r8, r9, r10, r11, lr}
.Ltmp315:
	.cfi_def_cfa_offset 36
.Ltmp316:
	.cfi_offset lr, -4
.Ltmp317:
	.cfi_offset r11, -8
.Ltmp318:
	.cfi_offset r10, -12
.Ltmp319:
	.cfi_offset r9, -16
.Ltmp320:
	.cfi_offset r8, -20
.Ltmp321:
	.cfi_offset r7, -24
.Ltmp322:
	.cfi_offset r6, -28
.Ltmp323:
	.cfi_offset r5, -32
.Ltmp324:
	.cfi_offset r4, -36
	.setfp	r11, sp, #28
	add	r11, sp, #28
.Ltmp325:
	.cfi_def_cfa r11, 8
	.pad	#28
	sub	sp, sp, #28
	@DEBUG_VALUE: CalculatePressure:this <- %R0
	@DEBUG_VALUE: CalculatePressure:raw <- %R1
	@DEBUG_VALUE: CalculatePressure:t_fine <- %R2
	@DEBUG_VALUE: CalculatePressure:unit <- %R3
	mov	r5, r0
.Ltmp326:
	@DEBUG_VALUE: CalculatePressure:this <- %R5
	.loc	14 319 20 prologue_end  @ /root/Bela/projects/Thesis/BME280.cpp:319:20
	asr	r0, r2, #31
	subs	r2, r2, #131072
.Ltmp327:
	mov	r12, r3
.Ltmp328:
	@DEBUG_VALUE: CalculatePressure:unit <- %R12
	sbc	r3, r0, #0
	.loc	14 319 27 is_stmt 0     @ /root/Bela/projects/Thesis/BME280.cpp:319:27
	adds	r0, r2, #3072
	adc	r10, r3, #0
	.loc	14 310 39 is_stmt 1     @ /root/Bela/projects/Thesis/BME280.cpp:310:39
	ldr	r3, [r5, #52]
	.loc	14 320 16               @ /root/Bela/projects/Thesis/BME280.cpp:320:16
	umull	r8, r2, r0, r0
	mla	r2, r0, r10, r2
	mla	r4, r0, r10, r2
	.loc	14 323 36               @ /root/Bela/projects/Thesis/BME280.cpp:323:36
	asr	r2, r3, #16
	.loc	14 323 25 is_stmt 0     @ /root/Bela/projects/Thesis/BME280.cpp:323:25
	umull	lr, r6, r2, r8
	str	r4, [sp, #24]           @ 4-byte Spill
	mla	r2, r2, r4, r6
	.loc	14 310 22 is_stmt 1     @ /root/Bela/projects/Thesis/BME280.cpp:310:22
	ldrb	r4, [r5, #53]
	.loc	14 323 36               @ /root/Bela/projects/Thesis/BME280.cpp:323:36
	asr	r6, r3, #31
	.loc	14 310 39               @ /root/Bela/projects/Thesis/BME280.cpp:310:39
	uxtb	r3, r3
	.loc	14 310 37 is_stmt 0     @ /root/Bela/projects/Thesis/BME280.cpp:310:37
	orr	r3, r3, r4, lsl #8
	.loc	14 323 25 is_stmt 1     @ /root/Bela/projects/Thesis/BME280.cpp:323:25
	mla	r2, r6, r8, r2
	.loc	14 323 70 is_stmt 0     @ /root/Bela/projects/Thesis/BME280.cpp:323:70
	sxth	r3, r3
	.loc	14 323 78               @ /root/Bela/projects/Thesis/BME280.cpp:323:78
	umull	r4, r6, r0, r3
	.loc	14 323 70               @ /root/Bela/projects/Thesis/BME280.cpp:323:70
	asr	r7, r3, #31
	.loc	14 323 78               @ /root/Bela/projects/Thesis/BME280.cpp:323:78
	mla	r6, r0, r7, r6
	.loc	14 323 44               @ /root/Bela/projects/Thesis/BME280.cpp:323:44
	lsr	r7, lr, #8
	orr	r7, r7, r2, lsl #24
	.loc	14 323 78               @ /root/Bela/projects/Thesis/BME280.cpp:323:78
	mla	r3, r10, r3, r6
	.loc	14 309 40 is_stmt 1     @ /root/Bela/projects/Thesis/BME280.cpp:309:40
	ldrb	r6, [r5, #50]
	.loc	14 323 50               @ /root/Bela/projects/Thesis/BME280.cpp:323:50
	adds	r7, r7, r4, lsl #12
	.loc	14 323 78 is_stmt 0     @ /root/Bela/projects/Thesis/BME280.cpp:323:78
	lsl	r3, r3, #12
	orr	r9, r3, r4, lsr #20
	.loc	14 309 23 is_stmt 1     @ /root/Bela/projects/Thesis/BME280.cpp:309:23
	ldrb	r3, [r5, #51]
	.loc	14 323 50               @ /root/Bela/projects/Thesis/BME280.cpp:323:50
	adc	r2, r9, r2, asr #8
	.loc	14 324 34               @ /root/Bela/projects/Thesis/BME280.cpp:324:34
	add	r2, r2, #32768
	.loc	14 309 38               @ /root/Bela/projects/Thesis/BME280.cpp:309:38
	orr	r3, r6, r3, lsl #8
	.loc	14 324 43               @ /root/Bela/projects/Thesis/BME280.cpp:324:43
	umull	r7, r6, r7, r3
	mla	r3, r2, r3, r6
	.loc	14 324 63 is_stmt 0     @ /root/Bela/projects/Thesis/BME280.cpp:324:63
	asr	r9, r3, #1
.Ltmp329:
	.loc	14 325 13 is_stmt 1     @ /root/Bela/projects/Thesis/BME280.cpp:325:13
	orr	r7, r9, r3, asr #31
.Ltmp330:
	.loc	14 325 8 is_stmt 0      @ /root/Bela/projects/Thesis/BME280.cpp:325:8
	cmp	r7, #0
	beq	.LBB14_5
.Ltmp331:
@ BB#1:
	@DEBUG_VALUE: CalculatePressure:unit <- %R12
	@DEBUG_VALUE: CalculatePressure:this <- %R5
	@DEBUG_VALUE: CalculatePressure:raw <- %R1
	.loc	14 324 63 is_stmt 1     @ /root/Bela/projects/Thesis/BME280.cpp:324:63
	asr	r2, r3, #31
	mov	lr, r1
	.loc	14 319 27               @ /root/Bela/projects/Thesis/BME280.cpp:319:27
	str	r2, [sp, #12]           @ 4-byte Spill
	movw	r6, #0
	.loc	14 314 40               @ /root/Bela/projects/Thesis/BME280.cpp:314:40
	ldr	r1, [r5, #60]
.Ltmp332:
	.loc	14 319 27               @ /root/Bela/projects/Thesis/BME280.cpp:319:27
	movt	r6, #65534
	.loc	14 314 22               @ /root/Bela/projects/Thesis/BME280.cpp:314:22
	str	r1, [sp, #16]           @ 4-byte Spill
	ldrb	r4, [r5, #61]
	.loc	14 314 40 is_stmt 0     @ /root/Bela/projects/Thesis/BME280.cpp:314:40
	uxtb	r7, r1
	str	r12, [sp, #20]          @ 4-byte Spill
	.loc	14 312 40 is_stmt 1     @ /root/Bela/projects/Thesis/BME280.cpp:312:40
	ldrb	r1, [r5, #56]
	.loc	14 314 38               @ /root/Bela/projects/Thesis/BME280.cpp:314:38
	orr	r4, r7, r4, lsl #8
	.loc	14 312 22               @ /root/Bela/projects/Thesis/BME280.cpp:312:22
	str	r1, [sp, #8]            @ 4-byte Spill
	.loc	14 320 23               @ /root/Bela/projects/Thesis/BME280.cpp:320:23
	ldr	r3, [sp, #24]           @ 4-byte Reload
	.loc	14 320 34 is_stmt 0     @ /root/Bela/projects/Thesis/BME280.cpp:320:34
	sxth	r4, r4
	.loc	14 312 22 is_stmt 1     @ /root/Bela/projects/Thesis/BME280.cpp:312:22
	ldrb	r1, [r5, #57]
	.loc	14 320 23               @ /root/Bela/projects/Thesis/BME280.cpp:320:23
	umull	r7, r12, r4, r8
.Ltmp333:
	.loc	14 313 40               @ /root/Bela/projects/Thesis/BME280.cpp:313:40
	str	r1, [sp, #4]            @ 4-byte Spill
	.loc	14 313 22 is_stmt 0     @ /root/Bela/projects/Thesis/BME280.cpp:313:22
	ldrb	r1, [r5, #59]
	.loc	14 313 40               @ /root/Bela/projects/Thesis/BME280.cpp:313:40
	ldrb	r2, [r5, #58]
	.loc	14 320 23 is_stmt 1     @ /root/Bela/projects/Thesis/BME280.cpp:320:23
	mla	r12, r4, r3, r12
	.loc	14 320 34 is_stmt 0     @ /root/Bela/projects/Thesis/BME280.cpp:320:34
	asr	r4, r4, #31
	.loc	14 313 38 is_stmt 1     @ /root/Bela/projects/Thesis/BME280.cpp:313:38
	orr	r1, r2, r1, lsl #8
	.loc	14 320 23               @ /root/Bela/projects/Thesis/BME280.cpp:320:23
	mla	r12, r4, r8, r12
	.loc	14 321 36               @ /root/Bela/projects/Thesis/BME280.cpp:321:36
	sxth	r1, r1
	.loc	14 321 44 is_stmt 0     @ /root/Bela/projects/Thesis/BME280.cpp:321:44
	umull	r2, r4, r0, r6
	.loc	14 321 36               @ /root/Bela/projects/Thesis/BME280.cpp:321:36
	asr	r6, r1, #31
	umull	r8, r3, r2, r1
	mla	r2, r2, r6, r3
	.loc	14 319 27 is_stmt 1     @ /root/Bela/projects/Thesis/BME280.cpp:319:27
	mvn	r3, #0
	.loc	14 312 38               @ /root/Bela/projects/Thesis/BME280.cpp:312:38
	ldr	r6, [sp, #4]            @ 4-byte Reload
	.loc	14 321 44               @ /root/Bela/projects/Thesis/BME280.cpp:321:44
	mla	r0, r0, r3, r4
	.loc	14 319 27               @ /root/Bela/projects/Thesis/BME280.cpp:319:27
	movw	r3, #0
	movt	r3, #65534
	.loc	14 321 44               @ /root/Bela/projects/Thesis/BME280.cpp:321:44
	mla	r0, r10, r3, r0
	.loc	14 327 42               @ /root/Bela/projects/Thesis/BME280.cpp:327:42
	movw	r3, #3125
	mla	r1, r0, r1, r2
	.loc	14 326 23               @ /root/Bela/projects/Thesis/BME280.cpp:326:23
	rsb	r0, lr, #1048576
	.loc	14 326 15 is_stmt 0     @ /root/Bela/projects/Thesis/BME280.cpp:326:15
	and	r2, r0, #-2147483648
	.loc	14 327 27 is_stmt 1     @ /root/Bela/projects/Thesis/BME280.cpp:327:27
	orr	r2, r2, r0, lsr #1
	.loc	14 321 16               @ /root/Bela/projects/Thesis/BME280.cpp:321:16
	rsbs	r0, r7, r0, lsl #31
	sbc	r2, r2, r12
	.loc	14 322 16               @ /root/Bela/projects/Thesis/BME280.cpp:322:16
	adds	r0, r0, r8
	adc	r1, r2, r1
	.loc	14 312 38               @ /root/Bela/projects/Thesis/BME280.cpp:312:38
	ldr	r2, [sp, #8]            @ 4-byte Reload
	.loc	14 327 42               @ /root/Bela/projects/Thesis/BME280.cpp:327:42
	umull	r0, r7, r0, r3
	.loc	14 312 38               @ /root/Bela/projects/Thesis/BME280.cpp:312:38
	orr	r2, r2, r6, lsl #8
	.loc	14 322 29               @ /root/Bela/projects/Thesis/BME280.cpp:322:29
	sxth	r2, r2
	.loc	14 327 34               @ /root/Bela/projects/Thesis/BME280.cpp:327:34
	sub	r1, r1, r2, lsl #3
	.loc	14 327 49 is_stmt 0     @ /root/Bela/projects/Thesis/BME280.cpp:327:49
	mov	r2, r9
	.loc	14 327 42               @ /root/Bela/projects/Thesis/BME280.cpp:327:42
	mla	r1, r1, r3, r7
	.loc	14 327 49               @ /root/Bela/projects/Thesis/BME280.cpp:327:49
	ldr	r3, [sp, #12]           @ 4-byte Reload
	bl	__aeabi_ldivmod
	.loc	14 317 22 is_stmt 1     @ /root/Bela/projects/Thesis/BME280.cpp:317:22
	ldrb	r2, [r5, #67]
	.loc	14 328 42               @ /root/Bela/projects/Thesis/BME280.cpp:328:42
	lsr	r7, r0, #13
	.loc	14 317 40               @ /root/Bela/projects/Thesis/BME280.cpp:317:40
	ldrb	r3, [r5, #66]
	.loc	14 328 42               @ /root/Bela/projects/Thesis/BME280.cpp:328:42
	orr	r7, r7, r1, lsl #19
	.loc	14 332 32               @ /root/Bela/projects/Thesis/BME280.cpp:332:32
	vldr	d17, .LCPI14_1
	.loc	14 317 38               @ /root/Bela/projects/Thesis/BME280.cpp:317:38
	orr	r2, r3, r2, lsl #8
	.loc	14 328 22               @ /root/Bela/projects/Thesis/BME280.cpp:328:22
	sxth	r2, r2
	.loc	14 328 30 is_stmt 0     @ /root/Bela/projects/Thesis/BME280.cpp:328:30
	umull	r3, r6, r7, r2
	.loc	14 328 22               @ /root/Bela/projects/Thesis/BME280.cpp:328:22
	asr	r4, r2, #31
	.loc	14 328 30               @ /root/Bela/projects/Thesis/BME280.cpp:328:30
	mla	r6, r7, r4, r6
	.loc	14 328 42               @ /root/Bela/projects/Thesis/BME280.cpp:328:42
	asr	r4, r1, #13
	.loc	14 328 30               @ /root/Bela/projects/Thesis/BME280.cpp:328:30
	mla	r12, r4, r2, r6
	.loc	14 316 22 is_stmt 1     @ /root/Bela/projects/Thesis/BME280.cpp:316:22
	ldrb	r6, [r5, #65]
	.loc	14 316 40 is_stmt 0     @ /root/Bela/projects/Thesis/BME280.cpp:316:40
	ldrb	r5, [r5, #64]
.Ltmp334:
	.loc	14 328 49 is_stmt 1     @ /root/Bela/projects/Thesis/BME280.cpp:328:49
	umull	lr, r2, r3, r7
	mla	r2, r3, r4, r2
	.loc	14 316 38               @ /root/Bela/projects/Thesis/BME280.cpp:316:38
	orr	r3, r5, r6, lsl #8
	.loc	14 329 22               @ /root/Bela/projects/Thesis/BME280.cpp:329:22
	sxth	r3, r3
	.loc	14 329 30 is_stmt 0     @ /root/Bela/projects/Thesis/BME280.cpp:329:30
	umull	r4, r5, r3, r0
	mla	r5, r3, r1, r5
	.loc	14 329 22               @ /root/Bela/projects/Thesis/BME280.cpp:329:22
	asr	r3, r3, #31
	.loc	14 328 49 is_stmt 1     @ /root/Bela/projects/Thesis/BME280.cpp:328:49
	mla	r2, r12, r7, r2
	.loc	14 328 69 is_stmt 0     @ /root/Bela/projects/Thesis/BME280.cpp:328:69
	lsr	r7, lr, #25
	.loc	14 329 30 is_stmt 1     @ /root/Bela/projects/Thesis/BME280.cpp:329:30
	mla	r3, r3, r0, r5
	.loc	14 329 42 is_stmt 0     @ /root/Bela/projects/Thesis/BME280.cpp:329:42
	lsr	r5, r4, #19
	.loc	14 328 69 is_stmt 1     @ /root/Bela/projects/Thesis/BME280.cpp:328:69
	orr	r7, r7, r2, lsl #7
	.loc	14 329 42               @ /root/Bela/projects/Thesis/BME280.cpp:329:42
	lsr	r6, r3, #19
	orr	r3, r5, r3, lsl #13
	.loc	14 330 26               @ /root/Bela/projects/Thesis/BME280.cpp:330:26
	adds	r0, r3, r0
	adc	r1, r6, r1
	.loc	14 330 33 is_stmt 0     @ /root/Bela/projects/Thesis/BME280.cpp:330:33
	adds	r0, r0, r7
	adc	r1, r1, r2, asr #25
	.loc	14 330 41               @ /root/Bela/projects/Thesis/BME280.cpp:330:41
	lsr	r0, r0, #8
	orr	r0, r0, r1, lsl #24
	.loc	14 330 60               @ /root/Bela/projects/Thesis/BME280.cpp:330:60
	ldr	r1, [sp, #16]           @ 4-byte Reload
	asr	r1, r1, #16
	.loc	14 330 47               @ /root/Bela/projects/Thesis/BME280.cpp:330:47
	add	r0, r0, r1, lsl #4
	.loc	14 332 12 is_stmt 1     @ /root/Bela/projects/Thesis/BME280.cpp:332:12
	vmov	s0, r0
	vcvt.f64.u32	d16, s0
	.loc	14 335 4                @ /root/Bela/projects/Thesis/BME280.cpp:335:4
	ldr	r0, [sp, #20]           @ 4-byte Reload
	sub	r0, r0, #1
	cmp	r0, #5
	.loc	14 332 32               @ /root/Bela/projects/Thesis/BME280.cpp:332:32
	vmul.f64	d16, d16, d17
	.loc	14 332 12 is_stmt 0     @ /root/Bela/projects/Thesis/BME280.cpp:332:12
	vcvt.f32.f64	s0, d16
.Ltmp335:
	@DEBUG_VALUE: CalculatePressure:final <- %S0
	bhi	.LBB14_12
.Ltmp336:
@ BB#2:
	@DEBUG_VALUE: CalculatePressure:final <- %S0
	adr	r1, .LJTI14_0
	lsl	r0, r0, #2
	ldr	pc, [r0, r1]
.Ltmp337:
@ BB#3:
	.p2align	2
.LJTI14_0:
	.long	.LBB14_4
	.long	.LBB14_6
	.long	.LBB14_7
	.long	.LBB14_8
	.long	.LBB14_9
	.long	.LBB14_10
.LBB14_4:
.Ltmp338:
	@DEBUG_VALUE: CalculatePressure:final <- %S0
	.loc	14 337 16 is_stmt 1     @ /root/Bela/projects/Thesis/BME280.cpp:337:16
	vcvt.f64.f32	d16, s0
	vldr	d17, .LCPI14_7
	b	.LBB14_11
.Ltmp339:
.LBB14_5:
	@DEBUG_VALUE: CalculatePressure:unit <- %R12
	@DEBUG_VALUE: CalculatePressure:this <- %R5
	@DEBUG_VALUE: CalculatePressure:raw <- %R1
	vldr	s0, .LCPI14_0
	.loc	14 358 1                @ /root/Bela/projects/Thesis/BME280.cpp:358:1
	sub	sp, r11, #28
	pop	{r4, r5, r6, r7, r8, r9, r10, r11, pc}
.Ltmp340:
.LBB14_6:
	@DEBUG_VALUE: CalculatePressure:final <- %S0
	.loc	14 340 16               @ /root/Bela/projects/Thesis/BME280.cpp:340:16
	vcvt.f64.f32	d16, s0
	vldr	d17, .LCPI14_6
	b	.LBB14_11
.Ltmp341:
.LBB14_7:
	@DEBUG_VALUE: CalculatePressure:final <- %S0
	.loc	14 343 16               @ /root/Bela/projects/Thesis/BME280.cpp:343:16
	vcvt.f64.f32	d16, s0
	vldr	d17, .LCPI14_5
	b	.LBB14_11
.Ltmp342:
.LBB14_8:
	@DEBUG_VALUE: CalculatePressure:final <- %S0
	.loc	14 346 16               @ /root/Bela/projects/Thesis/BME280.cpp:346:16
	vcvt.f64.f32	d16, s0
	vldr	d17, .LCPI14_4
	b	.LBB14_11
.Ltmp343:
.LBB14_9:
	@DEBUG_VALUE: CalculatePressure:final <- %S0
	.loc	14 349 16               @ /root/Bela/projects/Thesis/BME280.cpp:349:16
	vcvt.f64.f32	d16, s0
	vldr	d17, .LCPI14_3
	b	.LBB14_11
.Ltmp344:
.LBB14_10:
	@DEBUG_VALUE: CalculatePressure:final <- %S0
	.loc	14 352 16               @ /root/Bela/projects/Thesis/BME280.cpp:352:16
	vcvt.f64.f32	d16, s0
	vldr	d17, .LCPI14_2
.Ltmp345:
.LBB14_11:
	@DEBUG_VALUE: CalculatePressure:final <- %S0
	vmul.f64	d16, d16, d17
	vcvt.f32.f64	s0, d16
.Ltmp346:
	@DEBUG_VALUE: CalculatePressure:final <- %S0
.LBB14_12:
	@DEBUG_VALUE: CalculatePressure:final <- %S0
	.loc	14 358 1                @ /root/Bela/projects/Thesis/BME280.cpp:358:1
	sub	sp, r11, #28
	pop	{r4, r5, r6, r7, r8, r9, r10, r11, pc}
.Ltmp347:
	.p2align	3
@ BB#13:
.LCPI14_1:
	.long	0                       @ double 0.00390625
	.long	1064304640
.LCPI14_2:
	.long	4008727042              @ double 1.4503800000000017E-4
	.long	1059259050
.LCPI14_3:
	.long	2339367386              @ double 0.0075006170000002318
	.long	1065269495
.LCPI14_4:
	.long	2296604913              @ double 1.0000000000000001E-5
	.long	1055193269
.LCPI14_5:
	.long	174478791               @ double 9.8692328947364092E-6
	.long	1055175297
.LCPI14_6:
	.long	590455363               @ double 2.9530100000000145E-4
	.long	1060330068
.LCPI14_7:
	.long	1202590843              @ double 0.01
	.long	1065646817
.LCPI14_0:
	.long	2143289344              @ float NaN
.Lfunc_end14:
	.size	_ZN6BME28017CalculatePressureEiiNS_8PresUnitE, .Lfunc_end14-_ZN6BME28017CalculatePressureEiiNS_8PresUnitE
	.cfi_endproc
	.fnend

	.globl	_ZN6BME2804tempENS_8TempUnitE
	.p2align	3
	.type	_ZN6BME2804tempENS_8TempUnitE,%function
_ZN6BME2804tempENS_8TempUnitE:          @ @_ZN6BME2804tempENS_8TempUnitE
.Lfunc_begin15:
	.loc	14 366 0                @ /root/Bela/projects/Thesis/BME280.cpp:366:0
	.fnstart
	.cfi_startproc
@ BB#0:
	.save	{r4, r5, r6, r10, r11, lr}
	push	{r4, r5, r6, r10, r11, lr}
.Ltmp348:
	.cfi_def_cfa_offset 24
.Ltmp349:
	.cfi_offset lr, -4
.Ltmp350:
	.cfi_offset r11, -8
.Ltmp351:
	.cfi_offset r10, -12
.Ltmp352:
	.cfi_offset r6, -16
.Ltmp353:
	.cfi_offset r5, -20
.Ltmp354:
	.cfi_offset r4, -24
	.setfp	r11, sp, #16
	add	r11, sp, #16
.Ltmp355:
	.cfi_def_cfa r11, 8
	.pad	#32
	sub	sp, sp, #32
	@DEBUG_VALUE: temp:this <- %R0
	@DEBUG_VALUE: temp:unit <- %R1
	mov	r6, r1
.Ltmp356:
	@DEBUG_VALUE: temp:unit <- %R6
	mov	r1, sp
.Ltmp357:
	@DEBUG_VALUE: temp:data <- [%R1+0]
	mov	r5, r0
.Ltmp358:
	@DEBUG_VALUE: temp:this <- %R5
	.loc	14 369 8 prologue_end   @ /root/Bela/projects/Thesis/BME280.cpp:369:8
	bl	_ZN6BME2808ReadDataEPi
.Ltmp359:
	.loc	14 369 7 is_stmt 0      @ /root/Bela/projects/Thesis/BME280.cpp:369:7
	cmp	r0, #1
	bne	.LBB15_2
.Ltmp360:
@ BB#1:
	@DEBUG_VALUE: temp:this <- %R5
	@DEBUG_VALUE: temp:unit <- %R6
	@DEBUG_VALUE: CalculateTemperature:this <- %R5
	@DEBUG_VALUE: CalculateTemperature:raw <- %R0
	.loc	14 370 24 is_stmt 1     @ /root/Bela/projects/Thesis/BME280.cpp:370:24
	add	r2, sp, #12
.Ltmp361:
	.loc	14 265 67 discriminator 2 @ /root/Bela/projects/Thesis/BME280.cpp:265:67
	vldr	d17, .LCPI15_1
	.loc	14 265 43 is_stmt 0 discriminator 1 @ /root/Bela/projects/Thesis/BME280.cpp:265:43
	vldr	d18, .LCPI15_2
	.loc	14 265 11               @ /root/Bela/projects/Thesis/BME280.cpp:265:11
	cmp	r6, #0
.Ltmp362:
	.loc	14 370 24 is_stmt 1     @ /root/Bela/projects/Thesis/BME280.cpp:370:24
	ldm	r2, {r0, r1, r2}
.Ltmp363:
	.loc	14 258 40               @ /root/Bela/projects/Thesis/BME280.cpp:258:40
	ldr	r3, [r5, #44]
	.loc	14 258 23 is_stmt 0     @ /root/Bela/projects/Thesis/BME280.cpp:258:23
	ldrb	r4, [r5, #45]
.Ltmp364:
	.loc	14 370 50 is_stmt 1     @ /root/Bela/projects/Thesis/BME280.cpp:370:50
	lsl	r1, r1, #4
	.loc	14 370 39 is_stmt 0     @ /root/Bela/projects/Thesis/BME280.cpp:370:39
	orr	r0, r1, r0, lsl #12
.Ltmp365:
	.loc	14 265 72 is_stmt 1 discriminator 2 @ /root/Bela/projects/Thesis/BME280.cpp:265:72
	vldr	d19, .LCPI15_3
	.loc	14 258 40               @ /root/Bela/projects/Thesis/BME280.cpp:258:40
	uxtb	r1, r3
.Ltmp366:
	.loc	14 370 56               @ /root/Bela/projects/Thesis/BME280.cpp:370:56
	orr	r0, r0, r2, asr #4
.Ltmp367:
	@DEBUG_VALUE: temp:rawTemp <- %R0
	.loc	14 258 38               @ /root/Bela/projects/Thesis/BME280.cpp:258:38
	orr	r1, r1, r4, lsl #8
	.loc	14 260 22               @ /root/Bela/projects/Thesis/BME280.cpp:260:22
	ldrb	r4, [r5, #49]
	.loc	14 262 26               @ /root/Bela/projects/Thesis/BME280.cpp:262:26
	rsb	r2, r1, r0, asr #4
	.loc	14 261 19               @ /root/Bela/projects/Thesis/BME280.cpp:261:19
	asr	r0, r0, #3
.Ltmp368:
	.loc	14 261 25 is_stmt 0     @ /root/Bela/projects/Thesis/BME280.cpp:261:25
	sub	r0, r0, r1, lsl #1
	.loc	14 260 39 is_stmt 1     @ /root/Bela/projects/Thesis/BME280.cpp:260:39
	ldrb	r5, [r5, #48]
.Ltmp369:
	.loc	14 262 47               @ /root/Bela/projects/Thesis/BME280.cpp:262:47
	mul	r2, r2, r2
	.loc	14 261 64               @ /root/Bela/projects/Thesis/BME280.cpp:261:64
	asr	r1, r3, #16
	.loc	14 261 52 is_stmt 0     @ /root/Bela/projects/Thesis/BME280.cpp:261:52
	mul	r0, r0, r1
	.loc	14 262 83 is_stmt 1     @ /root/Bela/projects/Thesis/BME280.cpp:262:83
	lsr	r1, r2, #12
	.loc	14 260 37               @ /root/Bela/projects/Thesis/BME280.cpp:260:37
	orr	r2, r5, r4, lsl #8
	.loc	14 262 102              @ /root/Bela/projects/Thesis/BME280.cpp:262:102
	sxth	r2, r2
	.loc	14 262 90 is_stmt 0     @ /root/Bela/projects/Thesis/BME280.cpp:262:90
	mul	r1, r2, r1
	.loc	14 262 111              @ /root/Bela/projects/Thesis/BME280.cpp:262:111
	asr	r1, r1, #14
.Ltmp370:
	@DEBUG_VALUE: CalculateTemperature:var2 <- %R1
	.loc	14 263 18 is_stmt 1     @ /root/Bela/projects/Thesis/BME280.cpp:263:18
	add	r0, r1, r0, asr #11
	.loc	14 264 20               @ /root/Bela/projects/Thesis/BME280.cpp:264:20
	add	r0, r0, r0, lsl #2
	.loc	14 264 24 is_stmt 0     @ /root/Bela/projects/Thesis/BME280.cpp:264:24
	add	r0, r0, #128
	.loc	14 264 31               @ /root/Bela/projects/Thesis/BME280.cpp:264:31
	asr	r0, r0, #8
.Ltmp371:
	@DEBUG_VALUE: CalculateTemperature:final <- %R0
	.loc	14 265 38 is_stmt 1 discriminator 1 @ /root/Bela/projects/Thesis/BME280.cpp:265:38
	vmov	s0, r0
.Ltmp372:
	@DEBUG_VALUE: CalculateTemperature:final <- %S0
	vcvt.f64.s32	d16, s0
	.loc	14 265 67 is_stmt 0 discriminator 2 @ /root/Bela/projects/Thesis/BME280.cpp:265:67
	vmul.f64	d17, d16, d17
	.loc	14 265 43 discriminator 1 @ /root/Bela/projects/Thesis/BME280.cpp:265:43
	vmul.f64	d16, d16, d18
	.loc	14 265 72 discriminator 2 @ /root/Bela/projects/Thesis/BME280.cpp:265:72
	vadd.f64	d17, d17, d19
	.loc	14 265 11               @ /root/Bela/projects/Thesis/BME280.cpp:265:11
	vmoveq.f64	d17, d16
	.loc	14 265 11 discriminator 3 @ /root/Bela/projects/Thesis/BME280.cpp:265:11
	vcvt.f32.f64	s0, d17
.Ltmp373:
	@DEBUG_VALUE: CalculateTemperature:unit <- %R6
	.loc	14 372 1 is_stmt 1 discriminator 1 @ /root/Bela/projects/Thesis/BME280.cpp:372:1
	sub	sp, r11, #16
	pop	{r4, r5, r6, r10, r11, pc}
.Ltmp374:
.LBB15_2:
	@DEBUG_VALUE: temp:this <- %R5
	@DEBUG_VALUE: temp:unit <- %R6
	vldr	s0, .LCPI15_0
	sub	sp, r11, #16
	pop	{r4, r5, r6, r10, r11, pc}
.Ltmp375:
	.p2align	3
@ BB#3:
.LCPI15_1:
	.long	2370821947              @ double 0.017999999999999999
	.long	1066561175
.LCPI15_2:
	.long	1202590843              @ double 0.01
	.long	1065646817
.LCPI15_3:
	.long	0                       @ double 32
	.long	1077936128
.LCPI15_0:
	.long	2143289344              @ float NaN
.Lfunc_end15:
	.size	_ZN6BME2804tempENS_8TempUnitE, .Lfunc_end15-_ZN6BME2804tempENS_8TempUnitE
	.cfi_endproc
	.fnend

	.globl	_ZN6BME2804presENS_8PresUnitE
	.p2align	2
	.type	_ZN6BME2804presENS_8PresUnitE,%function
_ZN6BME2804presENS_8PresUnitE:          @ @_ZN6BME2804presENS_8PresUnitE
.Lfunc_begin16:
	.loc	14 380 0                @ /root/Bela/projects/Thesis/BME280.cpp:380:0
	.fnstart
	.cfi_startproc
@ BB#0:
	.save	{r4, r5, r6, r7, r11, lr}
	push	{r4, r5, r6, r7, r11, lr}
.Ltmp376:
	.cfi_def_cfa_offset 24
.Ltmp377:
	.cfi_offset lr, -4
.Ltmp378:
	.cfi_offset r11, -8
.Ltmp379:
	.cfi_offset r7, -12
.Ltmp380:
	.cfi_offset r6, -16
.Ltmp381:
	.cfi_offset r5, -20
.Ltmp382:
	.cfi_offset r4, -24
	.setfp	r11, sp, #16
	add	r11, sp, #16
.Ltmp383:
	.cfi_def_cfa r11, 8
	.pad	#32
	sub	sp, sp, #32
	@DEBUG_VALUE: pres:this <- %R0
	@DEBUG_VALUE: pres:unit <- %R1
	mov	r4, r1
.Ltmp384:
	@DEBUG_VALUE: pres:unit <- %R4
	mov	r1, sp
.Ltmp385:
	@DEBUG_VALUE: pres:data <- [%R1+0]
	mov	r5, r0
.Ltmp386:
	@DEBUG_VALUE: pres:this <- %R5
	.loc	14 383 8 prologue_end   @ /root/Bela/projects/Thesis/BME280.cpp:383:8
	bl	_ZN6BME2808ReadDataEPi
.Ltmp387:
	.loc	14 383 7 is_stmt 0      @ /root/Bela/projects/Thesis/BME280.cpp:383:7
	cmp	r0, #1
	bne	.LBB16_2
.Ltmp388:
@ BB#1:
	@DEBUG_VALUE: pres:this <- %R5
	@DEBUG_VALUE: pres:unit <- %R4
	.loc	14 384 42 is_stmt 1     @ /root/Bela/projects/Thesis/BME280.cpp:384:42
	ldr	r0, [sp, #16]
	.loc	14 385 28               @ /root/Bela/projects/Thesis/BME280.cpp:385:28
	ldr	r12, [sp]
	.loc	14 385 46 is_stmt 0     @ /root/Bela/projects/Thesis/BME280.cpp:385:46
	ldmib	sp, {r3, lr}
	.loc	14 384 50 is_stmt 1     @ /root/Bela/projects/Thesis/BME280.cpp:384:50
	lsl	r0, r0, #4
	.loc	14 384 24 is_stmt 0     @ /root/Bela/projects/Thesis/BME280.cpp:384:24
	ldr	r2, [sp, #12]
.Ltmp389:
	@DEBUG_VALUE: CalculateTemperature:this <- %R5
	@DEBUG_VALUE: CalculateTemperature:unit <- 0
	.loc	14 384 59               @ /root/Bela/projects/Thesis/BME280.cpp:384:59
	ldr	r1, [sp, #20]
.Ltmp390:
	.loc	14 258 40 is_stmt 1     @ /root/Bela/projects/Thesis/BME280.cpp:258:40
	ldr	r6, [r5, #44]
	.loc	14 258 23 is_stmt 0     @ /root/Bela/projects/Thesis/BME280.cpp:258:23
	ldrb	r7, [r5, #45]
.Ltmp391:
	.loc	14 384 39 is_stmt 1     @ /root/Bela/projects/Thesis/BME280.cpp:384:39
	orr	r0, r0, r2, lsl #12
	.loc	14 384 56 is_stmt 0     @ /root/Bela/projects/Thesis/BME280.cpp:384:56
	orr	r0, r0, r1, asr #4
.Ltmp392:
	@DEBUG_VALUE: pres:rawTemp <- %R0
	@DEBUG_VALUE: CalculateTemperature:raw <- %R0
	.loc	14 258 40 is_stmt 1     @ /root/Bela/projects/Thesis/BME280.cpp:258:40
	uxtb	r1, r6
	.loc	14 258 38 is_stmt 0     @ /root/Bela/projects/Thesis/BME280.cpp:258:38
	orr	r1, r1, r7, lsl #8
	.loc	14 260 22 is_stmt 1     @ /root/Bela/projects/Thesis/BME280.cpp:260:22
	ldrb	r7, [r5, #49]
	.loc	14 262 26               @ /root/Bela/projects/Thesis/BME280.cpp:262:26
	rsb	r2, r1, r0, asr #4
	.loc	14 261 19               @ /root/Bela/projects/Thesis/BME280.cpp:261:19
	asr	r0, r0, #3
.Ltmp393:
	.loc	14 261 25 is_stmt 0     @ /root/Bela/projects/Thesis/BME280.cpp:261:25
	sub	r0, r0, r1, lsl #1
	.loc	14 261 64               @ /root/Bela/projects/Thesis/BME280.cpp:261:64
	asr	r1, r6, #16
	.loc	14 262 47 is_stmt 1     @ /root/Bela/projects/Thesis/BME280.cpp:262:47
	mul	r2, r2, r2
	.loc	14 260 39               @ /root/Bela/projects/Thesis/BME280.cpp:260:39
	ldrb	r6, [r5, #48]
	.loc	14 261 52               @ /root/Bela/projects/Thesis/BME280.cpp:261:52
	mul	r0, r0, r1
	.loc	14 262 83               @ /root/Bela/projects/Thesis/BME280.cpp:262:83
	lsr	r1, r2, #12
	.loc	14 260 37               @ /root/Bela/projects/Thesis/BME280.cpp:260:37
	orr	r2, r6, r7, lsl #8
	.loc	14 262 102              @ /root/Bela/projects/Thesis/BME280.cpp:262:102
	sxth	r2, r2
	.loc	14 262 90 is_stmt 0     @ /root/Bela/projects/Thesis/BME280.cpp:262:90
	mul	r1, r2, r1
	.loc	14 262 111              @ /root/Bela/projects/Thesis/BME280.cpp:262:111
	asr	r1, r1, #14
.Ltmp394:
	@DEBUG_VALUE: CalculateTemperature:var2 <- %R1
	.loc	14 263 18 is_stmt 1     @ /root/Bela/projects/Thesis/BME280.cpp:263:18
	add	r2, r1, r0, asr #11
.Ltmp395:
	@DEBUG_VALUE: pres:t_fine <- %R2
	.loc	14 385 54               @ /root/Bela/projects/Thesis/BME280.cpp:385:54
	lsl	r0, r3, #4
	.loc	14 387 11               @ /root/Bela/projects/Thesis/BME280.cpp:387:11
	mov	r3, r4
	.loc	14 385 43               @ /root/Bela/projects/Thesis/BME280.cpp:385:43
	orr	r0, r0, r12, lsl #12
	.loc	14 385 60 is_stmt 0     @ /root/Bela/projects/Thesis/BME280.cpp:385:60
	orr	r1, r0, lr, asr #4
.Ltmp396:
	@DEBUG_VALUE: pres:rawPressure <- %R1
	.loc	14 387 11 is_stmt 1     @ /root/Bela/projects/Thesis/BME280.cpp:387:11
	mov	r0, r5
	bl	_ZN6BME28017CalculatePressureEiiNS_8PresUnitE
.Ltmp397:
	.loc	14 388 1 discriminator 1 @ /root/Bela/projects/Thesis/BME280.cpp:388:1
	sub	sp, r11, #16
	pop	{r4, r5, r6, r7, r11, pc}
.Ltmp398:
.LBB16_2:
	@DEBUG_VALUE: pres:this <- %R5
	@DEBUG_VALUE: pres:unit <- %R4
	vldr	s0, .LCPI16_0
	sub	sp, r11, #16
	pop	{r4, r5, r6, r7, r11, pc}
.Ltmp399:
	.p2align	2
@ BB#3:
.LCPI16_0:
	.long	2143289344              @ float NaN
.Lfunc_end16:
	.size	_ZN6BME2804presENS_8PresUnitE, .Lfunc_end16-_ZN6BME2804presENS_8PresUnitE
	.cfi_endproc
	.fnend

	.globl	_ZN6BME2803humEv
	.p2align	3
	.type	_ZN6BME2803humEv,%function
_ZN6BME2803humEv:                       @ @_ZN6BME2803humEv
.Lfunc_begin17:
	.loc	14 393 0                @ /root/Bela/projects/Thesis/BME280.cpp:393:0
	.fnstart
	.cfi_startproc
@ BB#0:
	.save	{r4, r5, r11, lr}
	push	{r4, r5, r11, lr}
.Ltmp400:
	.cfi_def_cfa_offset 16
.Ltmp401:
	.cfi_offset lr, -4
.Ltmp402:
	.cfi_offset r11, -8
.Ltmp403:
	.cfi_offset r5, -12
.Ltmp404:
	.cfi_offset r4, -16
	.setfp	r11, sp, #8
	add	r11, sp, #8
.Ltmp405:
	.cfi_def_cfa r11, 8
	.pad	#32
	sub	sp, sp, #32
	@DEBUG_VALUE: hum:this <- %R0
	mov	r1, sp
.Ltmp406:
	@DEBUG_VALUE: hum:data <- [%R1+0]
	mov	r4, r0
.Ltmp407:
	@DEBUG_VALUE: hum:this <- %R4
	.loc	14 396 8 prologue_end   @ /root/Bela/projects/Thesis/BME280.cpp:396:8
	bl	_ZN6BME2808ReadDataEPi
.Ltmp408:
	.loc	14 396 7 is_stmt 0      @ /root/Bela/projects/Thesis/BME280.cpp:396:7
	cmp	r0, #1
	bne	.LBB17_2
.Ltmp409:
@ BB#1:
	@DEBUG_VALUE: hum:this <- %R4
	.loc	14 397 42 is_stmt 1     @ /root/Bela/projects/Thesis/BME280.cpp:397:42
	add	r12, sp, #16
	.loc	14 397 24 is_stmt 0     @ /root/Bela/projects/Thesis/BME280.cpp:397:24
	ldr	lr, [sp, #12]
.Ltmp410:
	@DEBUG_VALUE: CalculateTemperature:this <- %R4
	@DEBUG_VALUE: CalculateTemperature:unit <- 0
	.loc	14 293 35 is_stmt 1     @ /root/Bela/projects/Thesis/BME280.cpp:293:35
	vldr	d17, .LCPI17_1
.Ltmp411:
	.loc	14 397 42               @ /root/Bela/projects/Thesis/BME280.cpp:397:42
	ldm	r12, {r2, r3, r12}
.Ltmp412:
	.loc	14 258 40               @ /root/Bela/projects/Thesis/BME280.cpp:258:40
	ldr	r0, [r4, #44]
.Ltmp413:
	.loc	14 397 50               @ /root/Bela/projects/Thesis/BME280.cpp:397:50
	lsl	r2, r2, #4
.Ltmp414:
	.loc	14 258 23               @ /root/Bela/projects/Thesis/BME280.cpp:258:23
	ldrb	r1, [r4, #45]
.Ltmp415:
	.loc	14 397 39               @ /root/Bela/projects/Thesis/BME280.cpp:397:39
	orr	r2, r2, lr, lsl #12
.Ltmp416:
	.loc	14 260 22               @ /root/Bela/projects/Thesis/BME280.cpp:260:22
	ldrb	lr, [r4, #49]
.Ltmp417:
	.loc	14 397 56               @ /root/Bela/projects/Thesis/BME280.cpp:397:56
	orr	r2, r2, r3, asr #4
.Ltmp418:
	@DEBUG_VALUE: hum:rawTemp <- %R2
	@DEBUG_VALUE: CalculateTemperature:raw <- %R2
	.loc	14 258 40               @ /root/Bela/projects/Thesis/BME280.cpp:258:40
	uxtb	r3, r0
	.loc	14 258 38 is_stmt 0     @ /root/Bela/projects/Thesis/BME280.cpp:258:38
	orr	r1, r3, r1, lsl #8
	.loc	14 260 39 is_stmt 1     @ /root/Bela/projects/Thesis/BME280.cpp:260:39
	ldrb	r5, [r4, #48]
	.loc	14 262 26               @ /root/Bela/projects/Thesis/BME280.cpp:262:26
	rsb	r3, r1, r2, asr #4
	.loc	14 261 19               @ /root/Bela/projects/Thesis/BME280.cpp:261:19
	asr	r2, r2, #3
.Ltmp419:
	.loc	14 261 25 is_stmt 0     @ /root/Bela/projects/Thesis/BME280.cpp:261:25
	sub	r1, r2, r1, lsl #1
	.loc	14 260 37 is_stmt 1     @ /root/Bela/projects/Thesis/BME280.cpp:260:37
	orr	r2, r5, lr, lsl #8
	.loc	14 262 47               @ /root/Bela/projects/Thesis/BME280.cpp:262:47
	mul	r3, r3, r3
	.loc	14 261 64               @ /root/Bela/projects/Thesis/BME280.cpp:261:64
	asr	r0, r0, #16
	.loc	14 262 102              @ /root/Bela/projects/Thesis/BME280.cpp:262:102
	sxth	r2, r2
	.loc	14 261 52               @ /root/Bela/projects/Thesis/BME280.cpp:261:52
	mul	r0, r1, r0
	.loc	14 262 83               @ /root/Bela/projects/Thesis/BME280.cpp:262:83
	lsr	r1, r3, #12
.Ltmp420:
	.loc	14 281 22               @ /root/Bela/projects/Thesis/BME280.cpp:281:22
	ldr	r3, [r4, #72]
.Ltmp421:
	.loc	14 262 90               @ /root/Bela/projects/Thesis/BME280.cpp:262:90
	mul	r2, r2, r1
.Ltmp422:
	@DEBUG_VALUE: CalculateHumidity:this <- %R4
	.loc	14 278 21               @ /root/Bela/projects/Thesis/BME280.cpp:278:21
	ldr	r1, [r4, #68]
.Ltmp423:
	.loc	14 261 73               @ /root/Bela/projects/Thesis/BME280.cpp:261:73
	asr	r0, r0, #11
.Ltmp424:
	@DEBUG_VALUE: CalculateTemperature:var1 <- %R0
	.loc	14 287 55               @ /root/Bela/projects/Thesis/BME280.cpp:287:55
	asr	r5, r3, #24
	.loc	14 288 30               @ /root/Bela/projects/Thesis/BME280.cpp:288:30
	mov	r4, #32768
.Ltmp425:
	.loc	14 263 18               @ /root/Bela/projects/Thesis/BME280.cpp:263:18
	add	r0, r0, r2, asr #14
.Ltmp426:
	.loc	14 280 21               @ /root/Bela/projects/Thesis/BME280.cpp:280:21
	lsr	r2, r1, #24
	.loc	14 285 19               @ /root/Bela/projects/Thesis/BME280.cpp:285:19
	sub	r0, r0, #76800
.Ltmp427:
	@DEBUG_VALUE: CalculateHumidity:var1 <- %R0
	.loc	14 287 81               @ /root/Bela/projects/Thesis/BME280.cpp:287:81
	mul	r2, r0, r2
	.loc	14 287 43 is_stmt 0     @ /root/Bela/projects/Thesis/BME280.cpp:287:43
	mul	r5, r0, r5
	.loc	14 288 30 is_stmt 1     @ /root/Bela/projects/Thesis/BME280.cpp:288:30
	add	r2, r4, r2, asr #11
	.loc	14 288 58 is_stmt 0     @ /root/Bela/projects/Thesis/BME280.cpp:288:58
	mov	r4, #2097152
	.loc	14 287 64 is_stmt 1     @ /root/Bela/projects/Thesis/BME280.cpp:287:64
	asr	r5, r5, #10
	.loc	14 287 71 is_stmt 0     @ /root/Bela/projects/Thesis/BME280.cpp:287:71
	mul	r2, r2, r5
.Ltmp428:
	.loc	14 398 44 is_stmt 1     @ /root/Bela/projects/Thesis/BME280.cpp:398:44
	ldr	r5, [sp, #28]
	.loc	14 398 42 is_stmt 0     @ /root/Bela/projects/Thesis/BME280.cpp:398:42
	orr	r5, r5, r12, lsl #8
.Ltmp429:
	@DEBUG_VALUE: hum:rawHumidity <- %R5
	@DEBUG_VALUE: CalculateHumidity:raw <- %R5
	.loc	14 288 58 is_stmt 1     @ /root/Bela/projects/Thesis/BME280.cpp:288:58
	add	lr, r4, r2, asr #10
	.loc	14 281 46               @ /root/Bela/projects/Thesis/BME280.cpp:281:46
	ubfx	r4, r3, #8, #4
	.loc	14 286 27               @ /root/Bela/projects/Thesis/BME280.cpp:286:27
	mov	r2, #16384
	.loc	14 281 38               @ /root/Bela/projects/Thesis/BME280.cpp:281:38
	orr	r4, r4, r3, lsl #4
	.loc	14 286 27               @ /root/Bela/projects/Thesis/BME280.cpp:286:27
	add	r2, r2, r5, lsl #14
	.loc	14 289 14               @ /root/Bela/projects/Thesis/BME280.cpp:289:14
	sbfx	r5, r1, #8, #16
.Ltmp430:
	.loc	14 282 38               @ /root/Bela/projects/Thesis/BME280.cpp:282:38
	ubfx	r3, r3, #12, #12
	.loc	14 286 55               @ /root/Bela/projects/Thesis/BME280.cpp:286:55
	sub	r2, r2, r4, lsl #20
	.loc	14 288 80               @ /root/Bela/projects/Thesis/BME280.cpp:288:80
	mul	r5, lr, r5
	.loc	14 290 70               @ /root/Bela/projects/Thesis/BME280.cpp:290:70
	uxtb	r1, r1
	.loc	14 286 85               @ /root/Bela/projects/Thesis/BME280.cpp:286:85
	mls	r0, r0, r3, r2
.Ltmp431:
	.loc	14 289 22               @ /root/Bela/projects/Thesis/BME280.cpp:289:22
	add	r2, r5, #8192
	.loc	14 289 30 is_stmt 0     @ /root/Bela/projects/Thesis/BME280.cpp:289:30
	asr	r2, r2, #14
	.loc	14 287 22 is_stmt 1     @ /root/Bela/projects/Thesis/BME280.cpp:287:22
	asr	r0, r0, #15
	.loc	14 287 29 is_stmt 0     @ /root/Bela/projects/Thesis/BME280.cpp:287:29
	mul	r0, r2, r0
.Ltmp432:
	@DEBUG_VALUE: CalculateHumidity:var1 <- %R0
	.loc	14 290 29 is_stmt 1     @ /root/Bela/projects/Thesis/BME280.cpp:290:29
	asr	r2, r0, #15
	.loc	14 290 36 is_stmt 0     @ /root/Bela/projects/Thesis/BME280.cpp:290:36
	mul	r2, r2, r2
	.loc	14 290 52               @ /root/Bela/projects/Thesis/BME280.cpp:290:52
	lsr	r2, r2, #7
	.loc	14 290 58               @ /root/Bela/projects/Thesis/BME280.cpp:290:58
	mul	r1, r2, r1
	.loc	14 290 17               @ /root/Bela/projects/Thesis/BME280.cpp:290:17
	sub	r0, r0, r1, lsr #4
.Ltmp433:
	.loc	14 291 12 is_stmt 1     @ /root/Bela/projects/Thesis/BME280.cpp:291:12
	cmp	r0, #0
	movwlt	r0, #0
	.loc	14 292 12               @ /root/Bela/projects/Thesis/BME280.cpp:292:12
	cmp	r0, #419430400
	movgt	r0, #419430400
	.loc	14 293 28               @ /root/Bela/projects/Thesis/BME280.cpp:293:28
	asr	r0, r0, #12
	.loc	14 293 11 is_stmt 0     @ /root/Bela/projects/Thesis/BME280.cpp:293:11
	vmov	s0, r0
	vcvt.f64.u32	d16, s0
	.loc	14 293 35               @ /root/Bela/projects/Thesis/BME280.cpp:293:35
	vmul.f64	d16, d16, d17
	.loc	14 293 11               @ /root/Bela/projects/Thesis/BME280.cpp:293:11
	vcvt.f32.f64	s0, d16
.Ltmp434:
	.loc	14 401 1 is_stmt 1 discriminator 1 @ /root/Bela/projects/Thesis/BME280.cpp:401:1
	sub	sp, r11, #8
	pop	{r4, r5, r11, pc}
.LBB17_2:
.Ltmp435:
	@DEBUG_VALUE: hum:this <- %R4
	vldr	s0, .LCPI17_0
	sub	sp, r11, #8
	pop	{r4, r5, r11, pc}
.Ltmp436:
	.p2align	3
@ BB#3:
.LCPI17_1:
	.long	0                       @ double 9.765625E-4
	.long	1062207488
.LCPI17_0:
	.long	2143289344              @ float NaN
.Lfunc_end17:
	.size	_ZN6BME2803humEv, .Lfunc_end17-_ZN6BME2803humEv
	.cfi_endproc
	.fnend

	.globl	_ZN6BME2809chipModelEv
	.p2align	2
	.type	_ZN6BME2809chipModelEv,%function
_ZN6BME2809chipModelEv:                 @ @_ZN6BME2809chipModelEv
.Lfunc_begin18:
	.loc	14 433 0                @ /root/Bela/projects/Thesis/BME280.cpp:433:0
	.fnstart
	.cfi_startproc
@ BB#0:
	@DEBUG_VALUE: chipModel:this <- %R0
	.loc	14 434 11 prologue_end  @ /root/Bela/projects/Thesis/BME280.cpp:434:11
	ldr	r0, [r0, #76]
.Ltmp437:
	.loc	14 434 4 is_stmt 0      @ /root/Bela/projects/Thesis/BME280.cpp:434:4
	bx	lr
.Ltmp438:
.Lfunc_end18:
	.size	_ZN6BME2809chipModelEv, .Lfunc_end18-_ZN6BME2809chipModelEv
	.cfi_endproc
	.fnend

	.section	.text._ZN3I2cD2Ev,"axG",%progbits,_ZN3I2cD2Ev,comdat
	.weak	_ZN3I2cD2Ev
	.p2align	2
	.type	_ZN3I2cD2Ev,%function
_ZN3I2cD2Ev:                            @ @_ZN3I2cD2Ev
.Lfunc_begin19:
	.loc	1 90 0 is_stmt 1        @ ./include/I2c.h:90:0
	.fnstart
	.cfi_startproc
@ BB#0:
	@DEBUG_VALUE: ~I2c:this <- %R0
	.loc	1 90 20 prologue_end    @ ./include/I2c.h:90:20
	bx	lr
.Ltmp439:
.Lfunc_end19:
	.size	_ZN3I2cD2Ev, .Lfunc_end19-_ZN3I2cD2Ev
	.cfi_endproc
	.fnend

	.section	.text._ZN6BME280D0Ev,"axG",%progbits,_ZN6BME280D0Ev,comdat
	.weak	_ZN6BME280D0Ev
	.p2align	2
	.type	_ZN6BME280D0Ev,%function
_ZN6BME280D0Ev:                         @ @_ZN6BME280D0Ev
.Lfunc_begin20:
	.loc	6 46 0                  @ /root/Bela/projects/Thesis/BME280.h:46:0
	.fnstart
	.cfi_startproc
@ BB#0:
	@DEBUG_VALUE: ~BME280:this <- %R0
	.loc	6 46 7 prologue_end discriminator 1 @ /root/Bela/projects/Thesis/BME280.h:46:7
	b	_ZdlPv
.Ltmp440:
.Lfunc_end20:
	.size	_ZN6BME280D0Ev, .Lfunc_end20-_ZN6BME280D0Ev
	.cfi_endproc
	.fnend

	.type	_ZTV6BME280,%object     @ @_ZTV6BME280
	.section	.rodata,"a",%progbits
	.globl	_ZTV6BME280
	.p2align	2
_ZTV6BME280:
	.long	0
	.long	_ZTI6BME280
	.long	_ZN3I2cD2Ev
	.long	_ZN6BME280D0Ev
	.long	_ZN6BME28010InitializeEv
	.long	_ZN6BME28011setSettingsERKNS_8SettingsE
	.long	_ZNK6BME28011getSettingsEv
	.long	__cxa_pure_virtual
	.long	__cxa_pure_virtual
	.size	_ZTV6BME280, 36

	.type	_ZTS6BME280,%object     @ @_ZTS6BME280
	.globl	_ZTS6BME280
_ZTS6BME280:
	.asciz	"6BME280"
	.size	_ZTS6BME280, 8

	.type	_ZTS3I2c,%object        @ @_ZTS3I2c
	.section	.rodata._ZTS3I2c,"aG",%progbits,_ZTS3I2c,comdat
	.weak	_ZTS3I2c
_ZTS3I2c:
	.asciz	"3I2c"
	.size	_ZTS3I2c, 5

	.type	_ZTI3I2c,%object        @ @_ZTI3I2c
	.section	.rodata._ZTI3I2c,"aG",%progbits,_ZTI3I2c,comdat
	.weak	_ZTI3I2c
	.p2align	2
_ZTI3I2c:
	.long	_ZTVN10__cxxabiv117__class_type_infoE+8
	.long	_ZTS3I2c
	.size	_ZTI3I2c, 8

	.type	_ZTI6BME280,%object     @ @_ZTI6BME280
	.section	.rodata,"a",%progbits
	.globl	_ZTI6BME280
	.p2align	2
_ZTI6BME280:
	.long	_ZTVN10__cxxabiv120__si_class_type_infoE+8
	.long	_ZTS6BME280
	.long	_ZTI3I2c
	.size	_ZTI6BME280, 12

	.file	15 "<stdin>"
	.section	".note.GNU-stack","",%progbits
	.eabi_attribute	30, 2	@ Tag_ABI_optimization_goals