	.text
	.syntax unified
	.eabi_attribute	67, "2.09"	@ Tag_conformance
	.cpu	cortex-a8
	.eabi_attribute	6, 10	@ Tag_CPU_arch
	.eabi_attribute	7, 65	@ Tag_CPU_arch_profile
	.eabi_attribute	8, 1	@ Tag_ARM_ISA_use
	.eabi_attribute	9, 2	@ Tag_THUMB_ISA_use
	.fpu	neon
	.eabi_attribute	17, 1	@ Tag_ABI_PCS_GOT_use
	.eabi_attribute	20, 2	@ Tag_ABI_FP_denormal
	.eabi_attribute	23, 1	@ Tag_ABI_FP_number_model
	.eabi_attribute	34, 1	@ Tag_CPU_unaligned_access
	.eabi_attribute	24, 1	@ Tag_ABI_align_needed
	.eabi_attribute	25, 1	@ Tag_ABI_align_preserved
	.eabi_attribute	28, 1	@ Tag_ABI_VFP_args
	.eabi_attribute	38, 1	@ Tag_ABI_FP_16bit_format
	.eabi_attribute	18, 4	@ Tag_ABI_PCS_wchar_t
	.eabi_attribute	26, 2	@ Tag_ABI_enum_size
	.eabi_attribute	14, 0	@ Tag_ABI_PCS_R9_use
	.eabi_attribute	68, 1	@ Tag_Virtualization_use
	.file	"/root/Bela/projects/Thesis/build/Filters.bc"
	.file	1 "./libraries/Biquad" "Biquad.h"
	.file	2 "/root/Bela/projects/Thesis" "Filters.cpp"
	.globl	_Z18initialize_filtersv
	.p2align	2
	.type	_Z18initialize_filtersv,%function
_Z18initialize_filtersv:                @ @_Z18initialize_filtersv
.Lfunc_begin0:
	.loc	2 25 0                  @ /root/Bela/projects/Thesis/Filters.cpp:25:0
	.fnstart
	.cfi_startproc
@ BB#0:
	.save	{r4, r5, r6, r7, r11, lr}
	push	{r4, r5, r6, r7, r11, lr}
.Ltmp0:
	.cfi_def_cfa_offset 24
.Ltmp1:
	.cfi_offset lr, -4
.Ltmp2:
	.cfi_offset r11, -8
.Ltmp3:
	.cfi_offset r7, -12
.Ltmp4:
	.cfi_offset r6, -16
.Ltmp5:
	.cfi_offset r5, -20
.Ltmp6:
	.cfi_offset r4, -24
	.setfp	r11, sp, #16
	add	r11, sp, #16
.Ltmp7:
	.cfi_def_cfa r11, 8
	.vsave	{d8, d9}
	vpush	{d8, d9}
.Ltmp8:
	.cfi_offset d9, -32
.Ltmp9:
	.cfi_offset d8, -40
.Ltmp10:
	.loc	2 29 10 prologue_end    @ /root/Bela/projects/Thesis/Filters.cpp:29:10
	movw	r4, :lower16:.L_MergedGlobals
.Ltmp11:
	.loc	1 59 12                 @ ./libraries/Biquad/Biquad.h:59:12
	movw	r5, #0
.Ltmp12:
	.loc	2 29 10                 @ /root/Bela/projects/Thesis/Filters.cpp:29:10
	movt	r4, :upper16:.L_MergedGlobals
.Ltmp13:
	.loc	1 55 8                  @ ./libraries/Biquad/Biquad.h:55:8
	add	r0, r4, #24
.Ltmp14:
	@DEBUG_VALUE: setup:this <- %R0
	.loc	2 30 14                 @ /root/Bela/projects/Thesis/Filters.cpp:30:14
	vldr	s0, [r4]
.Ltmp15:
	.loc	1 55 8                  @ ./libraries/Biquad/Biquad.h:55:8
	mov	r7, #2
.Ltmp16:
	.loc	2 29 10                 @ /root/Bela/projects/Thesis/Filters.cpp:29:10
	vldr	s4, [r4, #8]
.Ltmp17:
	.loc	1 59 12                 @ ./libraries/Biquad/Biquad.h:59:12
	movt	r5, #16412
.Ltmp18:
	.loc	2 30 14                 @ /root/Bela/projects/Thesis/Filters.cpp:30:14
	vcvt.f64.f32	d16, s0
	mov	r6, #0
	.loc	2 29 10                 @ /root/Bela/projects/Thesis/Filters.cpp:29:10
	vcvt.f64.f32	d8, s4
.Ltmp19:
	.loc	1 57 24                 @ ./libraries/Biquad/Biquad.h:57:24
	vdiv.f64	d16, d16, d8
.Ltmp20:
	.loc	2 32 9                  @ /root/Bela/projects/Thesis/Filters.cpp:32:9
	vldr	s2, [r4, #4]
.Ltmp21:
	.loc	1 55 8                  @ ./libraries/Biquad/Biquad.h:55:8
	str	r7, [r4, #96]
.Ltmp22:
	.loc	2 32 9                  @ /root/Bela/projects/Thesis/Filters.cpp:32:9
	vcvt.f64.f32	d9, s2
.Ltmp23:
	.loc	1 56 6                  @ ./libraries/Biquad/Biquad.h:56:6
	vstr	d8, [r4, #88]
	.loc	1 57 6                  @ ./libraries/Biquad/Biquad.h:57:6
	vstr	d16, [r4, #64]
	.loc	1 58 5                  @ ./libraries/Biquad/Biquad.h:58:5
	vstr	d9, [r4, #72]
	.loc	1 59 12                 @ ./libraries/Biquad/Biquad.h:59:12
	str	r5, [r4, #84]
	str	r6, [r4, #80]
	.loc	1 60 3                  @ ./libraries/Biquad/Biquad.h:60:3
	bl	_ZN12BiquadCoeffTIdE4calcEv
.Ltmp24:
	.loc	2 37 22                 @ /root/Bela/projects/Thesis/Filters.cpp:37:22
	vldr	s0, [r4]
.Ltmp25:
	.loc	1 55 8                  @ ./libraries/Biquad/Biquad.h:55:8
	movw	r0, :lower16:.L_MergedGlobals.1
	movt	r0, :upper16:.L_MergedGlobals.1
.Ltmp26:
	.loc	2 37 22                 @ /root/Bela/projects/Thesis/Filters.cpp:37:22
	vcvt.f64.f32	d16, s0
.Ltmp27:
	.loc	1 55 8                  @ ./libraries/Biquad/Biquad.h:55:8
	str	r7, [r0, #72]
	.loc	1 57 24                 @ ./libraries/Biquad/Biquad.h:57:24
	vdiv.f64	d16, d16, d8
	.loc	1 56 6                  @ ./libraries/Biquad/Biquad.h:56:6
	vstr	d8, [r0, #64]
	.loc	1 57 6                  @ ./libraries/Biquad/Biquad.h:57:6
	vstr	d16, [r0, #40]
	.loc	1 58 5                  @ ./libraries/Biquad/Biquad.h:58:5
	vstr	d9, [r0, #48]
	.loc	1 59 12                 @ ./libraries/Biquad/Biquad.h:59:12
	str	r5, [r0, #60]
	str	r6, [r0, #56]
	.loc	1 60 3                  @ ./libraries/Biquad/Biquad.h:60:3
	bl	_ZN12BiquadCoeffTIdE4calcEv
.Ltmp28:
	.loc	2 44 10                 @ /root/Bela/projects/Thesis/Filters.cpp:44:10
	vldr	s0, [r4, #8]
.Ltmp29:
	.loc	1 55 8                  @ ./libraries/Biquad/Biquad.h:55:8
	movw	r0, :lower16:.L_MergedGlobals.2
.Ltmp30:
	.loc	2 45 14                 @ /root/Bela/projects/Thesis/Filters.cpp:45:14
	vldr	s2, [r4, #12]
.Ltmp31:
	.loc	1 55 8                  @ ./libraries/Biquad/Biquad.h:55:8
	movt	r0, :upper16:.L_MergedGlobals.2
.Ltmp32:
	.loc	2 44 10                 @ /root/Bela/projects/Thesis/Filters.cpp:44:10
	vcvt.f64.f32	d8, s0
.Ltmp33:
	.loc	1 55 8                  @ ./libraries/Biquad/Biquad.h:55:8
	str	r6, [r0, #72]
.Ltmp34:
	.loc	2 45 14                 @ /root/Bela/projects/Thesis/Filters.cpp:45:14
	vcvt.f64.f32	d16, s2
.Ltmp35:
	.loc	1 57 24                 @ ./libraries/Biquad/Biquad.h:57:24
	vdiv.f64	d16, d16, d8
	.loc	1 56 6                  @ ./libraries/Biquad/Biquad.h:56:6
	vstr	d8, [r0, #64]
	.loc	1 57 6                  @ ./libraries/Biquad/Biquad.h:57:6
	vstr	d16, [r0, #40]
	.loc	1 58 5                  @ ./libraries/Biquad/Biquad.h:58:5
	str	r6, [r0, #52]
	str	r6, [r0, #48]
	.loc	1 59 12                 @ ./libraries/Biquad/Biquad.h:59:12
	str	r5, [r0, #60]
	str	r6, [r0, #56]
	.loc	1 60 3                  @ ./libraries/Biquad/Biquad.h:60:3
	bl	_ZN12BiquadCoeffTIdE4calcEv
.Ltmp36:
	.loc	2 52 22                 @ /root/Bela/projects/Thesis/Filters.cpp:52:22
	vldr	s0, [r4, #12]
.Ltmp37:
	.loc	1 55 8                  @ ./libraries/Biquad/Biquad.h:55:8
	movw	r0, :lower16:.L_MergedGlobals.3
	movt	r0, :upper16:.L_MergedGlobals.3
.Ltmp38:
	.loc	2 52 22                 @ /root/Bela/projects/Thesis/Filters.cpp:52:22
	vcvt.f64.f32	d16, s0
.Ltmp39:
	.loc	1 55 8                  @ ./libraries/Biquad/Biquad.h:55:8
	str	r6, [r0, #72]
	.loc	1 57 24                 @ ./libraries/Biquad/Biquad.h:57:24
	vdiv.f64	d16, d16, d8
	.loc	1 56 6                  @ ./libraries/Biquad/Biquad.h:56:6
	vstr	d8, [r0, #64]
	.loc	1 57 6                  @ ./libraries/Biquad/Biquad.h:57:6
	vstr	d16, [r0, #40]
	.loc	1 58 5                  @ ./libraries/Biquad/Biquad.h:58:5
	str	r6, [r0, #52]
	str	r6, [r0, #48]
	.loc	1 59 12                 @ ./libraries/Biquad/Biquad.h:59:12
	str	r5, [r0, #60]
	str	r6, [r0, #56]
	.loc	1 60 3                  @ ./libraries/Biquad/Biquad.h:60:3
	bl	_ZN12BiquadCoeffTIdE4calcEv
.Ltmp40:
	.loc	2 59 10                 @ /root/Bela/projects/Thesis/Filters.cpp:59:10
	vldr	s0, [r4, #8]
.Ltmp41:
	.loc	1 55 8                  @ ./libraries/Biquad/Biquad.h:55:8
	movw	r0, :lower16:.L_MergedGlobals.4
.Ltmp42:
	.loc	2 60 14                 @ /root/Bela/projects/Thesis/Filters.cpp:60:14
	vldr	s2, [r4, #16]
.Ltmp43:
	.loc	1 55 8                  @ ./libraries/Biquad/Biquad.h:55:8
	movt	r0, :upper16:.L_MergedGlobals.4
.Ltmp44:
	.loc	2 59 10                 @ /root/Bela/projects/Thesis/Filters.cpp:59:10
	vcvt.f64.f32	d8, s0
	mov	r7, #1
.Ltmp45:
	.loc	1 55 8                  @ ./libraries/Biquad/Biquad.h:55:8
	str	r7, [r0, #72]
.Ltmp46:
	.loc	2 60 14                 @ /root/Bela/projects/Thesis/Filters.cpp:60:14
	vcvt.f64.f32	d16, s2
.Ltmp47:
	.loc	1 57 24                 @ ./libraries/Biquad/Biquad.h:57:24
	vdiv.f64	d16, d16, d8
	.loc	1 56 6                  @ ./libraries/Biquad/Biquad.h:56:6
	vstr	d8, [r0, #64]
	.loc	1 57 6                  @ ./libraries/Biquad/Biquad.h:57:6
	vstr	d16, [r0, #40]
	.loc	1 58 5                  @ ./libraries/Biquad/Biquad.h:58:5
	str	r6, [r0, #52]
	str	r6, [r0, #48]
	.loc	1 59 12                 @ ./libraries/Biquad/Biquad.h:59:12
	str	r5, [r0, #60]
	str	r6, [r0, #56]
	.loc	1 60 3                  @ ./libraries/Biquad/Biquad.h:60:3
	bl	_ZN12BiquadCoeffTIdE4calcEv
.Ltmp48:
	.loc	2 67 22                 @ /root/Bela/projects/Thesis/Filters.cpp:67:22
	vldr	s0, [r4, #16]
.Ltmp49:
	.loc	1 55 8                  @ ./libraries/Biquad/Biquad.h:55:8
	movw	r0, :lower16:.L_MergedGlobals.5
	movt	r0, :upper16:.L_MergedGlobals.5
.Ltmp50:
	.loc	2 67 22                 @ /root/Bela/projects/Thesis/Filters.cpp:67:22
	vcvt.f64.f32	d16, s0
.Ltmp51:
	.loc	1 55 8                  @ ./libraries/Biquad/Biquad.h:55:8
	str	r7, [r0, #72]
	.loc	1 57 24                 @ ./libraries/Biquad/Biquad.h:57:24
	vdiv.f64	d16, d16, d8
.Ltmp52:
	@DEBUG_VALUE: setup:this <- %R0
	.loc	1 56 6                  @ ./libraries/Biquad/Biquad.h:56:6
	vstr	d8, [r0, #64]
	.loc	1 57 6                  @ ./libraries/Biquad/Biquad.h:57:6
	vstr	d16, [r0, #40]
	.loc	1 58 5                  @ ./libraries/Biquad/Biquad.h:58:5
	str	r6, [r0, #52]
	str	r6, [r0, #48]
	.loc	1 59 12                 @ ./libraries/Biquad/Biquad.h:59:12
	str	r5, [r0, #60]
	str	r6, [r0, #56]
	.loc	1 60 3                  @ ./libraries/Biquad/Biquad.h:60:3
	bl	_ZN12BiquadCoeffTIdE4calcEv
.Ltmp53:
	.loc	2 72 2                  @ /root/Bela/projects/Thesis/Filters.cpp:72:2
	mov	r0, #1
.Ltmp54:
	@DEBUG_VALUE: setup:this <- %R0
	@DEBUG_VALUE: setup:this <- %R0
	@DEBUG_VALUE: setup:this <- %R0
	@DEBUG_VALUE: setup:this <- %R0
	vpop	{d8, d9}
	pop	{r4, r5, r6, r7, r11, pc}
.Ltmp55:
.Lfunc_end0:
	.size	_Z18initialize_filtersv, .Lfunc_end0-_Z18initialize_filtersv
	.cfi_endproc
	.fnend

	.globl	_Z15render_bandpassff
	.p2align	2
	.type	_Z15render_bandpassff,%function
_Z15render_bandpassff:                  @ @_Z15render_bandpassff
.Lfunc_begin1:
	.loc	2 75 0                  @ /root/Bela/projects/Thesis/Filters.cpp:75:0
	.fnstart
	.cfi_startproc
@ BB#0:
	.save	{r4, r10, r11, lr}
	push	{r4, r10, r11, lr}
.Ltmp56:
	.cfi_def_cfa_offset 16
.Ltmp57:
	.cfi_offset lr, -4
.Ltmp58:
	.cfi_offset r11, -8
.Ltmp59:
	.cfi_offset r10, -12
.Ltmp60:
	.cfi_offset r4, -16
	.setfp	r11, sp, #8
	add	r11, sp, #8
.Ltmp61:
	.cfi_def_cfa r11, 8
	.vsave	{d8, d9}
	vpush	{d8, d9}
.Ltmp62:
	.cfi_offset d9, -24
.Ltmp63:
	.cfi_offset d8, -32
	@DEBUG_VALUE: render_bandpass:audio_l <- %S0
	@DEBUG_VALUE: render_bandpass:audio_r <- %S1
.Ltmp64:
	.loc	2 78 19 prologue_end    @ /root/Bela/projects/Thesis/Filters.cpp:78:19
	movw	r4, :lower16:.L_MergedGlobals
	vmov.f32	s18, s0
.Ltmp65:
	@DEBUG_VALUE: render_bandpass:audio_l <- %S18
	movt	r4, :upper16:.L_MergedGlobals
.Ltmp66:
	.loc	1 73 23                 @ ./libraries/Biquad/Biquad.h:73:23
	add	r0, r4, #24
.Ltmp67:
	@DEBUG_VALUE: process:this <- %R0
	@DEBUG_VALUE: setFc:this <- %R0
	.loc	2 78 19                 @ /root/Bela/projects/Thesis/Filters.cpp:78:19
	vldr	s0, [r4]
	vmov.f32	s16, s1
.Ltmp68:
	@DEBUG_VALUE: render_bandpass:audio_r <- %S16
	.loc	1 73 23                 @ ./libraries/Biquad/Biquad.h:73:23
	vldr	d17, [r4, #88]
.Ltmp69:
	.loc	2 78 19                 @ /root/Bela/projects/Thesis/Filters.cpp:78:19
	vcvt.f64.f32	d16, s0
.Ltmp70:
	@DEBUG_VALUE: setFc:Fc <- %D16
	.loc	1 73 16                 @ ./libraries/Biquad/Biquad.h:73:16
	vdiv.f64	d16, d16, d17
.Ltmp71:
	.loc	1 73 12 is_stmt 0       @ ./libraries/Biquad/Biquad.h:73:12
	vstr	d16, [r4, #64]
	.loc	1 74 3 is_stmt 1        @ ./libraries/Biquad/Biquad.h:74:3
	bl	_ZN12BiquadCoeffTIdE4calcEv
.Ltmp72:
	.loc	2 79 31                 @ /root/Bela/projects/Thesis/Filters.cpp:79:31
	vcvt.f64.f32	d16, s18
.Ltmp73:
	@DEBUG_VALUE: process:in <- %D16
	.loc	1 110 23                @ ./libraries/Biquad/Biquad.h:110:23
	vldr	d17, [r4, #24]
	.loc	1 111 13                @ ./libraries/Biquad/Biquad.h:111:13
	vldr	d18, [r4, #32]
	.loc	1 110 21                @ ./libraries/Biquad/Biquad.h:110:21
	vmul.f64	d17, d17, d16
	.loc	1 110 28 is_stmt 0      @ ./libraries/Biquad/Biquad.h:110:28
	vldr	d20, [r4, #104]
	.loc	1 111 11 is_stmt 1      @ ./libraries/Biquad/Biquad.h:111:11
	vmul.f64	d18, d18, d16
	.loc	1 110 26                @ ./libraries/Biquad/Biquad.h:110:26
	vadd.f64	d17, d17, d20
.Ltmp74:
	@DEBUG_VALUE: process:out <- %D17
	.loc	1 111 23                @ ./libraries/Biquad/Biquad.h:111:23
	vldr	d19, [r4, #48]
	.loc	1 111 18 is_stmt 0      @ ./libraries/Biquad/Biquad.h:111:18
	vldr	d21, [r4, #112]
	.loc	1 111 26                @ ./libraries/Biquad/Biquad.h:111:26
	vmul.f64	d19, d19, d17
	.loc	1 111 16                @ ./libraries/Biquad/Biquad.h:111:16
	vadd.f64	d18, d18, d21
	.loc	1 111 21                @ ./libraries/Biquad/Biquad.h:111:21
	vsub.f64	d18, d18, d19
	.loc	1 111 6                 @ ./libraries/Biquad/Biquad.h:111:6
	vstr	d18, [r4, #104]
	.loc	1 112 13 is_stmt 1      @ ./libraries/Biquad/Biquad.h:112:13
	vldr	d18, [r4, #40]
	.loc	1 112 18 is_stmt 0      @ ./libraries/Biquad/Biquad.h:112:18
	vldr	d19, [r4, #56]
	.loc	1 112 11                @ ./libraries/Biquad/Biquad.h:112:11
	vmul.f64	d16, d18, d16
.Ltmp75:
	.loc	1 112 21                @ ./libraries/Biquad/Biquad.h:112:21
	vmul.f64	d17, d19, d17
.Ltmp76:
	.loc	1 112 16                @ ./libraries/Biquad/Biquad.h:112:16
	vsub.f64	d16, d16, d17
	.loc	1 112 6                 @ ./libraries/Biquad/Biquad.h:112:6
	vstr	d16, [r4, #112]
.Ltmp77:
	.loc	2 81 19 is_stmt 1       @ /root/Bela/projects/Thesis/Filters.cpp:81:19
	vldr	s0, [r4]
.Ltmp78:
	.loc	1 73 23                 @ ./libraries/Biquad/Biquad.h:73:23
	movw	r4, :lower16:.L_MergedGlobals.1
	movt	r4, :upper16:.L_MergedGlobals.1
.Ltmp79:
	.loc	2 81 19                 @ /root/Bela/projects/Thesis/Filters.cpp:81:19
	vcvt.f64.f32	d16, s0
.Ltmp80:
	@DEBUG_VALUE: setFc:Fc <- %D16
	.loc	1 74 3                  @ ./libraries/Biquad/Biquad.h:74:3
	mov	r0, r4
	.loc	1 73 23                 @ ./libraries/Biquad/Biquad.h:73:23
	vldr	d17, [r4, #64]
	.loc	1 73 16 is_stmt 0       @ ./libraries/Biquad/Biquad.h:73:16
	vdiv.f64	d16, d16, d17
.Ltmp81:
	.loc	1 73 12                 @ ./libraries/Biquad/Biquad.h:73:12
	vstr	d16, [r4, #40]
	.loc	1 74 3 is_stmt 1        @ ./libraries/Biquad/Biquad.h:74:3
	bl	_ZN12BiquadCoeffTIdE4calcEv
.Ltmp82:
	.loc	2 82 31                 @ /root/Bela/projects/Thesis/Filters.cpp:82:31
	vcvt.f64.f32	d16, s16
.Ltmp83:
	@DEBUG_VALUE: process:in <- %D16
	.loc	1 110 23                @ ./libraries/Biquad/Biquad.h:110:23
	vldmia	r4, {d17, d18}
	.loc	1 110 21 is_stmt 0      @ ./libraries/Biquad/Biquad.h:110:21
	vmul.f64	d17, d17, d16
	.loc	1 110 28                @ ./libraries/Biquad/Biquad.h:110:28
	vldr	d20, [r4, #80]
	.loc	1 111 11 is_stmt 1      @ ./libraries/Biquad/Biquad.h:111:11
	vmul.f64	d18, d18, d16
	.loc	1 110 26                @ ./libraries/Biquad/Biquad.h:110:26
	vadd.f64	d17, d17, d20
.Ltmp84:
	@DEBUG_VALUE: process:out <- %D17
	.loc	1 111 23                @ ./libraries/Biquad/Biquad.h:111:23
	vldr	d19, [r4, #24]
	.loc	1 111 18 is_stmt 0      @ ./libraries/Biquad/Biquad.h:111:18
	vldr	d21, [r4, #88]
	.loc	1 111 26                @ ./libraries/Biquad/Biquad.h:111:26
	vmul.f64	d19, d19, d17
	.loc	1 111 16                @ ./libraries/Biquad/Biquad.h:111:16
	vadd.f64	d18, d18, d21
	.loc	1 111 21                @ ./libraries/Biquad/Biquad.h:111:21
	vsub.f64	d18, d18, d19
	.loc	1 111 6                 @ ./libraries/Biquad/Biquad.h:111:6
	vstr	d18, [r4, #80]
	.loc	1 112 13 is_stmt 1      @ ./libraries/Biquad/Biquad.h:112:13
	vldr	d18, [r4, #16]
	.loc	1 112 18 is_stmt 0      @ ./libraries/Biquad/Biquad.h:112:18
	vldr	d19, [r4, #32]
	.loc	1 112 11                @ ./libraries/Biquad/Biquad.h:112:11
	vmul.f64	d16, d18, d16
.Ltmp85:
	.loc	1 112 21                @ ./libraries/Biquad/Biquad.h:112:21
	vmul.f64	d17, d19, d17
.Ltmp86:
	.loc	1 112 16                @ ./libraries/Biquad/Biquad.h:112:16
	vsub.f64	d16, d16, d17
	.loc	1 112 6                 @ ./libraries/Biquad/Biquad.h:112:6
	vstr	d16, [r4, #88]
.Ltmp87:
	@DEBUG_VALUE: setFc:this <- %R4
	.loc	2 83 1 is_stmt 1        @ /root/Bela/projects/Thesis/Filters.cpp:83:1
	vpop	{d8, d9}
.Ltmp88:
	pop	{r4, r10, r11, pc}
.Ltmp89:
.Lfunc_end1:
	.size	_Z15render_bandpassff, .Lfunc_end1-_Z15render_bandpassff
	.cfi_endproc
	.fnend

	.globl	_Z14render_lowpassff
	.p2align	2
	.type	_Z14render_lowpassff,%function
_Z14render_lowpassff:                   @ @_Z14render_lowpassff
.Lfunc_begin2:
	.loc	2 85 0                  @ /root/Bela/projects/Thesis/Filters.cpp:85:0
	.fnstart
	.cfi_startproc
@ BB#0:
	.save	{r4, r5, r11, lr}
	push	{r4, r5, r11, lr}
.Ltmp90:
	.cfi_def_cfa_offset 16
.Ltmp91:
	.cfi_offset lr, -4
.Ltmp92:
	.cfi_offset r11, -8
.Ltmp93:
	.cfi_offset r5, -12
.Ltmp94:
	.cfi_offset r4, -16
	.setfp	r11, sp, #8
	add	r11, sp, #8
.Ltmp95:
	.cfi_def_cfa r11, 8
	.vsave	{d8, d9}
	vpush	{d8, d9}
.Ltmp96:
	.cfi_offset d9, -24
.Ltmp97:
	.cfi_offset d8, -32
	@DEBUG_VALUE: render_lowpass:audio_l <- %S0
	@DEBUG_VALUE: render_lowpass:audio_r <- %S1
.Ltmp98:
	.loc	2 88 18 prologue_end    @ /root/Bela/projects/Thesis/Filters.cpp:88:18
	movw	r5, :lower16:.L_MergedGlobals
	vmov.f32	s18, s0
.Ltmp99:
	@DEBUG_VALUE: render_lowpass:audio_l <- %S18
	movt	r5, :upper16:.L_MergedGlobals
.Ltmp100:
	.loc	1 73 23                 @ ./libraries/Biquad/Biquad.h:73:23
	movw	r4, :lower16:.L_MergedGlobals.2
.Ltmp101:
	.loc	2 88 18                 @ /root/Bela/projects/Thesis/Filters.cpp:88:18
	vldr	s0, [r5, #12]
.Ltmp102:
	.loc	1 73 23                 @ ./libraries/Biquad/Biquad.h:73:23
	movt	r4, :upper16:.L_MergedGlobals.2
	vldr	d17, [r4, #64]
	.loc	1 74 3                  @ ./libraries/Biquad/Biquad.h:74:3
	mov	r0, r4
.Ltmp103:
	.loc	2 88 18                 @ /root/Bela/projects/Thesis/Filters.cpp:88:18
	vcvt.f64.f32	d16, s0
.Ltmp104:
	@DEBUG_VALUE: setFc:Fc <- %D16
	.loc	1 73 16                 @ ./libraries/Biquad/Biquad.h:73:16
	vdiv.f64	d16, d16, d17
.Ltmp105:
	vmov.f32	s16, s1
.Ltmp106:
	@DEBUG_VALUE: render_lowpass:audio_r <- %S16
	.loc	1 73 12 is_stmt 0       @ ./libraries/Biquad/Biquad.h:73:12
	vstr	d16, [r4, #40]
	.loc	1 74 3 is_stmt 1        @ ./libraries/Biquad/Biquad.h:74:3
	bl	_ZN12BiquadCoeffTIdE4calcEv
.Ltmp107:
	.loc	2 89 30                 @ /root/Bela/projects/Thesis/Filters.cpp:89:30
	vcvt.f64.f32	d16, s18
.Ltmp108:
	@DEBUG_VALUE: process:in <- %D16
	.loc	1 110 23                @ ./libraries/Biquad/Biquad.h:110:23
	vldmia	r4, {d17, d18}
	.loc	1 110 21 is_stmt 0      @ ./libraries/Biquad/Biquad.h:110:21
	vmul.f64	d17, d17, d16
	.loc	1 110 28                @ ./libraries/Biquad/Biquad.h:110:28
	vldr	d20, [r4, #80]
	.loc	1 111 11 is_stmt 1      @ ./libraries/Biquad/Biquad.h:111:11
	vmul.f64	d18, d18, d16
	.loc	1 110 26                @ ./libraries/Biquad/Biquad.h:110:26
	vadd.f64	d17, d17, d20
.Ltmp109:
	@DEBUG_VALUE: process:out <- %D17
	.loc	1 111 23                @ ./libraries/Biquad/Biquad.h:111:23
	vldr	d19, [r4, #24]
	.loc	1 111 18 is_stmt 0      @ ./libraries/Biquad/Biquad.h:111:18
	vldr	d21, [r4, #88]
	.loc	1 111 26                @ ./libraries/Biquad/Biquad.h:111:26
	vmul.f64	d19, d19, d17
	.loc	1 111 16                @ ./libraries/Biquad/Biquad.h:111:16
	vadd.f64	d18, d18, d21
	.loc	1 111 21                @ ./libraries/Biquad/Biquad.h:111:21
	vsub.f64	d18, d18, d19
	.loc	1 111 6                 @ ./libraries/Biquad/Biquad.h:111:6
	vstr	d18, [r4, #80]
	.loc	1 112 13 is_stmt 1      @ ./libraries/Biquad/Biquad.h:112:13
	vldr	d18, [r4, #16]
	.loc	1 112 18 is_stmt 0      @ ./libraries/Biquad/Biquad.h:112:18
	vldr	d19, [r4, #32]
	.loc	1 112 11                @ ./libraries/Biquad/Biquad.h:112:11
	vmul.f64	d16, d18, d16
.Ltmp110:
	.loc	1 112 21                @ ./libraries/Biquad/Biquad.h:112:21
	vmul.f64	d17, d19, d17
.Ltmp111:
	.loc	1 112 16                @ ./libraries/Biquad/Biquad.h:112:16
	vsub.f64	d16, d16, d17
.Ltmp112:
	.loc	2 91 18 is_stmt 1       @ /root/Bela/projects/Thesis/Filters.cpp:91:18
	vldr	s0, [r5, #12]
.Ltmp113:
	.loc	1 112 6                 @ ./libraries/Biquad/Biquad.h:112:6
	vstr	d16, [r4, #88]
.Ltmp114:
	.loc	1 73 23                 @ ./libraries/Biquad/Biquad.h:73:23
	movw	r4, :lower16:.L_MergedGlobals.3
.Ltmp115:
	.loc	2 91 18                 @ /root/Bela/projects/Thesis/Filters.cpp:91:18
	vcvt.f64.f32	d16, s0
.Ltmp116:
	@DEBUG_VALUE: setFc:Fc <- %D16
	.loc	1 73 23                 @ ./libraries/Biquad/Biquad.h:73:23
	movt	r4, :upper16:.L_MergedGlobals.3
	.loc	1 74 3                  @ ./libraries/Biquad/Biquad.h:74:3
	mov	r0, r4
	.loc	1 73 23                 @ ./libraries/Biquad/Biquad.h:73:23
	vldr	d17, [r4, #64]
	.loc	1 73 16 is_stmt 0       @ ./libraries/Biquad/Biquad.h:73:16
	vdiv.f64	d16, d16, d17
.Ltmp117:
	.loc	1 73 12                 @ ./libraries/Biquad/Biquad.h:73:12
	vstr	d16, [r4, #40]
	.loc	1 74 3 is_stmt 1        @ ./libraries/Biquad/Biquad.h:74:3
	bl	_ZN12BiquadCoeffTIdE4calcEv
.Ltmp118:
	.loc	2 92 30                 @ /root/Bela/projects/Thesis/Filters.cpp:92:30
	vcvt.f64.f32	d16, s16
.Ltmp119:
	@DEBUG_VALUE: process:in <- %D16
	.loc	1 110 23                @ ./libraries/Biquad/Biquad.h:110:23
	vldmia	r4, {d17, d18}
	.loc	1 110 21 is_stmt 0      @ ./libraries/Biquad/Biquad.h:110:21
	vmul.f64	d17, d17, d16
	.loc	1 110 28                @ ./libraries/Biquad/Biquad.h:110:28
	vldr	d20, [r4, #80]
	.loc	1 111 11 is_stmt 1      @ ./libraries/Biquad/Biquad.h:111:11
	vmul.f64	d18, d18, d16
	.loc	1 110 26                @ ./libraries/Biquad/Biquad.h:110:26
	vadd.f64	d17, d17, d20
.Ltmp120:
	@DEBUG_VALUE: process:out <- %D17
	.loc	1 111 23                @ ./libraries/Biquad/Biquad.h:111:23
	vldr	d19, [r4, #24]
	.loc	1 111 18 is_stmt 0      @ ./libraries/Biquad/Biquad.h:111:18
	vldr	d21, [r4, #88]
	.loc	1 111 26                @ ./libraries/Biquad/Biquad.h:111:26
	vmul.f64	d19, d19, d17
	.loc	1 111 16                @ ./libraries/Biquad/Biquad.h:111:16
	vadd.f64	d18, d18, d21
	.loc	1 111 21                @ ./libraries/Biquad/Biquad.h:111:21
	vsub.f64	d18, d18, d19
	.loc	1 111 6                 @ ./libraries/Biquad/Biquad.h:111:6
	vstr	d18, [r4, #80]
	.loc	1 112 13 is_stmt 1      @ ./libraries/Biquad/Biquad.h:112:13
	vldr	d18, [r4, #16]
	.loc	1 112 18 is_stmt 0      @ ./libraries/Biquad/Biquad.h:112:18
	vldr	d19, [r4, #32]
	.loc	1 112 11                @ ./libraries/Biquad/Biquad.h:112:11
	vmul.f64	d16, d18, d16
.Ltmp121:
	.loc	1 112 21                @ ./libraries/Biquad/Biquad.h:112:21
	vmul.f64	d17, d19, d17
.Ltmp122:
	.loc	1 112 16                @ ./libraries/Biquad/Biquad.h:112:16
	vsub.f64	d16, d16, d17
	.loc	1 112 6                 @ ./libraries/Biquad/Biquad.h:112:6
	vstr	d16, [r4, #88]
.Ltmp123:
	@DEBUG_VALUE: setFc:this <- %R4
	@DEBUG_VALUE: setFc:this <- %R4
	.loc	2 93 1 is_stmt 1        @ /root/Bela/projects/Thesis/Filters.cpp:93:1
	vpop	{d8, d9}
.Ltmp124:
	pop	{r4, r5, r11, pc}
.Ltmp125:
.Lfunc_end2:
	.size	_Z14render_lowpassff, .Lfunc_end2-_Z14render_lowpassff
	.cfi_endproc
	.fnend

	.globl	_Z15render_highpassff
	.p2align	2
	.type	_Z15render_highpassff,%function
_Z15render_highpassff:                  @ @_Z15render_highpassff
.Lfunc_begin3:
	.loc	2 95 0                  @ /root/Bela/projects/Thesis/Filters.cpp:95:0
	.fnstart
	.cfi_startproc
@ BB#0:
	.save	{r4, r5, r11, lr}
	push	{r4, r5, r11, lr}
.Ltmp126:
	.cfi_def_cfa_offset 16
.Ltmp127:
	.cfi_offset lr, -4
.Ltmp128:
	.cfi_offset r11, -8
.Ltmp129:
	.cfi_offset r5, -12
.Ltmp130:
	.cfi_offset r4, -16
	.setfp	r11, sp, #8
	add	r11, sp, #8
.Ltmp131:
	.cfi_def_cfa r11, 8
	.vsave	{d8, d9}
	vpush	{d8, d9}
.Ltmp132:
	.cfi_offset d9, -24
.Ltmp133:
	.cfi_offset d8, -32
	@DEBUG_VALUE: render_highpass:audio_l <- %S0
	@DEBUG_VALUE: render_highpass:audio_r <- %S1
.Ltmp134:
	.loc	2 98 19 prologue_end    @ /root/Bela/projects/Thesis/Filters.cpp:98:19
	movw	r5, :lower16:.L_MergedGlobals
	vmov.f32	s18, s0
.Ltmp135:
	@DEBUG_VALUE: render_highpass:audio_l <- %S18
	movt	r5, :upper16:.L_MergedGlobals
.Ltmp136:
	.loc	1 73 23                 @ ./libraries/Biquad/Biquad.h:73:23
	movw	r4, :lower16:.L_MergedGlobals.4
.Ltmp137:
	.loc	2 98 19                 @ /root/Bela/projects/Thesis/Filters.cpp:98:19
	vldr	s0, [r5, #16]
.Ltmp138:
	.loc	1 73 23                 @ ./libraries/Biquad/Biquad.h:73:23
	movt	r4, :upper16:.L_MergedGlobals.4
	vldr	d17, [r4, #64]
	.loc	1 74 3                  @ ./libraries/Biquad/Biquad.h:74:3
	mov	r0, r4
.Ltmp139:
	.loc	2 98 19                 @ /root/Bela/projects/Thesis/Filters.cpp:98:19
	vcvt.f64.f32	d16, s0
.Ltmp140:
	@DEBUG_VALUE: setFc:Fc <- %D16
	.loc	1 73 16                 @ ./libraries/Biquad/Biquad.h:73:16
	vdiv.f64	d16, d16, d17
.Ltmp141:
	vmov.f32	s16, s1
.Ltmp142:
	@DEBUG_VALUE: render_highpass:audio_r <- %S16
	.loc	1 73 12 is_stmt 0       @ ./libraries/Biquad/Biquad.h:73:12
	vstr	d16, [r4, #40]
	.loc	1 74 3 is_stmt 1        @ ./libraries/Biquad/Biquad.h:74:3
	bl	_ZN12BiquadCoeffTIdE4calcEv
.Ltmp143:
	.loc	2 99 31                 @ /root/Bela/projects/Thesis/Filters.cpp:99:31
	vcvt.f64.f32	d16, s18
.Ltmp144:
	@DEBUG_VALUE: process:in <- %D16
	.loc	1 110 23                @ ./libraries/Biquad/Biquad.h:110:23
	vldmia	r4, {d17, d18}
	.loc	1 110 21 is_stmt 0      @ ./libraries/Biquad/Biquad.h:110:21
	vmul.f64	d17, d17, d16
	.loc	1 110 28                @ ./libraries/Biquad/Biquad.h:110:28
	vldr	d20, [r4, #80]
	.loc	1 111 11 is_stmt 1      @ ./libraries/Biquad/Biquad.h:111:11
	vmul.f64	d18, d18, d16
	.loc	1 110 26                @ ./libraries/Biquad/Biquad.h:110:26
	vadd.f64	d17, d17, d20
.Ltmp145:
	@DEBUG_VALUE: process:out <- %D17
	.loc	1 111 23                @ ./libraries/Biquad/Biquad.h:111:23
	vldr	d19, [r4, #24]
	.loc	1 111 18 is_stmt 0      @ ./libraries/Biquad/Biquad.h:111:18
	vldr	d21, [r4, #88]
	.loc	1 111 26                @ ./libraries/Biquad/Biquad.h:111:26
	vmul.f64	d19, d19, d17
	.loc	1 111 16                @ ./libraries/Biquad/Biquad.h:111:16
	vadd.f64	d18, d18, d21
	.loc	1 111 21                @ ./libraries/Biquad/Biquad.h:111:21
	vsub.f64	d18, d18, d19
	.loc	1 111 6                 @ ./libraries/Biquad/Biquad.h:111:6
	vstr	d18, [r4, #80]
	.loc	1 112 13 is_stmt 1      @ ./libraries/Biquad/Biquad.h:112:13
	vldr	d18, [r4, #16]
	.loc	1 112 18 is_stmt 0      @ ./libraries/Biquad/Biquad.h:112:18
	vldr	d19, [r4, #32]
	.loc	1 112 11                @ ./libraries/Biquad/Biquad.h:112:11
	vmul.f64	d16, d18, d16
.Ltmp146:
	.loc	1 112 21                @ ./libraries/Biquad/Biquad.h:112:21
	vmul.f64	d17, d19, d17
.Ltmp147:
	.loc	1 112 16                @ ./libraries/Biquad/Biquad.h:112:16
	vsub.f64	d16, d16, d17
.Ltmp148:
	.loc	2 101 19 is_stmt 1      @ /root/Bela/projects/Thesis/Filters.cpp:101:19
	vldr	s0, [r5, #16]
.Ltmp149:
	.loc	1 112 6                 @ ./libraries/Biquad/Biquad.h:112:6
	vstr	d16, [r4, #88]
.Ltmp150:
	.loc	1 73 23                 @ ./libraries/Biquad/Biquad.h:73:23
	movw	r4, :lower16:.L_MergedGlobals.5
.Ltmp151:
	.loc	2 101 19                @ /root/Bela/projects/Thesis/Filters.cpp:101:19
	vcvt.f64.f32	d16, s0
.Ltmp152:
	@DEBUG_VALUE: setFc:Fc <- %D16
	.loc	1 73 23                 @ ./libraries/Biquad/Biquad.h:73:23
	movt	r4, :upper16:.L_MergedGlobals.5
	.loc	1 74 3                  @ ./libraries/Biquad/Biquad.h:74:3
	mov	r0, r4
	.loc	1 73 23                 @ ./libraries/Biquad/Biquad.h:73:23
	vldr	d17, [r4, #64]
	.loc	1 73 16 is_stmt 0       @ ./libraries/Biquad/Biquad.h:73:16
	vdiv.f64	d16, d16, d17
.Ltmp153:
	.loc	1 73 12                 @ ./libraries/Biquad/Biquad.h:73:12
	vstr	d16, [r4, #40]
	.loc	1 74 3 is_stmt 1        @ ./libraries/Biquad/Biquad.h:74:3
	bl	_ZN12BiquadCoeffTIdE4calcEv
.Ltmp154:
	.loc	2 102 31                @ /root/Bela/projects/Thesis/Filters.cpp:102:31
	vcvt.f64.f32	d16, s16
.Ltmp155:
	@DEBUG_VALUE: process:in <- %D16
	.loc	1 110 23                @ ./libraries/Biquad/Biquad.h:110:23
	vldmia	r4, {d17, d18}
	.loc	1 110 21 is_stmt 0      @ ./libraries/Biquad/Biquad.h:110:21
	vmul.f64	d17, d17, d16
	.loc	1 110 28                @ ./libraries/Biquad/Biquad.h:110:28
	vldr	d20, [r4, #80]
	.loc	1 111 11 is_stmt 1      @ ./libraries/Biquad/Biquad.h:111:11
	vmul.f64	d18, d18, d16
	.loc	1 110 26                @ ./libraries/Biquad/Biquad.h:110:26
	vadd.f64	d17, d17, d20
.Ltmp156:
	@DEBUG_VALUE: process:out <- %D17
	.loc	1 111 23                @ ./libraries/Biquad/Biquad.h:111:23
	vldr	d19, [r4, #24]
	.loc	1 111 18 is_stmt 0      @ ./libraries/Biquad/Biquad.h:111:18
	vldr	d21, [r4, #88]
	.loc	1 111 26                @ ./libraries/Biquad/Biquad.h:111:26
	vmul.f64	d19, d19, d17
	.loc	1 111 16                @ ./libraries/Biquad/Biquad.h:111:16
	vadd.f64	d18, d18, d21
	.loc	1 111 21                @ ./libraries/Biquad/Biquad.h:111:21
	vsub.f64	d18, d18, d19
	.loc	1 111 6                 @ ./libraries/Biquad/Biquad.h:111:6
	vstr	d18, [r4, #80]
	.loc	1 112 13 is_stmt 1      @ ./libraries/Biquad/Biquad.h:112:13
	vldr	d18, [r4, #16]
	.loc	1 112 18 is_stmt 0      @ ./libraries/Biquad/Biquad.h:112:18
	vldr	d19, [r4, #32]
	.loc	1 112 11                @ ./libraries/Biquad/Biquad.h:112:11
	vmul.f64	d16, d18, d16
.Ltmp157:
	.loc	1 112 21                @ ./libraries/Biquad/Biquad.h:112:21
	vmul.f64	d17, d19, d17
.Ltmp158:
	.loc	1 112 16                @ ./libraries/Biquad/Biquad.h:112:16
	vsub.f64	d16, d16, d17
	.loc	1 112 6                 @ ./libraries/Biquad/Biquad.h:112:6
	vstr	d16, [r4, #88]
.Ltmp159:
	@DEBUG_VALUE: setFc:this <- %R4
	@DEBUG_VALUE: setFc:this <- %R4
	.loc	2 103 1 is_stmt 1       @ /root/Bela/projects/Thesis/Filters.cpp:103:1
	vpop	{d8, d9}
.Ltmp160:
	pop	{r4, r5, r11, pc}
.Ltmp161:
.Lfunc_end3:
	.size	_Z15render_highpassff, .Lfunc_end3-_Z15render_highpassff
	.cfi_endproc
	.fnend

	.globl	_Z21render_lowandhighpassff
	.p2align	2
	.type	_Z21render_lowandhighpassff,%function
_Z21render_lowandhighpassff:            @ @_Z21render_lowandhighpassff
.Lfunc_begin4:
	.loc	2 105 0                 @ /root/Bela/projects/Thesis/Filters.cpp:105:0
	.fnstart
	.cfi_startproc
@ BB#0:
	.save	{r4, r5, r6, r10, r11, lr}
	push	{r4, r5, r6, r10, r11, lr}
.Ltmp162:
	.cfi_def_cfa_offset 24
.Ltmp163:
	.cfi_offset lr, -4
.Ltmp164:
	.cfi_offset r11, -8
.Ltmp165:
	.cfi_offset r10, -12
.Ltmp166:
	.cfi_offset r6, -16
.Ltmp167:
	.cfi_offset r5, -20
.Ltmp168:
	.cfi_offset r4, -24
	.setfp	r11, sp, #16
	add	r11, sp, #16
.Ltmp169:
	.cfi_def_cfa r11, 8
	.vsave	{d8, d9}
	vpush	{d8, d9}
.Ltmp170:
	.cfi_offset d9, -32
.Ltmp171:
	.cfi_offset d8, -40
	@DEBUG_VALUE: render_lowandhighpass:audio_l <- %S0
	@DEBUG_VALUE: render_lowandhighpass:audio_r <- %S1
.Ltmp172:
	.loc	2 108 19 prologue_end   @ /root/Bela/projects/Thesis/Filters.cpp:108:19
	movw	r6, :lower16:.L_MergedGlobals
	vmov.f32	s18, s0
.Ltmp173:
	@DEBUG_VALUE: render_lowandhighpass:audio_l <- %S18
	movt	r6, :upper16:.L_MergedGlobals
.Ltmp174:
	.loc	1 73 23                 @ ./libraries/Biquad/Biquad.h:73:23
	movw	r5, :lower16:.L_MergedGlobals.4
.Ltmp175:
	.loc	2 108 19                @ /root/Bela/projects/Thesis/Filters.cpp:108:19
	vldr	s0, [r6, #16]
.Ltmp176:
	.loc	1 73 23                 @ ./libraries/Biquad/Biquad.h:73:23
	movt	r5, :upper16:.L_MergedGlobals.4
	vldr	d17, [r5, #64]
	.loc	1 74 3                  @ ./libraries/Biquad/Biquad.h:74:3
	mov	r0, r5
.Ltmp177:
	.loc	2 108 19                @ /root/Bela/projects/Thesis/Filters.cpp:108:19
	vcvt.f64.f32	d16, s0
.Ltmp178:
	@DEBUG_VALUE: setFc:Fc <- %D16
	.loc	1 73 16                 @ ./libraries/Biquad/Biquad.h:73:16
	vdiv.f64	d16, d16, d17
.Ltmp179:
	vmov.f32	s16, s1
.Ltmp180:
	@DEBUG_VALUE: render_lowandhighpass:audio_r <- %S16
	.loc	1 73 12 is_stmt 0       @ ./libraries/Biquad/Biquad.h:73:12
	vstr	d16, [r5, #40]
	.loc	1 74 3 is_stmt 1        @ ./libraries/Biquad/Biquad.h:74:3
	bl	_ZN12BiquadCoeffTIdE4calcEv
.Ltmp181:
	.loc	2 109 18                @ /root/Bela/projects/Thesis/Filters.cpp:109:18
	vldr	s0, [r6, #12]
.Ltmp182:
	.loc	1 73 23                 @ ./libraries/Biquad/Biquad.h:73:23
	movw	r4, :lower16:.L_MergedGlobals.2
	movt	r4, :upper16:.L_MergedGlobals.2
.Ltmp183:
	.loc	2 109 18                @ /root/Bela/projects/Thesis/Filters.cpp:109:18
	vcvt.f64.f32	d16, s0
.Ltmp184:
	@DEBUG_VALUE: setFc:Fc <- %D16
	.loc	1 74 3                  @ ./libraries/Biquad/Biquad.h:74:3
	mov	r0, r4
	.loc	1 73 23                 @ ./libraries/Biquad/Biquad.h:73:23
	vldr	d17, [r4, #64]
	.loc	1 73 16 is_stmt 0       @ ./libraries/Biquad/Biquad.h:73:16
	vdiv.f64	d16, d16, d17
.Ltmp185:
	.loc	1 73 12                 @ ./libraries/Biquad/Biquad.h:73:12
	vstr	d16, [r4, #40]
	.loc	1 74 3 is_stmt 1        @ ./libraries/Biquad/Biquad.h:74:3
	bl	_ZN12BiquadCoeffTIdE4calcEv
.Ltmp186:
	.loc	2 110 31                @ /root/Bela/projects/Thesis/Filters.cpp:110:31
	vcvt.f64.f32	d16, s18
.Ltmp187:
	@DEBUG_VALUE: process:in <- %D16
	.loc	1 110 23 is_stmt 0      @ ./libraries/Biquad/Biquad.h:110:23
	vldmia	r5, {d17, d18}
	.loc	1 110 21                @ ./libraries/Biquad/Biquad.h:110:21
	vmul.f64	d17, d17, d16
	.loc	1 110 28                @ ./libraries/Biquad/Biquad.h:110:28
	vldr	d20, [r5, #80]
	.loc	1 111 11 is_stmt 1      @ ./libraries/Biquad/Biquad.h:111:11
	vmul.f64	d18, d18, d16
	.loc	1 110 26                @ ./libraries/Biquad/Biquad.h:110:26
	vadd.f64	d17, d17, d20
.Ltmp188:
	@DEBUG_VALUE: process:out <- %D17
	.loc	1 111 23                @ ./libraries/Biquad/Biquad.h:111:23
	vldr	d19, [r5, #24]
	.loc	1 111 18 is_stmt 0      @ ./libraries/Biquad/Biquad.h:111:18
	vldr	d21, [r5, #88]
	.loc	1 111 26                @ ./libraries/Biquad/Biquad.h:111:26
	vmul.f64	d19, d19, d17
	.loc	1 111 16                @ ./libraries/Biquad/Biquad.h:111:16
	vadd.f64	d18, d18, d21
	.loc	1 111 21                @ ./libraries/Biquad/Biquad.h:111:21
	vsub.f64	d18, d18, d19
	.loc	1 111 6                 @ ./libraries/Biquad/Biquad.h:111:6
	vstr	d18, [r5, #80]
	.loc	1 112 18 is_stmt 1      @ ./libraries/Biquad/Biquad.h:112:18
	vldr	d19, [r5, #32]
	.loc	1 112 13 is_stmt 0      @ ./libraries/Biquad/Biquad.h:112:13
	vldr	d18, [r5, #16]
	.loc	1 112 21                @ ./libraries/Biquad/Biquad.h:112:21
	vmul.f64	d19, d19, d17
	.loc	1 112 11                @ ./libraries/Biquad/Biquad.h:112:11
	vmul.f64	d16, d18, d16
.Ltmp189:
	.loc	2 110 13 is_stmt 1      @ /root/Bela/projects/Thesis/Filters.cpp:110:13
	vcvt.f32.f64	s0, d17
.Ltmp190:
	@DEBUG_VALUE: render_lowandhighpass:audio_l <- %S0
	.loc	1 112 16                @ ./libraries/Biquad/Biquad.h:112:16
	vsub.f64	d16, d16, d19
.Ltmp191:
	.loc	2 111 30                @ /root/Bela/projects/Thesis/Filters.cpp:111:30
	vcvt.f64.f32	d17, s0
.Ltmp192:
	.loc	1 112 6                 @ ./libraries/Biquad/Biquad.h:112:6
	vstr	d16, [r5, #88]
.Ltmp193:
	@DEBUG_VALUE: process:in <- %D17
	.loc	1 73 23                 @ ./libraries/Biquad/Biquad.h:73:23
	movw	r5, :lower16:.L_MergedGlobals.5
.Ltmp194:
	.loc	1 110 23                @ ./libraries/Biquad/Biquad.h:110:23
	vldr	d16, [r4]
.Ltmp195:
	.loc	1 73 23                 @ ./libraries/Biquad/Biquad.h:73:23
	movt	r5, :upper16:.L_MergedGlobals.5
.Ltmp196:
	.loc	1 111 13                @ ./libraries/Biquad/Biquad.h:111:13
	vldr	d18, [r4, #8]
.Ltmp197:
	.loc	1 74 3                  @ ./libraries/Biquad/Biquad.h:74:3
	mov	r0, r5
.Ltmp198:
	.loc	1 110 21                @ ./libraries/Biquad/Biquad.h:110:21
	vmul.f64	d16, d16, d17
	.loc	1 110 28 is_stmt 0      @ ./libraries/Biquad/Biquad.h:110:28
	vldr	d20, [r4, #80]
	.loc	1 111 11 is_stmt 1      @ ./libraries/Biquad/Biquad.h:111:11
	vmul.f64	d18, d18, d17
	.loc	1 110 26                @ ./libraries/Biquad/Biquad.h:110:26
	vadd.f64	d16, d16, d20
.Ltmp199:
	@DEBUG_VALUE: process:out <- %D16
	.loc	1 111 23                @ ./libraries/Biquad/Biquad.h:111:23
	vldr	d19, [r4, #24]
	.loc	1 111 18 is_stmt 0      @ ./libraries/Biquad/Biquad.h:111:18
	vldr	d21, [r4, #88]
	.loc	1 111 26                @ ./libraries/Biquad/Biquad.h:111:26
	vmul.f64	d19, d19, d16
	.loc	1 111 16                @ ./libraries/Biquad/Biquad.h:111:16
	vadd.f64	d18, d18, d21
	.loc	1 111 21                @ ./libraries/Biquad/Biquad.h:111:21
	vsub.f64	d18, d18, d19
	.loc	1 111 6                 @ ./libraries/Biquad/Biquad.h:111:6
	vstr	d18, [r4, #80]
	.loc	1 112 13 is_stmt 1      @ ./libraries/Biquad/Biquad.h:112:13
	vldr	d18, [r4, #16]
	.loc	1 112 18 is_stmt 0      @ ./libraries/Biquad/Biquad.h:112:18
	vldr	d19, [r4, #32]
	.loc	1 112 11                @ ./libraries/Biquad/Biquad.h:112:11
	vmul.f64	d17, d18, d17
.Ltmp200:
	.loc	1 112 21                @ ./libraries/Biquad/Biquad.h:112:21
	vmul.f64	d16, d19, d16
.Ltmp201:
	.loc	1 112 16                @ ./libraries/Biquad/Biquad.h:112:16
	vsub.f64	d16, d17, d16
.Ltmp202:
	.loc	2 113 19 is_stmt 1      @ /root/Bela/projects/Thesis/Filters.cpp:113:19
	vldr	s0, [r6, #16]
.Ltmp203:
	.loc	1 112 6                 @ ./libraries/Biquad/Biquad.h:112:6
	vstr	d16, [r4, #88]
.Ltmp204:
	.loc	2 113 19                @ /root/Bela/projects/Thesis/Filters.cpp:113:19
	vcvt.f64.f32	d16, s0
.Ltmp205:
	@DEBUG_VALUE: setFc:Fc <- %D16
	.loc	1 73 23                 @ ./libraries/Biquad/Biquad.h:73:23
	vldr	d17, [r5, #64]
	.loc	1 73 16 is_stmt 0       @ ./libraries/Biquad/Biquad.h:73:16
	vdiv.f64	d16, d16, d17
.Ltmp206:
	.loc	1 73 12                 @ ./libraries/Biquad/Biquad.h:73:12
	vstr	d16, [r5, #40]
	.loc	1 74 3 is_stmt 1        @ ./libraries/Biquad/Biquad.h:74:3
	bl	_ZN12BiquadCoeffTIdE4calcEv
.Ltmp207:
	.loc	2 114 18                @ /root/Bela/projects/Thesis/Filters.cpp:114:18
	vldr	s0, [r6, #12]
.Ltmp208:
	.loc	1 74 3                  @ ./libraries/Biquad/Biquad.h:74:3
	mov	r0, r4
	.loc	1 73 23                 @ ./libraries/Biquad/Biquad.h:73:23
	vldr	d17, [r4, #64]
.Ltmp209:
	.loc	2 114 18                @ /root/Bela/projects/Thesis/Filters.cpp:114:18
	vcvt.f64.f32	d16, s0
.Ltmp210:
	@DEBUG_VALUE: setFc:Fc <- %D16
	.loc	1 73 16                 @ ./libraries/Biquad/Biquad.h:73:16
	vdiv.f64	d16, d16, d17
.Ltmp211:
	.loc	1 73 12 is_stmt 0       @ ./libraries/Biquad/Biquad.h:73:12
	vstr	d16, [r4, #40]
	.loc	1 74 3 is_stmt 1        @ ./libraries/Biquad/Biquad.h:74:3
	bl	_ZN12BiquadCoeffTIdE4calcEv
.Ltmp212:
	.loc	2 115 31                @ /root/Bela/projects/Thesis/Filters.cpp:115:31
	vcvt.f64.f32	d16, s16
.Ltmp213:
	@DEBUG_VALUE: process:in <- %D16
	.loc	1 110 23                @ ./libraries/Biquad/Biquad.h:110:23
	movw	r0, :lower16:.L_MergedGlobals.3
	movt	r0, :upper16:.L_MergedGlobals.3
.Ltmp214:
	.loc	1 110 23 is_stmt 0      @ ./libraries/Biquad/Biquad.h:110:23
	vldmia	r5, {d17, d18}
	.loc	1 110 21                @ ./libraries/Biquad/Biquad.h:110:21
	vmul.f64	d17, d17, d16
	.loc	1 110 28                @ ./libraries/Biquad/Biquad.h:110:28
	vldr	d20, [r5, #80]
	.loc	1 111 11 is_stmt 1      @ ./libraries/Biquad/Biquad.h:111:11
	vmul.f64	d18, d18, d16
	.loc	1 110 26                @ ./libraries/Biquad/Biquad.h:110:26
	vadd.f64	d17, d17, d20
.Ltmp215:
	@DEBUG_VALUE: process:out <- %D17
	.loc	1 111 23                @ ./libraries/Biquad/Biquad.h:111:23
	vldr	d19, [r5, #24]
	.loc	1 111 18 is_stmt 0      @ ./libraries/Biquad/Biquad.h:111:18
	vldr	d21, [r5, #88]
	.loc	1 111 26                @ ./libraries/Biquad/Biquad.h:111:26
	vmul.f64	d19, d19, d17
	.loc	1 111 16                @ ./libraries/Biquad/Biquad.h:111:16
	vadd.f64	d18, d18, d21
	.loc	1 111 21                @ ./libraries/Biquad/Biquad.h:111:21
	vsub.f64	d18, d18, d19
	.loc	1 111 6                 @ ./libraries/Biquad/Biquad.h:111:6
	vstr	d18, [r5, #80]
	.loc	1 112 18 is_stmt 1      @ ./libraries/Biquad/Biquad.h:112:18
	vldr	d19, [r5, #32]
	.loc	1 112 13 is_stmt 0      @ ./libraries/Biquad/Biquad.h:112:13
	vldr	d18, [r5, #16]
	.loc	1 112 21                @ ./libraries/Biquad/Biquad.h:112:21
	vmul.f64	d19, d19, d17
	.loc	1 112 11                @ ./libraries/Biquad/Biquad.h:112:11
	vmul.f64	d16, d18, d16
.Ltmp216:
	.loc	2 115 13 is_stmt 1      @ /root/Bela/projects/Thesis/Filters.cpp:115:13
	vcvt.f32.f64	s0, d17
.Ltmp217:
	@DEBUG_VALUE: render_lowandhighpass:audio_r <- %S0
	.loc	1 112 16                @ ./libraries/Biquad/Biquad.h:112:16
	vsub.f64	d16, d16, d19
.Ltmp218:
	.loc	2 116 30                @ /root/Bela/projects/Thesis/Filters.cpp:116:30
	vcvt.f64.f32	d17, s0
.Ltmp219:
	.loc	1 112 6                 @ ./libraries/Biquad/Biquad.h:112:6
	vstr	d16, [r5, #88]
.Ltmp220:
	@DEBUG_VALUE: process:in <- %D17
	.loc	1 110 23                @ ./libraries/Biquad/Biquad.h:110:23
	vldr	d16, [r0]
	.loc	1 111 13                @ ./libraries/Biquad/Biquad.h:111:13
	vldr	d18, [r0, #8]
	.loc	1 110 21                @ ./libraries/Biquad/Biquad.h:110:21
	vmul.f64	d16, d16, d17
	.loc	1 110 28 is_stmt 0      @ ./libraries/Biquad/Biquad.h:110:28
	vldr	d20, [r0, #80]
	.loc	1 111 11 is_stmt 1      @ ./libraries/Biquad/Biquad.h:111:11
	vmul.f64	d18, d18, d17
	.loc	1 110 26                @ ./libraries/Biquad/Biquad.h:110:26
	vadd.f64	d16, d16, d20
.Ltmp221:
	@DEBUG_VALUE: process:out <- %D16
	.loc	1 111 23                @ ./libraries/Biquad/Biquad.h:111:23
	vldr	d19, [r0, #24]
	.loc	1 111 18 is_stmt 0      @ ./libraries/Biquad/Biquad.h:111:18
	vldr	d21, [r0, #88]
	.loc	1 111 26                @ ./libraries/Biquad/Biquad.h:111:26
	vmul.f64	d19, d19, d16
	.loc	1 111 16                @ ./libraries/Biquad/Biquad.h:111:16
	vadd.f64	d18, d18, d21
	.loc	1 111 21                @ ./libraries/Biquad/Biquad.h:111:21
	vsub.f64	d18, d18, d19
	.loc	1 111 6                 @ ./libraries/Biquad/Biquad.h:111:6
	vstr	d18, [r0, #80]
	.loc	1 112 13 is_stmt 1      @ ./libraries/Biquad/Biquad.h:112:13
	vldr	d18, [r0, #16]
	.loc	1 112 18 is_stmt 0      @ ./libraries/Biquad/Biquad.h:112:18
	vldr	d19, [r0, #32]
	.loc	1 112 11                @ ./libraries/Biquad/Biquad.h:112:11
	vmul.f64	d17, d18, d17
.Ltmp222:
	.loc	1 112 21                @ ./libraries/Biquad/Biquad.h:112:21
	vmul.f64	d16, d19, d16
.Ltmp223:
	.loc	1 112 16                @ ./libraries/Biquad/Biquad.h:112:16
	vsub.f64	d16, d17, d16
	.loc	1 112 6                 @ ./libraries/Biquad/Biquad.h:112:6
	vstr	d16, [r0, #88]
.Ltmp224:
	@DEBUG_VALUE: setFc:this <- %R5
	@DEBUG_VALUE: setFc:this <- %R4
	@DEBUG_VALUE: setFc:this <- %R4
	@DEBUG_VALUE: setFc:this <- %R5
	.loc	2 117 1 is_stmt 1       @ /root/Bela/projects/Thesis/Filters.cpp:117:1
	vpop	{d8, d9}
	pop	{r4, r5, r6, r10, r11, pc}
.Ltmp225:
.Lfunc_end4:
	.size	_Z21render_lowandhighpassff, .Lfunc_end4-_Z21render_lowandhighpassff
	.cfi_endproc
	.fnend

	.type	.L_MergedGlobals,%object @ @_MergedGlobals
	.data
	.p2align	4
.L_MergedGlobals:
	.long	1140457472              @ float 500
	.long	1065353216              @ float 1
	.long	1194083328              @ float 44100
	.long	1157234688              @ float 2000
	.long	1120403456              @ float 100
	.zero	4
	.zero	96
	.size	.L_MergedGlobals, 120

	.type	.L_MergedGlobals.1,%object @ @_MergedGlobals.1
	.local	.L_MergedGlobals.1
	.comm	.L_MergedGlobals.1,96,16
	.type	.L_MergedGlobals.2,%object @ @_MergedGlobals.2
	.local	.L_MergedGlobals.2
	.comm	.L_MergedGlobals.2,96,16
	.type	.L_MergedGlobals.3,%object @ @_MergedGlobals.3
	.local	.L_MergedGlobals.3
	.comm	.L_MergedGlobals.3,96,16
	.type	.L_MergedGlobals.4,%object @ @_MergedGlobals.4
	.local	.L_MergedGlobals.4
	.comm	.L_MergedGlobals.4,96,16
	.type	.L_MergedGlobals.5,%object @ @_MergedGlobals.5
	.local	.L_MergedGlobals.5
	.comm	.L_MergedGlobals.5,96,16
	.section	".note.GNU-stack","",%progbits
	.eabi_attribute	30, 2	@ Tag_ABI_optimization_goals