	.text
	.syntax unified
	.eabi_attribute	67, "2.09"	@ Tag_conformance
	.cpu	cortex-a8
	.eabi_attribute	6, 10	@ Tag_CPU_arch
	.eabi_attribute	7, 65	@ Tag_CPU_arch_profile
	.eabi_attribute	8, 1	@ Tag_ARM_ISA_use
	.eabi_attribute	9, 2	@ Tag_THUMB_ISA_use
	.fpu	neon
	.eabi_attribute	17, 1	@ Tag_ABI_PCS_GOT_use
	.eabi_attribute	20, 2	@ Tag_ABI_FP_denormal
	.eabi_attribute	23, 1	@ Tag_ABI_FP_number_model
	.eabi_attribute	34, 1	@ Tag_CPU_unaligned_access
	.eabi_attribute	24, 1	@ Tag_ABI_align_needed
	.eabi_attribute	25, 1	@ Tag_ABI_align_preserved
	.eabi_attribute	28, 1	@ Tag_ABI_VFP_args
	.eabi_attribute	38, 1	@ Tag_ABI_FP_16bit_format
	.eabi_attribute	18, 4	@ Tag_ABI_PCS_wchar_t
	.eabi_attribute	26, 2	@ Tag_ABI_enum_size
	.eabi_attribute	14, 0	@ Tag_ABI_PCS_R9_use
	.eabi_attribute	68, 1	@ Tag_Virtualization_use
	.file	"/root/Bela/projects/Thesis/build/RecordWav.bc"
	.file	1 "/usr/bin/../lib/gcc/arm-linux-gnueabihf/6.3.0/../../../../include/arm-linux-gnueabihf/c++/6.3.0/bits" "c++config.h"
	.file	2 "/usr/bin/../lib/gcc/arm-linux-gnueabihf/6.3.0/../../../../include/c++/6.3.0/bits" "alloc_traits.h"
	.file	3 "/usr/bin/../lib/gcc/arm-linux-gnueabihf/6.3.0/../../../../include/c++/6.3.0/ext" "new_allocator.h"
	.file	4 "/usr/bin/../lib/gcc/arm-linux-gnueabihf/6.3.0/../../../../include/arm-linux-gnueabihf/c++/6.3.0/bits" "c++allocator.h"
	.file	5 "/usr/bin/../lib/gcc/arm-linux-gnueabihf/6.3.0/../../../../include/c++/6.3.0/bits" "allocator.h"
	.file	6 "/usr/bin/../lib/gcc/arm-linux-gnueabihf/6.3.0/../../../../include/c++/6.3.0/ext" "alloc_traits.h"
	.file	7 "/usr/bin/../lib/gcc/arm-linux-gnueabihf/6.3.0/../../../../include/c++/6.3.0/bits" "stl_vector.h"
	.file	8 "/usr/bin/../lib/gcc/arm-linux-gnueabihf/6.3.0/../../../../include/c++/6.3.0" "type_traits"
	.file	9 "/usr/bin/../lib/gcc/arm-linux-gnueabihf/6.3.0/../../../../include/c++/6.3.0/bits" "stl_iterator.h"
	.file	10 "/usr/bin/../lib/gcc/arm-linux-gnueabihf/6.3.0/../../../../include/c++/6.3.0/bits" "stl_iterator_base_types.h"
	.file	11 "/root/Bela/projects/Thesis" "RecordWav.cpp"
	.file	12 "/usr/bin/../lib/gcc/arm-linux-gnueabihf/6.3.0/../../../../include/c++/6.3.0/bits" "stringfwd.h"
	.file	13 "/usr/bin/../lib/gcc/arm-linux-gnueabihf/6.3.0/../../../../include/c++/6.3.0/bits" "basic_string.h"
	.file	14 "/usr/bin/../lib/gcc/arm-linux-gnueabihf/6.3.0/../../../../include/c++/6.3.0/bits" "cpp_type_traits.h"
	.file	15 "/usr/bin/../lib/gcc/arm-linux-gnueabihf/6.3.0/../../../../include/c++/6.3.0/bits" "char_traits.h"
	.file	16 "/usr/bin/../lib/gcc/arm-linux-gnueabihf/6.3.0/../../../../include/c++/6.3.0/debug" "debug.h"
	.file	17 "/usr/include" "wchar.h"
	.file	18 "/usr/lib/llvm-3.9/bin/../lib/clang/3.9.1/include" "stddef.h"
	.file	19 "/usr/include" "libio.h"
	.file	20 "/usr/include/arm-linux-gnueabihf/bits" "types.h"
	.file	21 "/usr/include" "stdio.h"
	.file	22 "/usr/lib/llvm-3.9/bin/../lib/clang/3.9.1/include" "stdarg.h"
	.file	23 "/usr/include" "stdint.h"
	.file	24 "/usr/bin/../lib/gcc/arm-linux-gnueabihf/6.3.0/../../../../include/c++/6.3.0/bits" "exception_ptr.h"
	.file	25 "/usr/include" "locale.h"
	.file	26 "/usr/include" "ctype.h"
	.file	27 "/usr/include" "stdlib.h"
	.file	28 "/usr/include/arm-linux-gnueabihf/bits" "stdlib-float.h"
	.file	29 "/usr/include/arm-linux-gnueabihf/bits" "stdlib-bsearch.h"
	.file	30 "/usr/bin/../lib/gcc/arm-linux-gnueabihf/6.3.0/../../../../include/c++/6.3.0" "cstdlib"
	.file	31 "/usr/include" "_G_config.h"
	.file	32 "/usr/include/arm-linux-gnueabihf/bits" "stdio.h"
	.file	33 "/usr/include/arm-linux-gnueabihf/bits" "math-finite.h"
	.file	34 "/usr/include/arm-linux-gnueabihf/bits" "mathcalls.h"
	.file	35 "/usr/include/arm-linux-gnueabihf/bits" "mathdef.h"
	.file	36 "/usr/include" "string.h"
	.section	.text._ZNSt6vectorIS_IfSaIfEESaIS1_EED2Ev,"axG",%progbits,_ZNSt6vectorIS_IfSaIfEESaIS1_EED2Ev,comdat
	.weak	_ZNSt6vectorIS_IfSaIfEESaIS1_EED2Ev
	.p2align	2
	.type	_ZNSt6vectorIS_IfSaIfEESaIS1_EED2Ev,%function
_ZNSt6vectorIS_IfSaIfEESaIS1_EED2Ev:    @ @_ZNSt6vectorIS_IfSaIfEESaIS1_EED2Ev
.Lfunc_begin0:
	.loc	7 426 0                 @ /usr/bin/../lib/gcc/arm-linux-gnueabihf/6.3.0/../../../../include/c++/6.3.0/bits/stl_vector.h:426:0
	.fnstart
	.cfi_startproc
@ BB#0:
	.save	{r4, r5, r6, r10, r11, lr}
	push	{r4, r5, r6, r10, r11, lr}
.Ltmp0:
	.cfi_def_cfa_offset 24
.Ltmp1:
	.cfi_offset lr, -4
.Ltmp2:
	.cfi_offset r11, -8
.Ltmp3:
	.cfi_offset r10, -12
.Ltmp4:
	.cfi_offset r6, -16
.Ltmp5:
	.cfi_offset r5, -20
.Ltmp6:
	.cfi_offset r4, -24
	.setfp	r11, sp, #16
	add	r11, sp, #16
.Ltmp7:
	.cfi_def_cfa r11, 8
	@DEBUG_VALUE: ~vector:this <- %R0
	mov	r4, r0
.Ltmp8:
	@DEBUG_VALUE: __destroy<std::vector<float, std::allocator<float> > *>:__last <- %R6
	@DEBUG_VALUE: _Destroy<std::vector<float, std::allocator<float> > *>:__last <- %R6
	@DEBUG_VALUE: _Destroy<std::vector<float, std::allocator<float> > *, std::vector<float, std::allocator<float> > >:__last <- %R6
	@DEBUG_VALUE: _Destroy<std::vector<float, std::allocator<float> > *, std::vector<float, std::allocator<float> > >:__first <- %R5
	@DEBUG_VALUE: _Destroy<std::vector<float, std::allocator<float> > *>:__first <- %R5
	@DEBUG_VALUE: __destroy<std::vector<float, std::allocator<float> > *>:__first <- %R5
	@DEBUG_VALUE: ~vector:this <- %R4
	.loc	7 426 37 prologue_end   @ /usr/bin/../lib/gcc/arm-linux-gnueabihf/6.3.0/../../../../include/c++/6.3.0/bits/stl_vector.h:426:37
	ldm	r4, {r5, r6}
.Ltmp9:
	.file	37 "/usr/bin/../lib/gcc/arm-linux-gnueabihf/6.3.0/../../../../include/c++/6.3.0/bits" "stl_construct.h"
	.loc	37 102 4 discriminator 1 @ /usr/bin/../lib/gcc/arm-linux-gnueabihf/6.3.0/../../../../include/c++/6.3.0/bits/stl_construct.h:102:4
	cmp	r5, r6
	beq	.LBB0_5
.Ltmp10:
.LBB0_1:                                @ %.lr.ph.i.i.i
                                        @ =>This Inner Loop Header: Depth=1
	@DEBUG_VALUE: __addressof<std::vector<float, std::allocator<float> > >:__r <- %R5
	.loc	7 160 37                @ /usr/bin/../lib/gcc/arm-linux-gnueabihf/6.3.0/../../../../include/c++/6.3.0/bits/stl_vector.h:160:37
	ldr	r0, [r5]
.Ltmp11:
	@DEBUG_VALUE: _M_deallocate:__p <- %R0
	@DEBUG_VALUE: deallocate:__p <- %R0
	@DEBUG_VALUE: deallocate:__p <- %R0
	.loc	7 177 6                 @ /usr/bin/../lib/gcc/arm-linux-gnueabihf/6.3.0/../../../../include/c++/6.3.0/bits/stl_vector.h:177:6
	cmp	r0, #0
	beq	.LBB0_3
.Ltmp12:
@ BB#2:                                 @   in Loop: Header=BB0_1 Depth=1
	@DEBUG_VALUE: deallocate:__p <- %R0
	@DEBUG_VALUE: deallocate:__p <- %R0
	@DEBUG_VALUE: _M_deallocate:__p <- %R0
	@DEBUG_VALUE: __addressof<std::vector<float, std::allocator<float> > >:__r <- %R5
	.loc	3 110 9                 @ /usr/bin/../lib/gcc/arm-linux-gnueabihf/6.3.0/../../../../include/c++/6.3.0/ext/new_allocator.h:110:9
	bl	_ZdlPv
.Ltmp13:
.LBB0_3:                                @ %_ZSt8_DestroyISt6vectorIfSaIfEEEvPT_.exit.i.i.i
                                        @   in Loop: Header=BB0_1 Depth=1
	@DEBUG_VALUE: __addressof<std::vector<float, std::allocator<float> > >:__r <- %R5
	.loc	37 102 30 discriminator 2 @ /usr/bin/../lib/gcc/arm-linux-gnueabihf/6.3.0/../../../../include/c++/6.3.0/bits/stl_construct.h:102:30
	add	r5, r5, #12
.Ltmp14:
	@DEBUG_VALUE: __destroy<std::vector<float, std::allocator<float> > *>:__first <- %R5
	.loc	37 102 4 is_stmt 0 discriminator 1 @ /usr/bin/../lib/gcc/arm-linux-gnueabihf/6.3.0/../../../../include/c++/6.3.0/bits/stl_construct.h:102:4
	cmp	r6, r5
	bne	.LBB0_1
.Ltmp15:
@ BB#4:                                 @ %_ZSt8_DestroyIPSt6vectorIfSaIfEES2_EvT_S4_RSaIT0_E.exit.loopexit
	@DEBUG_VALUE: __destroy<std::vector<float, std::allocator<float> > *>:__first <- %R5
	.loc	7 160 37 is_stmt 1      @ /usr/bin/../lib/gcc/arm-linux-gnueabihf/6.3.0/../../../../include/c++/6.3.0/bits/stl_vector.h:160:37
	ldr	r5, [r4]
.Ltmp16:
.LBB0_5:                                @ %_ZSt8_DestroyIPSt6vectorIfSaIfEES2_EvT_S4_RSaIT0_E.exit
	@DEBUG_VALUE: _M_deallocate:__p <- %R5
	.loc	7 177 6                 @ /usr/bin/../lib/gcc/arm-linux-gnueabihf/6.3.0/../../../../include/c++/6.3.0/bits/stl_vector.h:177:6
	cmp	r5, #0
	beq	.LBB0_7
.Ltmp17:
@ BB#6:
	@DEBUG_VALUE: _M_deallocate:__p <- %R5
	.loc	3 110 9                 @ /usr/bin/../lib/gcc/arm-linux-gnueabihf/6.3.0/../../../../include/c++/6.3.0/ext/new_allocator.h:110:9
	mov	r0, r5
	bl	_ZdlPv
.Ltmp18:
.LBB0_7:                                @ %_ZNSt12_Vector_baseISt6vectorIfSaIfEESaIS2_EED2Ev.exit
	@DEBUG_VALUE: _M_deallocate:__p <- %R5
	.loc	7 427 33 discriminator 1 @ /usr/bin/../lib/gcc/arm-linux-gnueabihf/6.3.0/../../../../include/c++/6.3.0/bits/stl_vector.h:427:33
	mov	r0, r4
	pop	{r4, r5, r6, r10, r11, pc}
.Ltmp19:
.Lfunc_end0:
	.size	_ZNSt6vectorIS_IfSaIfEESaIS1_EED2Ev, .Lfunc_end0-_ZNSt6vectorIS_IfSaIfEESaIS1_EED2Ev
	.cfi_endproc
	.fnend

	.text
	.globl	_Z20initialize_recordingv
	.p2align	2
	.type	_Z20initialize_recordingv,%function
_Z20initialize_recordingv:              @ @_Z20initialize_recordingv
.Lfunc_begin1:
	.loc	11 21 0                 @ /root/Bela/projects/Thesis/RecordWav.cpp:21:0
	.fnstart
	.cfi_startproc
@ BB#0:
	.save	{r4, r5, r6, r7, r8, r10, r11, lr}
	push	{r4, r5, r6, r7, r8, r10, r11, lr}
.Ltmp32:
	.cfi_def_cfa_offset 32
.Ltmp33:
	.cfi_offset lr, -4
.Ltmp34:
	.cfi_offset r11, -8
.Ltmp35:
	.cfi_offset r10, -12
.Ltmp36:
	.cfi_offset r8, -16
.Ltmp37:
	.cfi_offset r7, -20
.Ltmp38:
	.cfi_offset r6, -24
.Ltmp39:
	.cfi_offset r5, -28
.Ltmp40:
	.cfi_offset r4, -32
	.setfp	r11, sp, #24
	add	r11, sp, #24
.Ltmp41:
	.cfi_def_cfa r11, 8
	.pad	#8
	sub	sp, sp, #8
.Ltmp42:
	@DEBUG_VALUE: initialize_recording:numFrames <- 5292000
	@DEBUG_VALUE: resize:__new_size <- 2
	.loc	7 656 40 prologue_end   @ /usr/bin/../lib/gcc/arm-linux-gnueabihf/6.3.0/../../../../include/c++/6.3.0/bits/stl_vector.h:656:40
	movw	r5, :lower16:.L_MergedGlobals
	.loc	7 656 50 is_stmt 0      @ /usr/bin/../lib/gcc/arm-linux-gnueabihf/6.3.0/../../../../include/c++/6.3.0/bits/stl_vector.h:656:50
	movw	r8, #43691
	.loc	7 656 40                @ /usr/bin/../lib/gcc/arm-linux-gnueabihf/6.3.0/../../../../include/c++/6.3.0/bits/stl_vector.h:656:40
	movt	r5, :upper16:.L_MergedGlobals
	.loc	7 656 50                @ /usr/bin/../lib/gcc/arm-linux-gnueabihf/6.3.0/../../../../include/c++/6.3.0/bits/stl_vector.h:656:50
	movt	r8, #43690
	.loc	7 656 66                @ /usr/bin/../lib/gcc/arm-linux-gnueabihf/6.3.0/../../../../include/c++/6.3.0/bits/stl_vector.h:656:66
	ldrd	r6, r7, [r5, #16]
	.loc	7 656 50                @ /usr/bin/../lib/gcc/arm-linux-gnueabihf/6.3.0/../../../../include/c++/6.3.0/bits/stl_vector.h:656:50
	sub	r0, r7, r6
	asr	r1, r0, #2
	mul	r1, r1, r8
.Ltmp43:
	.loc	7 676 6 is_stmt 1       @ /usr/bin/../lib/gcc/arm-linux-gnueabihf/6.3.0/../../../../include/c++/6.3.0/bits/stl_vector.h:676:6
	cmp	r1, #1
	bhi	.LBB1_2
@ BB#1:
.Ltmp44:
	.loc	7 677 4 discriminator 1 @ /usr/bin/../lib/gcc/arm-linux-gnueabihf/6.3.0/../../../../include/c++/6.3.0/bits/stl_vector.h:677:4
	add	r0, r5, #16
.Ltmp45:
	@DEBUG_VALUE: _M_erase_at_end:this <- %R0
	.loc	7 677 33 is_stmt 0      @ /usr/bin/../lib/gcc/arm-linux-gnueabihf/6.3.0/../../../../include/c++/6.3.0/bits/stl_vector.h:677:33
	rsb	r1, r1, #2
	.loc	7 677 4 discriminator 1 @ /usr/bin/../lib/gcc/arm-linux-gnueabihf/6.3.0/../../../../include/c++/6.3.0/bits/stl_vector.h:677:4
	bl	_ZNSt6vectorIS_IfSaIfEESaIS1_EE17_M_default_appendEj
.Ltmp46:
	b	.LBB1_9
.LBB1_2:
	.loc	7 678 11 is_stmt 1      @ /usr/bin/../lib/gcc/arm-linux-gnueabihf/6.3.0/../../../../include/c++/6.3.0/bits/stl_vector.h:678:11
	cmp	r0, #24
	beq	.LBB1_9
@ BB#3:
.Ltmp47:
	.loc	7 679 43                @ /usr/bin/../lib/gcc/arm-linux-gnueabihf/6.3.0/../../../../include/c++/6.3.0/bits/stl_vector.h:679:43
	add	r4, r6, #24
.Ltmp48:
	@DEBUG_VALUE: __destroy<std::vector<float, std::allocator<float> > *>:__first <- %R4
	@DEBUG_VALUE: _Destroy<std::vector<float, std::allocator<float> > *>:__first <- %R4
	@DEBUG_VALUE: _Destroy<std::vector<float, std::allocator<float> > *, std::vector<float, std::allocator<float> > >:__first <- %R4
	@DEBUG_VALUE: _M_erase_at_end:__pos <- %R4
	.loc	37 102 4 discriminator 1 @ /usr/bin/../lib/gcc/arm-linux-gnueabihf/6.3.0/../../../../include/c++/6.3.0/bits/stl_construct.h:102:4
	cmp	r7, r4
	beq	.LBB1_8
.Ltmp49:
@ BB#4:                                 @ %.lr.ph.i.i.i.i.i.preheader
	@DEBUG_VALUE: _M_erase_at_end:__pos <- %R4
	@DEBUG_VALUE: _Destroy<std::vector<float, std::allocator<float> > *, std::vector<float, std::allocator<float> > >:__first <- %R4
	@DEBUG_VALUE: _Destroy<std::vector<float, std::allocator<float> > *>:__first <- %R4
	@DEBUG_VALUE: __destroy<std::vector<float, std::allocator<float> > *>:__first <- %R4
	.loc	37 126 7                @ /usr/bin/../lib/gcc/arm-linux-gnueabihf/6.3.0/../../../../include/c++/6.3.0/bits/stl_construct.h:126:7
	mov	r6, r4
.Ltmp50:
.LBB1_5:                                @ %.lr.ph.i.i.i.i.i
                                        @ =>This Inner Loop Header: Depth=1
	@DEBUG_VALUE: __addressof<std::vector<float, std::allocator<float> > >:__r <- %R6
	.loc	7 160 37                @ /usr/bin/../lib/gcc/arm-linux-gnueabihf/6.3.0/../../../../include/c++/6.3.0/bits/stl_vector.h:160:37
	ldr	r0, [r6]
.Ltmp51:
	@DEBUG_VALUE: _M_deallocate:__p <- %R0
	@DEBUG_VALUE: deallocate:__p <- %R0
	@DEBUG_VALUE: deallocate:__p <- %R0
	.loc	7 177 6                 @ /usr/bin/../lib/gcc/arm-linux-gnueabihf/6.3.0/../../../../include/c++/6.3.0/bits/stl_vector.h:177:6
	cmp	r0, #0
	beq	.LBB1_7
.Ltmp52:
@ BB#6:                                 @   in Loop: Header=BB1_5 Depth=1
	@DEBUG_VALUE: deallocate:__p <- %R0
	@DEBUG_VALUE: deallocate:__p <- %R0
	@DEBUG_VALUE: _M_deallocate:__p <- %R0
	@DEBUG_VALUE: __addressof<std::vector<float, std::allocator<float> > >:__r <- %R6
	.loc	3 110 9                 @ /usr/bin/../lib/gcc/arm-linux-gnueabihf/6.3.0/../../../../include/c++/6.3.0/ext/new_allocator.h:110:9
	bl	_ZdlPv
.Ltmp53:
.LBB1_7:                                @ %_ZSt8_DestroyISt6vectorIfSaIfEEEvPT_.exit.i.i.i.i.i
                                        @   in Loop: Header=BB1_5 Depth=1
	@DEBUG_VALUE: __addressof<std::vector<float, std::allocator<float> > >:__r <- %R6
	.loc	37 102 30 discriminator 2 @ /usr/bin/../lib/gcc/arm-linux-gnueabihf/6.3.0/../../../../include/c++/6.3.0/bits/stl_construct.h:102:30
	add	r6, r6, #12
.Ltmp54:
	@DEBUG_VALUE: __destroy<std::vector<float, std::allocator<float> > *>:__first <- %R6
	.loc	37 102 4 is_stmt 0 discriminator 1 @ /usr/bin/../lib/gcc/arm-linux-gnueabihf/6.3.0/../../../../include/c++/6.3.0/bits/stl_construct.h:102:4
	cmp	r7, r6
	bne	.LBB1_5
.Ltmp55:
.LBB1_8:                                @ %_ZNSt6vectorIS_IfSaIfEESaIS1_EE15_M_erase_at_endEPS1_.exit.i
	.loc	7 1437 26 is_stmt 1     @ /usr/bin/../lib/gcc/arm-linux-gnueabihf/6.3.0/../../../../include/c++/6.3.0/bits/stl_vector.h:1437:26
	str	r4, [r5, #20]
.Ltmp56:
.LBB1_9:                                @ %_ZNSt6vectorIS_IfSaIfEESaIS1_EE6resizeEj.exit
	@DEBUG_VALUE: resize:__new_size <- 2
	.loc	7 656 66                @ /usr/bin/../lib/gcc/arm-linux-gnueabihf/6.3.0/../../../../include/c++/6.3.0/bits/stl_vector.h:656:66
	ldr	r0, [r5, #28]
	.loc	7 656 40 is_stmt 0      @ /usr/bin/../lib/gcc/arm-linux-gnueabihf/6.3.0/../../../../include/c++/6.3.0/bits/stl_vector.h:656:40
	ldr	r6, [r5, #32]
	.loc	7 656 50                @ /usr/bin/../lib/gcc/arm-linux-gnueabihf/6.3.0/../../../../include/c++/6.3.0/bits/stl_vector.h:656:50
	sub	r1, r6, r0
	asr	r2, r1, #2
	mul	r2, r2, r8
.Ltmp57:
	.loc	7 676 6 is_stmt 1       @ /usr/bin/../lib/gcc/arm-linux-gnueabihf/6.3.0/../../../../include/c++/6.3.0/bits/stl_vector.h:676:6
	cmp	r2, #1
	bhi	.LBB1_11
@ BB#10:
.Ltmp58:
	.loc	7 677 4 discriminator 1 @ /usr/bin/../lib/gcc/arm-linux-gnueabihf/6.3.0/../../../../include/c++/6.3.0/bits/stl_vector.h:677:4
	add	r0, r5, #28
.Ltmp59:
	@DEBUG_VALUE: _M_erase_at_end:this <- %R0
	.loc	7 677 33 is_stmt 0      @ /usr/bin/../lib/gcc/arm-linux-gnueabihf/6.3.0/../../../../include/c++/6.3.0/bits/stl_vector.h:677:33
	rsb	r1, r2, #2
	.loc	7 677 4 discriminator 1 @ /usr/bin/../lib/gcc/arm-linux-gnueabihf/6.3.0/../../../../include/c++/6.3.0/bits/stl_vector.h:677:4
	bl	_ZNSt6vectorIS_IfSaIfEESaIS1_EE17_M_default_appendEj
.Ltmp60:
	b	.LBB1_18
.LBB1_11:
	.loc	7 678 11 is_stmt 1      @ /usr/bin/../lib/gcc/arm-linux-gnueabihf/6.3.0/../../../../include/c++/6.3.0/bits/stl_vector.h:678:11
	cmp	r1, #24
	beq	.LBB1_18
@ BB#12:
.Ltmp61:
	.loc	7 679 43                @ /usr/bin/../lib/gcc/arm-linux-gnueabihf/6.3.0/../../../../include/c++/6.3.0/bits/stl_vector.h:679:43
	add	r7, r0, #24
.Ltmp62:
	@DEBUG_VALUE: __destroy<std::vector<float, std::allocator<float> > *>:__first <- %R7
	@DEBUG_VALUE: _Destroy<std::vector<float, std::allocator<float> > *>:__first <- %R7
	@DEBUG_VALUE: _Destroy<std::vector<float, std::allocator<float> > *, std::vector<float, std::allocator<float> > >:__first <- %R7
	@DEBUG_VALUE: _M_erase_at_end:__pos <- %R7
	.loc	37 102 4 discriminator 1 @ /usr/bin/../lib/gcc/arm-linux-gnueabihf/6.3.0/../../../../include/c++/6.3.0/bits/stl_construct.h:102:4
	cmp	r6, r7
	beq	.LBB1_17
.Ltmp63:
@ BB#13:                                @ %.lr.ph.i.i.i.i.i40.preheader
	@DEBUG_VALUE: _M_erase_at_end:__pos <- %R7
	@DEBUG_VALUE: _Destroy<std::vector<float, std::allocator<float> > *, std::vector<float, std::allocator<float> > >:__first <- %R7
	@DEBUG_VALUE: _Destroy<std::vector<float, std::allocator<float> > *>:__first <- %R7
	@DEBUG_VALUE: __destroy<std::vector<float, std::allocator<float> > *>:__first <- %R7
	.loc	37 126 7                @ /usr/bin/../lib/gcc/arm-linux-gnueabihf/6.3.0/../../../../include/c++/6.3.0/bits/stl_construct.h:126:7
	mov	r4, r7
.Ltmp64:
.LBB1_14:                               @ %.lr.ph.i.i.i.i.i40
                                        @ =>This Inner Loop Header: Depth=1
	@DEBUG_VALUE: __addressof<std::vector<float, std::allocator<float> > >:__r <- %R4
	.loc	7 160 37                @ /usr/bin/../lib/gcc/arm-linux-gnueabihf/6.3.0/../../../../include/c++/6.3.0/bits/stl_vector.h:160:37
	ldr	r0, [r4]
.Ltmp65:
	@DEBUG_VALUE: _M_deallocate:__p <- %R0
	@DEBUG_VALUE: deallocate:__p <- %R0
	@DEBUG_VALUE: deallocate:__p <- %R0
	.loc	7 177 6                 @ /usr/bin/../lib/gcc/arm-linux-gnueabihf/6.3.0/../../../../include/c++/6.3.0/bits/stl_vector.h:177:6
	cmp	r0, #0
	beq	.LBB1_16
.Ltmp66:
@ BB#15:                                @   in Loop: Header=BB1_14 Depth=1
	@DEBUG_VALUE: deallocate:__p <- %R0
	@DEBUG_VALUE: deallocate:__p <- %R0
	@DEBUG_VALUE: _M_deallocate:__p <- %R0
	@DEBUG_VALUE: __addressof<std::vector<float, std::allocator<float> > >:__r <- %R4
	.loc	3 110 9                 @ /usr/bin/../lib/gcc/arm-linux-gnueabihf/6.3.0/../../../../include/c++/6.3.0/ext/new_allocator.h:110:9
	bl	_ZdlPv
.Ltmp67:
.LBB1_16:                               @ %_ZSt8_DestroyISt6vectorIfSaIfEEEvPT_.exit.i.i.i.i.i41
                                        @   in Loop: Header=BB1_14 Depth=1
	@DEBUG_VALUE: __addressof<std::vector<float, std::allocator<float> > >:__r <- %R4
	.loc	37 102 30 discriminator 2 @ /usr/bin/../lib/gcc/arm-linux-gnueabihf/6.3.0/../../../../include/c++/6.3.0/bits/stl_construct.h:102:30
	add	r4, r4, #12
.Ltmp68:
	@DEBUG_VALUE: __destroy<std::vector<float, std::allocator<float> > *>:__first <- %R4
	.loc	37 102 4 is_stmt 0 discriminator 1 @ /usr/bin/../lib/gcc/arm-linux-gnueabihf/6.3.0/../../../../include/c++/6.3.0/bits/stl_construct.h:102:4
	cmp	r6, r4
	bne	.LBB1_14
.Ltmp69:
.LBB1_17:                               @ %_ZNSt6vectorIS_IfSaIfEESaIS1_EE15_M_erase_at_endEPS1_.exit.i42
	.loc	7 1437 26 is_stmt 1     @ /usr/bin/../lib/gcc/arm-linux-gnueabihf/6.3.0/../../../../include/c++/6.3.0/bits/stl_vector.h:1437:26
	str	r7, [r5, #32]
.Ltmp70:
.LBB1_18:                               @ %_ZNSt6vectorIS_IfSaIfEESaIS1_EE6resizeEj.exit43
	@DEBUG_VALUE: resize:__new_size <- 2
	.loc	7 656 66                @ /usr/bin/../lib/gcc/arm-linux-gnueabihf/6.3.0/../../../../include/c++/6.3.0/bits/stl_vector.h:656:66
	ldrd	r6, r7, [r5, #40]
	.loc	7 656 50 is_stmt 0      @ /usr/bin/../lib/gcc/arm-linux-gnueabihf/6.3.0/../../../../include/c++/6.3.0/bits/stl_vector.h:656:50
	sub	r0, r7, r6
	asr	r1, r0, #2
	mul	r1, r1, r8
.Ltmp71:
	.loc	7 676 6 is_stmt 1       @ /usr/bin/../lib/gcc/arm-linux-gnueabihf/6.3.0/../../../../include/c++/6.3.0/bits/stl_vector.h:676:6
	cmp	r1, #1
	bhi	.LBB1_20
@ BB#19:
.Ltmp72:
	.loc	7 677 4 discriminator 1 @ /usr/bin/../lib/gcc/arm-linux-gnueabihf/6.3.0/../../../../include/c++/6.3.0/bits/stl_vector.h:677:4
	add	r0, r5, #40
.Ltmp73:
	@DEBUG_VALUE: _M_erase_at_end:this <- %R0
	.loc	7 677 33 is_stmt 0      @ /usr/bin/../lib/gcc/arm-linux-gnueabihf/6.3.0/../../../../include/c++/6.3.0/bits/stl_vector.h:677:33
	rsb	r1, r1, #2
	.loc	7 677 4 discriminator 1 @ /usr/bin/../lib/gcc/arm-linux-gnueabihf/6.3.0/../../../../include/c++/6.3.0/bits/stl_vector.h:677:4
	bl	_ZNSt6vectorIS_IfSaIfEESaIS1_EE17_M_default_appendEj
.Ltmp74:
	b	.LBB1_27
.LBB1_20:
	.loc	7 678 11 is_stmt 1      @ /usr/bin/../lib/gcc/arm-linux-gnueabihf/6.3.0/../../../../include/c++/6.3.0/bits/stl_vector.h:678:11
	cmp	r0, #24
	beq	.LBB1_27
@ BB#21:
.Ltmp75:
	.loc	7 679 43                @ /usr/bin/../lib/gcc/arm-linux-gnueabihf/6.3.0/../../../../include/c++/6.3.0/bits/stl_vector.h:679:43
	add	r6, r6, #24
.Ltmp76:
	@DEBUG_VALUE: __destroy<std::vector<float, std::allocator<float> > *>:__first <- %R6
	@DEBUG_VALUE: _Destroy<std::vector<float, std::allocator<float> > *>:__first <- %R6
	@DEBUG_VALUE: _Destroy<std::vector<float, std::allocator<float> > *, std::vector<float, std::allocator<float> > >:__first <- %R6
	@DEBUG_VALUE: _M_erase_at_end:__pos <- %R6
	.loc	37 102 4 discriminator 1 @ /usr/bin/../lib/gcc/arm-linux-gnueabihf/6.3.0/../../../../include/c++/6.3.0/bits/stl_construct.h:102:4
	cmp	r7, r6
	beq	.LBB1_26
.Ltmp77:
@ BB#22:                                @ %.lr.ph.i.i.i.i.i45.preheader
	@DEBUG_VALUE: _M_erase_at_end:__pos <- %R6
	@DEBUG_VALUE: _Destroy<std::vector<float, std::allocator<float> > *, std::vector<float, std::allocator<float> > >:__first <- %R6
	@DEBUG_VALUE: _Destroy<std::vector<float, std::allocator<float> > *>:__first <- %R6
	@DEBUG_VALUE: __destroy<std::vector<float, std::allocator<float> > *>:__first <- %R6
	.loc	37 126 7                @ /usr/bin/../lib/gcc/arm-linux-gnueabihf/6.3.0/../../../../include/c++/6.3.0/bits/stl_construct.h:126:7
	mov	r4, r6
.Ltmp78:
.LBB1_23:                               @ %.lr.ph.i.i.i.i.i45
                                        @ =>This Inner Loop Header: Depth=1
	@DEBUG_VALUE: __addressof<std::vector<float, std::allocator<float> > >:__r <- %R4
	.loc	7 160 37                @ /usr/bin/../lib/gcc/arm-linux-gnueabihf/6.3.0/../../../../include/c++/6.3.0/bits/stl_vector.h:160:37
	ldr	r0, [r4]
.Ltmp79:
	@DEBUG_VALUE: _M_deallocate:__p <- %R0
	@DEBUG_VALUE: deallocate:__p <- %R0
	@DEBUG_VALUE: deallocate:__p <- %R0
	.loc	7 177 6                 @ /usr/bin/../lib/gcc/arm-linux-gnueabihf/6.3.0/../../../../include/c++/6.3.0/bits/stl_vector.h:177:6
	cmp	r0, #0
	beq	.LBB1_25
.Ltmp80:
@ BB#24:                                @   in Loop: Header=BB1_23 Depth=1
	@DEBUG_VALUE: deallocate:__p <- %R0
	@DEBUG_VALUE: deallocate:__p <- %R0
	@DEBUG_VALUE: _M_deallocate:__p <- %R0
	@DEBUG_VALUE: __addressof<std::vector<float, std::allocator<float> > >:__r <- %R4
	.loc	3 110 9                 @ /usr/bin/../lib/gcc/arm-linux-gnueabihf/6.3.0/../../../../include/c++/6.3.0/ext/new_allocator.h:110:9
	bl	_ZdlPv
.Ltmp81:
.LBB1_25:                               @ %_ZSt8_DestroyISt6vectorIfSaIfEEEvPT_.exit.i.i.i.i.i46
                                        @   in Loop: Header=BB1_23 Depth=1
	@DEBUG_VALUE: __addressof<std::vector<float, std::allocator<float> > >:__r <- %R4
	.loc	37 102 30 discriminator 2 @ /usr/bin/../lib/gcc/arm-linux-gnueabihf/6.3.0/../../../../include/c++/6.3.0/bits/stl_construct.h:102:30
	add	r4, r4, #12
.Ltmp82:
	@DEBUG_VALUE: __destroy<std::vector<float, std::allocator<float> > *>:__first <- %R4
	.loc	37 102 4 is_stmt 0 discriminator 1 @ /usr/bin/../lib/gcc/arm-linux-gnueabihf/6.3.0/../../../../include/c++/6.3.0/bits/stl_construct.h:102:4
	cmp	r7, r4
	bne	.LBB1_23
.Ltmp83:
.LBB1_26:                               @ %_ZNSt6vectorIS_IfSaIfEESaIS1_EE15_M_erase_at_endEPS1_.exit.i47
	.loc	7 1437 26 is_stmt 1     @ /usr/bin/../lib/gcc/arm-linux-gnueabihf/6.3.0/../../../../include/c++/6.3.0/bits/stl_vector.h:1437:26
	str	r6, [r5, #44]
.Ltmp84:
.LBB1_27:                               @ %_ZNSt6vectorIS_IfSaIfEESaIS1_EE6resizeEj.exit48
	@DEBUG_VALUE: resize:__new_size <- 2
	.loc	7 656 66                @ /usr/bin/../lib/gcc/arm-linux-gnueabihf/6.3.0/../../../../include/c++/6.3.0/bits/stl_vector.h:656:66
	ldr	r0, [r5, #52]
	.loc	7 656 40 is_stmt 0      @ /usr/bin/../lib/gcc/arm-linux-gnueabihf/6.3.0/../../../../include/c++/6.3.0/bits/stl_vector.h:656:40
	ldr	r6, [r5, #56]
	.loc	7 656 50                @ /usr/bin/../lib/gcc/arm-linux-gnueabihf/6.3.0/../../../../include/c++/6.3.0/bits/stl_vector.h:656:50
	sub	r1, r6, r0
	asr	r2, r1, #2
	mul	r2, r2, r8
.Ltmp85:
	.loc	7 676 6 is_stmt 1       @ /usr/bin/../lib/gcc/arm-linux-gnueabihf/6.3.0/../../../../include/c++/6.3.0/bits/stl_vector.h:676:6
	cmp	r2, #1
	bhi	.LBB1_29
@ BB#28:
.Ltmp86:
	.loc	7 677 4 discriminator 1 @ /usr/bin/../lib/gcc/arm-linux-gnueabihf/6.3.0/../../../../include/c++/6.3.0/bits/stl_vector.h:677:4
	add	r0, r5, #52
.Ltmp87:
	@DEBUG_VALUE: _M_erase_at_end:this <- %R0
	.loc	7 677 33 is_stmt 0      @ /usr/bin/../lib/gcc/arm-linux-gnueabihf/6.3.0/../../../../include/c++/6.3.0/bits/stl_vector.h:677:33
	rsb	r1, r2, #2
	.loc	7 677 4 discriminator 1 @ /usr/bin/../lib/gcc/arm-linux-gnueabihf/6.3.0/../../../../include/c++/6.3.0/bits/stl_vector.h:677:4
	bl	_ZNSt6vectorIS_IfSaIfEESaIS1_EE17_M_default_appendEj
.Ltmp88:
	b	.LBB1_36
.LBB1_29:
	.loc	7 678 11 is_stmt 1      @ /usr/bin/../lib/gcc/arm-linux-gnueabihf/6.3.0/../../../../include/c++/6.3.0/bits/stl_vector.h:678:11
	cmp	r1, #24
	beq	.LBB1_36
@ BB#30:
.Ltmp89:
	.loc	7 679 43                @ /usr/bin/../lib/gcc/arm-linux-gnueabihf/6.3.0/../../../../include/c++/6.3.0/bits/stl_vector.h:679:43
	add	r4, r0, #24
.Ltmp90:
	@DEBUG_VALUE: __destroy<std::vector<float, std::allocator<float> > *>:__first <- %R4
	@DEBUG_VALUE: _Destroy<std::vector<float, std::allocator<float> > *>:__first <- %R4
	@DEBUG_VALUE: _Destroy<std::vector<float, std::allocator<float> > *, std::vector<float, std::allocator<float> > >:__first <- %R4
	@DEBUG_VALUE: _M_erase_at_end:__pos <- %R4
	.loc	37 102 4 discriminator 1 @ /usr/bin/../lib/gcc/arm-linux-gnueabihf/6.3.0/../../../../include/c++/6.3.0/bits/stl_construct.h:102:4
	cmp	r6, r4
	beq	.LBB1_35
.Ltmp91:
@ BB#31:                                @ %.lr.ph.i.i.i.i.i50.preheader
	@DEBUG_VALUE: _M_erase_at_end:__pos <- %R4
	@DEBUG_VALUE: _Destroy<std::vector<float, std::allocator<float> > *, std::vector<float, std::allocator<float> > >:__first <- %R4
	@DEBUG_VALUE: _Destroy<std::vector<float, std::allocator<float> > *>:__first <- %R4
	@DEBUG_VALUE: __destroy<std::vector<float, std::allocator<float> > *>:__first <- %R4
	.loc	37 126 7                @ /usr/bin/../lib/gcc/arm-linux-gnueabihf/6.3.0/../../../../include/c++/6.3.0/bits/stl_construct.h:126:7
	mov	r7, r4
.Ltmp92:
.LBB1_32:                               @ %.lr.ph.i.i.i.i.i50
                                        @ =>This Inner Loop Header: Depth=1
	@DEBUG_VALUE: __addressof<std::vector<float, std::allocator<float> > >:__r <- %R7
	.loc	7 160 37                @ /usr/bin/../lib/gcc/arm-linux-gnueabihf/6.3.0/../../../../include/c++/6.3.0/bits/stl_vector.h:160:37
	ldr	r0, [r7]
.Ltmp93:
	@DEBUG_VALUE: _M_deallocate:__p <- %R0
	@DEBUG_VALUE: deallocate:__p <- %R0
	@DEBUG_VALUE: deallocate:__p <- %R0
	.loc	7 177 6                 @ /usr/bin/../lib/gcc/arm-linux-gnueabihf/6.3.0/../../../../include/c++/6.3.0/bits/stl_vector.h:177:6
	cmp	r0, #0
	beq	.LBB1_34
.Ltmp94:
@ BB#33:                                @   in Loop: Header=BB1_32 Depth=1
	@DEBUG_VALUE: deallocate:__p <- %R0
	@DEBUG_VALUE: deallocate:__p <- %R0
	@DEBUG_VALUE: _M_deallocate:__p <- %R0
	@DEBUG_VALUE: __addressof<std::vector<float, std::allocator<float> > >:__r <- %R7
	.loc	3 110 9                 @ /usr/bin/../lib/gcc/arm-linux-gnueabihf/6.3.0/../../../../include/c++/6.3.0/ext/new_allocator.h:110:9
	bl	_ZdlPv
.Ltmp95:
.LBB1_34:                               @ %_ZSt8_DestroyISt6vectorIfSaIfEEEvPT_.exit.i.i.i.i.i51
                                        @   in Loop: Header=BB1_32 Depth=1
	@DEBUG_VALUE: __addressof<std::vector<float, std::allocator<float> > >:__r <- %R7
	.loc	37 102 30 discriminator 2 @ /usr/bin/../lib/gcc/arm-linux-gnueabihf/6.3.0/../../../../include/c++/6.3.0/bits/stl_construct.h:102:30
	add	r7, r7, #12
.Ltmp96:
	@DEBUG_VALUE: __destroy<std::vector<float, std::allocator<float> > *>:__first <- %R7
	.loc	37 102 4 is_stmt 0 discriminator 1 @ /usr/bin/../lib/gcc/arm-linux-gnueabihf/6.3.0/../../../../include/c++/6.3.0/bits/stl_construct.h:102:4
	cmp	r6, r7
	bne	.LBB1_32
.Ltmp97:
.LBB1_35:                               @ %_ZNSt6vectorIS_IfSaIfEESaIS1_EE15_M_erase_at_endEPS1_.exit.i52
	.loc	7 1437 26 is_stmt 1     @ /usr/bin/../lib/gcc/arm-linux-gnueabihf/6.3.0/../../../../include/c++/6.3.0/bits/stl_vector.h:1437:26
	str	r4, [r5, #56]
.Ltmp98:
.LBB1_36:                               @ %_ZNSt6vectorIS_IfSaIfEESaIS1_EE6resizeEj.exit53
	.loc	9 777 20                @ /usr/bin/../lib/gcc/arm-linux-gnueabihf/6.3.0/../../../../include/c++/6.3.0/bits/stl_iterator.h:777:20
	ldr	r4, [r5, #16]
	movw	r6, #49120
	ldr	r7, [r5, #20]
	movt	r6, #80
.Ltmp99:
	.loc	11 31 15 discriminator 1 @ /root/Bela/projects/Thesis/RecordWav.cpp:31:15
	cmp	r4, r7
	beq	.LBB1_41
.LBB1_37:                               @ %.lr.ph99
                                        @ =>This Inner Loop Header: Depth=1
.Ltmp100:
	@DEBUG_VALUE: c <- %R4
	@DEBUG_VALUE: resize:__new_size <- 5292000
	.loc	7 656 66                @ /usr/bin/../lib/gcc/arm-linux-gnueabihf/6.3.0/../../../../include/c++/6.3.0/bits/stl_vector.h:656:66
	ldm	r4, {r0, r1}
	.loc	7 656 50 is_stmt 0      @ /usr/bin/../lib/gcc/arm-linux-gnueabihf/6.3.0/../../../../include/c++/6.3.0/bits/stl_vector.h:656:50
	sub	r1, r1, r0
	asr	r1, r1, #2
.Ltmp101:
	.loc	7 676 6 is_stmt 1       @ /usr/bin/../lib/gcc/arm-linux-gnueabihf/6.3.0/../../../../include/c++/6.3.0/bits/stl_vector.h:676:6
	cmp	r1, r6
	bhs	.LBB1_39
.Ltmp102:
@ BB#38:                                @   in Loop: Header=BB1_37 Depth=1
	@DEBUG_VALUE: c <- %R4
	.loc	7 677 33                @ /usr/bin/../lib/gcc/arm-linux-gnueabihf/6.3.0/../../../../include/c++/6.3.0/bits/stl_vector.h:677:33
	sub	r1, r6, r1
	.loc	7 677 4 is_stmt 0 discriminator 1 @ /usr/bin/../lib/gcc/arm-linux-gnueabihf/6.3.0/../../../../include/c++/6.3.0/bits/stl_vector.h:677:4
.Ltmp20:
	mov	r0, r4
	bl	_ZNSt6vectorIfSaIfEE17_M_default_appendEj
.Ltmp21:
	b	.LBB1_40
.Ltmp103:
.LBB1_39:                               @   in Loop: Header=BB1_37 Depth=1
	@DEBUG_VALUE: c <- %R4
	.loc	7 679 43 is_stmt 1      @ /usr/bin/../lib/gcc/arm-linux-gnueabihf/6.3.0/../../../../include/c++/6.3.0/bits/stl_vector.h:679:43
	addne	r0, r0, r6, lsl #2
.Ltmp104:
	@DEBUG_VALUE: _M_erase_at_end:__pos <- %R0
	.loc	7 1437 26               @ /usr/bin/../lib/gcc/arm-linux-gnueabihf/6.3.0/../../../../include/c++/6.3.0/bits/stl_vector.h:1437:26
	strne	r0, [r4, #4]
.Ltmp105:
.LBB1_40:                               @ %_ZNSt6vectorIfSaIfEE6resizeEj.exit57
                                        @   in Loop: Header=BB1_37 Depth=1
	@DEBUG_VALUE: c <- %R4
	.loc	9 799 2                 @ /usr/bin/../lib/gcc/arm-linux-gnueabihf/6.3.0/../../../../include/c++/6.3.0/bits/stl_iterator.h:799:2
	add	r4, r4, #12
.Ltmp106:
	.loc	11 31 15 discriminator 1 @ /root/Bela/projects/Thesis/RecordWav.cpp:31:15
	cmp	r7, r4
	bne	.LBB1_37
.Ltmp107:
.LBB1_41:                               @ %._crit_edge100
	.loc	9 777 20                @ /usr/bin/../lib/gcc/arm-linux-gnueabihf/6.3.0/../../../../include/c++/6.3.0/bits/stl_iterator.h:777:20
	ldr	r4, [r5, #28]
.Ltmp108:
	.loc	9 777 20 is_stmt 0      @ /usr/bin/../lib/gcc/arm-linux-gnueabihf/6.3.0/../../../../include/c++/6.3.0/bits/stl_iterator.h:777:20
	ldr	r7, [r5, #32]
.Ltmp109:
	.loc	11 33 15 is_stmt 1 discriminator 1 @ /root/Bela/projects/Thesis/RecordWav.cpp:33:15
	cmp	r4, r7
	beq	.LBB1_46
.LBB1_42:                               @ %.lr.ph96
                                        @ =>This Inner Loop Header: Depth=1
.Ltmp110:
	@DEBUG_VALUE: c <- %R4
	@DEBUG_VALUE: resize:__new_size <- 5292000
	.loc	7 656 66                @ /usr/bin/../lib/gcc/arm-linux-gnueabihf/6.3.0/../../../../include/c++/6.3.0/bits/stl_vector.h:656:66
	ldm	r4, {r0, r1}
	.loc	7 656 50 is_stmt 0      @ /usr/bin/../lib/gcc/arm-linux-gnueabihf/6.3.0/../../../../include/c++/6.3.0/bits/stl_vector.h:656:50
	sub	r1, r1, r0
	asr	r1, r1, #2
.Ltmp111:
	.loc	7 676 6 is_stmt 1       @ /usr/bin/../lib/gcc/arm-linux-gnueabihf/6.3.0/../../../../include/c++/6.3.0/bits/stl_vector.h:676:6
	cmp	r1, r6
	bhs	.LBB1_44
.Ltmp112:
@ BB#43:                                @   in Loop: Header=BB1_42 Depth=1
	@DEBUG_VALUE: c <- %R4
	.loc	7 677 33                @ /usr/bin/../lib/gcc/arm-linux-gnueabihf/6.3.0/../../../../include/c++/6.3.0/bits/stl_vector.h:677:33
	sub	r1, r6, r1
	.loc	7 677 4 is_stmt 0 discriminator 1 @ /usr/bin/../lib/gcc/arm-linux-gnueabihf/6.3.0/../../../../include/c++/6.3.0/bits/stl_vector.h:677:4
.Ltmp23:
	mov	r0, r4
	bl	_ZNSt6vectorIfSaIfEE17_M_default_appendEj
.Ltmp24:
	b	.LBB1_45
.Ltmp113:
.LBB1_44:                               @   in Loop: Header=BB1_42 Depth=1
	@DEBUG_VALUE: c <- %R4
	.loc	7 679 43 is_stmt 1      @ /usr/bin/../lib/gcc/arm-linux-gnueabihf/6.3.0/../../../../include/c++/6.3.0/bits/stl_vector.h:679:43
	addne	r0, r0, r6, lsl #2
.Ltmp114:
	@DEBUG_VALUE: _M_erase_at_end:__pos <- %R0
	.loc	7 1437 26               @ /usr/bin/../lib/gcc/arm-linux-gnueabihf/6.3.0/../../../../include/c++/6.3.0/bits/stl_vector.h:1437:26
	strne	r0, [r4, #4]
.Ltmp115:
.LBB1_45:                               @ %_ZNSt6vectorIfSaIfEE6resizeEj.exit59
                                        @   in Loop: Header=BB1_42 Depth=1
	@DEBUG_VALUE: c <- %R4
	.loc	9 799 2                 @ /usr/bin/../lib/gcc/arm-linux-gnueabihf/6.3.0/../../../../include/c++/6.3.0/bits/stl_iterator.h:799:2
	add	r4, r4, #12
.Ltmp116:
	.loc	11 33 15 discriminator 1 @ /root/Bela/projects/Thesis/RecordWav.cpp:33:15
	cmp	r7, r4
	bne	.LBB1_42
.Ltmp117:
.LBB1_46:                               @ %._crit_edge97
	.loc	9 777 20                @ /usr/bin/../lib/gcc/arm-linux-gnueabihf/6.3.0/../../../../include/c++/6.3.0/bits/stl_iterator.h:777:20
	ldr	r4, [r5, #40]
	ldr	r7, [r5, #44]
.Ltmp118:
	.loc	11 35 15 discriminator 1 @ /root/Bela/projects/Thesis/RecordWav.cpp:35:15
	cmp	r4, r7
	beq	.LBB1_51
.LBB1_47:                               @ %.lr.ph93
                                        @ =>This Inner Loop Header: Depth=1
.Ltmp119:
	@DEBUG_VALUE: c <- %R4
	@DEBUG_VALUE: resize:__new_size <- 5292000
	.loc	7 656 66                @ /usr/bin/../lib/gcc/arm-linux-gnueabihf/6.3.0/../../../../include/c++/6.3.0/bits/stl_vector.h:656:66
	ldm	r4, {r0, r1}
	.loc	7 656 50 is_stmt 0      @ /usr/bin/../lib/gcc/arm-linux-gnueabihf/6.3.0/../../../../include/c++/6.3.0/bits/stl_vector.h:656:50
	sub	r1, r1, r0
	asr	r1, r1, #2
.Ltmp120:
	.loc	7 676 6 is_stmt 1       @ /usr/bin/../lib/gcc/arm-linux-gnueabihf/6.3.0/../../../../include/c++/6.3.0/bits/stl_vector.h:676:6
	cmp	r1, r6
	bhs	.LBB1_49
.Ltmp121:
@ BB#48:                                @   in Loop: Header=BB1_47 Depth=1
	@DEBUG_VALUE: c <- %R4
	.loc	7 677 33                @ /usr/bin/../lib/gcc/arm-linux-gnueabihf/6.3.0/../../../../include/c++/6.3.0/bits/stl_vector.h:677:33
	sub	r1, r6, r1
	.loc	7 677 4 is_stmt 0 discriminator 1 @ /usr/bin/../lib/gcc/arm-linux-gnueabihf/6.3.0/../../../../include/c++/6.3.0/bits/stl_vector.h:677:4
.Ltmp26:
	mov	r0, r4
	bl	_ZNSt6vectorIfSaIfEE17_M_default_appendEj
.Ltmp27:
	b	.LBB1_50
.Ltmp122:
.LBB1_49:                               @   in Loop: Header=BB1_47 Depth=1
	@DEBUG_VALUE: c <- %R4
	.loc	7 679 43 is_stmt 1      @ /usr/bin/../lib/gcc/arm-linux-gnueabihf/6.3.0/../../../../include/c++/6.3.0/bits/stl_vector.h:679:43
	addne	r0, r0, r6, lsl #2
.Ltmp123:
	@DEBUG_VALUE: _M_erase_at_end:__pos <- %R0
	.loc	7 1437 26               @ /usr/bin/../lib/gcc/arm-linux-gnueabihf/6.3.0/../../../../include/c++/6.3.0/bits/stl_vector.h:1437:26
	strne	r0, [r4, #4]
.Ltmp124:
.LBB1_50:                               @ %_ZNSt6vectorIfSaIfEE6resizeEj.exit55
                                        @   in Loop: Header=BB1_47 Depth=1
	@DEBUG_VALUE: c <- %R4
	.loc	9 799 2                 @ /usr/bin/../lib/gcc/arm-linux-gnueabihf/6.3.0/../../../../include/c++/6.3.0/bits/stl_iterator.h:799:2
	add	r4, r4, #12
.Ltmp125:
	.loc	11 35 15 discriminator 1 @ /root/Bela/projects/Thesis/RecordWav.cpp:35:15
	cmp	r7, r4
	bne	.LBB1_47
.Ltmp126:
.LBB1_51:                               @ %._crit_edge
	.loc	9 777 20                @ /usr/bin/../lib/gcc/arm-linux-gnueabihf/6.3.0/../../../../include/c++/6.3.0/bits/stl_iterator.h:777:20
	ldr	r4, [r5, #52]
.Ltmp127:
	.loc	9 777 20 is_stmt 0      @ /usr/bin/../lib/gcc/arm-linux-gnueabihf/6.3.0/../../../../include/c++/6.3.0/bits/stl_iterator.h:777:20
	ldr	r5, [r5, #56]
.Ltmp128:
	.loc	11 37 15 is_stmt 1 discriminator 1 @ /root/Bela/projects/Thesis/RecordWav.cpp:37:15
	cmp	r4, r5
	beq	.LBB1_62
.LBB1_52:                               @ %.lr.ph
                                        @ =>This Inner Loop Header: Depth=1
.Ltmp129:
	@DEBUG_VALUE: c <- %R4
	@DEBUG_VALUE: resize:__new_size <- 5292000
	.loc	7 656 66                @ /usr/bin/../lib/gcc/arm-linux-gnueabihf/6.3.0/../../../../include/c++/6.3.0/bits/stl_vector.h:656:66
	ldm	r4, {r0, r1}
	.loc	7 656 50 is_stmt 0      @ /usr/bin/../lib/gcc/arm-linux-gnueabihf/6.3.0/../../../../include/c++/6.3.0/bits/stl_vector.h:656:50
	sub	r1, r1, r0
	asr	r1, r1, #2
.Ltmp130:
	.loc	7 676 6 is_stmt 1       @ /usr/bin/../lib/gcc/arm-linux-gnueabihf/6.3.0/../../../../include/c++/6.3.0/bits/stl_vector.h:676:6
	cmp	r1, r6
	bhs	.LBB1_54
.Ltmp131:
@ BB#53:                                @   in Loop: Header=BB1_52 Depth=1
	@DEBUG_VALUE: c <- %R4
	.loc	7 677 33                @ /usr/bin/../lib/gcc/arm-linux-gnueabihf/6.3.0/../../../../include/c++/6.3.0/bits/stl_vector.h:677:33
	sub	r1, r6, r1
	.loc	7 677 4 is_stmt 0 discriminator 1 @ /usr/bin/../lib/gcc/arm-linux-gnueabihf/6.3.0/../../../../include/c++/6.3.0/bits/stl_vector.h:677:4
.Ltmp29:
	mov	r0, r4
	bl	_ZNSt6vectorIfSaIfEE17_M_default_appendEj
.Ltmp30:
	b	.LBB1_55
.Ltmp132:
.LBB1_54:                               @   in Loop: Header=BB1_52 Depth=1
	@DEBUG_VALUE: c <- %R4
	.loc	7 679 43 is_stmt 1      @ /usr/bin/../lib/gcc/arm-linux-gnueabihf/6.3.0/../../../../include/c++/6.3.0/bits/stl_vector.h:679:43
	addne	r0, r0, r6, lsl #2
.Ltmp133:
	@DEBUG_VALUE: _M_erase_at_end:__pos <- %R0
	.loc	7 1437 26               @ /usr/bin/../lib/gcc/arm-linux-gnueabihf/6.3.0/../../../../include/c++/6.3.0/bits/stl_vector.h:1437:26
	strne	r0, [r4, #4]
.Ltmp134:
.LBB1_55:                               @ %_ZNSt6vectorIfSaIfEE6resizeEj.exit
                                        @   in Loop: Header=BB1_52 Depth=1
	@DEBUG_VALUE: c <- %R4
	.loc	9 799 2                 @ /usr/bin/../lib/gcc/arm-linux-gnueabihf/6.3.0/../../../../include/c++/6.3.0/bits/stl_iterator.h:799:2
	add	r4, r4, #12
.Ltmp135:
	.loc	11 37 15 discriminator 1 @ /root/Bela/projects/Thesis/RecordWav.cpp:37:15
	cmp	r5, r4
	bne	.LBB1_52
	b	.LBB1_62
.Ltmp136:
.LBB1_56:
	@DEBUG_VALUE: c <- %R4
.Ltmp31:
	b	.LBB1_60
.Ltmp137:
.LBB1_57:
	@DEBUG_VALUE: c <- %R4
.Ltmp28:
	b	.LBB1_60
.Ltmp138:
.LBB1_58:
	@DEBUG_VALUE: c <- %R4
.Ltmp25:
	b	.LBB1_60
.Ltmp139:
.LBB1_59:
	@DEBUG_VALUE: c <- %R4
.Ltmp22:
.Ltmp140:
.LBB1_60:
	mov	r4, r0
	.loc	11 39 2                 @ /root/Bela/projects/Thesis/RecordWav.cpp:39:2
	cmp	r1, #1
	bne	.LBB1_63
@ BB#61:
	.loc	11 39 2 is_stmt 0 discriminator 3 @ /root/Bela/projects/Thesis/RecordWav.cpp:39:2
	mov	r0, r4
	bl	__cxa_get_exception_ptr
.Ltmp141:
	.file	38 "/usr/bin/../lib/gcc/arm-linux-gnueabihf/6.3.0/../../../../include/c++/6.3.0" "exception"
	.loc	38 62 9 is_stmt 1       @ /usr/bin/../lib/gcc/arm-linux-gnueabihf/6.3.0/../../../../include/c++/6.3.0/exception:62:9
	movw	r0, :lower16:_ZTVSt9exception
	movt	r0, :upper16:_ZTVSt9exception
	add	r0, r0, #8
	str	r0, [sp, #4]
.Ltmp142:
	.loc	11 39 2 discriminator 5 @ /root/Bela/projects/Thesis/RecordWav.cpp:39:2
	mov	r0, r4
	bl	__cxa_begin_catch
.Ltmp143:
	.loc	11 40 10                @ /root/Bela/projects/Thesis/RecordWav.cpp:40:10
	movw	r0, :lower16:stderr
	.loc	11 40 2 is_stmt 0       @ /root/Bela/projects/Thesis/RecordWav.cpp:40:2
	mov	r1, #103
	.loc	11 40 10                @ /root/Bela/projects/Thesis/RecordWav.cpp:40:10
	movt	r0, :upper16:stderr
	.loc	11 40 2                 @ /root/Bela/projects/Thesis/RecordWav.cpp:40:2
	mov	r2, #1
	.loc	11 40 10                @ /root/Bela/projects/Thesis/RecordWav.cpp:40:10
	ldr	r3, [r0]
	.loc	11 40 2                 @ /root/Bela/projects/Thesis/RecordWav.cpp:40:2
	movw	r0, :lower16:.L.str.11
	movt	r0, :upper16:.L.str.11
	bl	fwrite
	add	r0, sp, #4
.Ltmp144:
	@DEBUG_VALUE: exception:this <- %R0
	@DEBUG_VALUE: initialize_recording:e <- [%R0+0]
	.loc	11 41 2 is_stmt 1       @ /root/Bela/projects/Thesis/RecordWav.cpp:41:2
	bl	_ZNSt9exceptionD1Ev
.Ltmp145:
	.loc	11 41 2 is_stmt 0 discriminator 5 @ /root/Bela/projects/Thesis/RecordWav.cpp:41:2
	bl	__cxa_end_catch
.Ltmp146:
.LBB1_62:                               @ %.loopexit
	.loc	11 42 2 is_stmt 1       @ /root/Bela/projects/Thesis/RecordWav.cpp:42:2
	mov	r0, #1
	sub	sp, r11, #24
	pop	{r4, r5, r6, r7, r8, r10, r11, pc}
.Ltmp147:
.LBB1_63:
	mov	r0, r4
	mov	lr, pc
	b	_Unwind_Resume
.Lfunc_end1:
	.size	_Z20initialize_recordingv, .Lfunc_end1-_Z20initialize_recordingv
	.cfi_endproc
	.file	39 "<stdin>"
	.globl	__gxx_personality_v0
	.personality __gxx_personality_v0
	.handlerdata
	.p2align	2
GCC_except_table1:
.Lexception0:
	.byte	255                     @ @LPStart Encoding = omit
	.byte	0                       @ @TType Encoding = absptr
	.asciz	"\330"                  @ @TType base offset
	.byte	3                       @ Call site Encoding = udata4
	.byte	78                      @ Call site table length
	.long	.Lfunc_begin1-.Lfunc_begin1 @ >> Call Site 1 <<
	.long	.Ltmp20-.Lfunc_begin1   @   Call between .Lfunc_begin1 and .Ltmp20
	.long	0                       @     has no landing pad
	.byte	0                       @   On action: cleanup
	.long	.Ltmp20-.Lfunc_begin1   @ >> Call Site 2 <<
	.long	.Ltmp21-.Ltmp20         @   Call between .Ltmp20 and .Ltmp21
	.long	.Ltmp22-.Lfunc_begin1   @     jumps to .Ltmp22
	.byte	3                       @   On action: 2
	.long	.Ltmp23-.Lfunc_begin1   @ >> Call Site 3 <<
	.long	.Ltmp24-.Ltmp23         @   Call between .Ltmp23 and .Ltmp24
	.long	.Ltmp25-.Lfunc_begin1   @     jumps to .Ltmp25
	.byte	3                       @   On action: 2
	.long	.Ltmp26-.Lfunc_begin1   @ >> Call Site 4 <<
	.long	.Ltmp27-.Ltmp26         @   Call between .Ltmp26 and .Ltmp27
	.long	.Ltmp28-.Lfunc_begin1   @     jumps to .Ltmp28
	.byte	3                       @   On action: 2
	.long	.Ltmp29-.Lfunc_begin1   @ >> Call Site 5 <<
	.long	.Ltmp30-.Ltmp29         @   Call between .Ltmp29 and .Ltmp30
	.long	.Ltmp31-.Lfunc_begin1   @     jumps to .Ltmp31
	.byte	3                       @   On action: 2
	.long	.Ltmp30-.Lfunc_begin1   @ >> Call Site 6 <<
	.long	.Lfunc_end1-.Ltmp30     @   Call between .Ltmp30 and .Lfunc_end1
	.long	0                       @     has no landing pad
	.byte	0                       @   On action: cleanup
	.byte	0                       @ >> Action Record 1 <<
                                        @   Cleanup
	.byte	0                       @   No further actions
	.byte	1                       @ >> Action Record 2 <<
                                        @   Catch TypeInfo 1
	.byte	125                     @   Continue to action 1
                                        @ >> Catch TypeInfos <<
	.long	_ZTISt9exception(target2) @ TypeInfo 1
	.p2align	2
	.fnend

	.globl	_Z13record_stereoff
	.p2align	2
	.type	_Z13record_stereoff,%function
_Z13record_stereoff:                    @ @_Z13record_stereoff
.Lfunc_begin2:
	.loc	11 45 0                 @ /root/Bela/projects/Thesis/RecordWav.cpp:45:0
	.fnstart
	.cfi_startproc
@ BB#0:
	.save	{r4, lr}
	push	{r4, lr}
.Ltmp148:
	.cfi_def_cfa_offset 8
.Ltmp149:
	.cfi_offset lr, -4
.Ltmp150:
	.cfi_offset r4, -8
	@DEBUG_VALUE: record_stereo:audio_l <- %S0
	@DEBUG_VALUE: record_stereo:audio_r <- %S1
.Ltmp151:
	@DEBUG_VALUE: operator[]:__n <- 0
	.loc	7 781 32 prologue_end   @ /usr/bin/../lib/gcc/arm-linux-gnueabihf/6.3.0/../../../../include/c++/6.3.0/bits/stl_vector.h:781:32
	movw	lr, :lower16:.L_MergedGlobals
	movt	lr, :upper16:.L_MergedGlobals
	ldr	r3, [lr, #16]
.Ltmp152:
	@DEBUG_VALUE: operator[]:this <- %R3
	@DEBUG_VALUE: size:this <- %R3
	.loc	11 47 22                @ /root/Bela/projects/Thesis/RecordWav.cpp:47:22
	ldr	r1, [lr]
.Ltmp153:
	@DEBUG_VALUE: operator[]:__n <- %R1
	.loc	7 781 32                @ /usr/bin/../lib/gcc/arm-linux-gnueabihf/6.3.0/../../../../include/c++/6.3.0/bits/stl_vector.h:781:32
	ldr	r0, [r3]
	.loc	7 781 41 is_stmt 0      @ /usr/bin/../lib/gcc/arm-linux-gnueabihf/6.3.0/../../../../include/c++/6.3.0/bits/stl_vector.h:781:41
	add	r2, r0, r1, lsl #2
.Ltmp154:
	.loc	11 47 39 is_stmt 1      @ /root/Bela/projects/Thesis/RecordWav.cpp:47:39
	vstr	s0, [r2]
.Ltmp155:
	.loc	7 781 32                @ /usr/bin/../lib/gcc/arm-linux-gnueabihf/6.3.0/../../../../include/c++/6.3.0/bits/stl_vector.h:781:32
	ldr	r12, [lr, #28]
.Ltmp156:
	@DEBUG_VALUE: size:this <- %R12
	.loc	11 48 22                @ /root/Bela/projects/Thesis/RecordWav.cpp:48:22
	ldr	r2, [lr, #4]
.Ltmp157:
	@DEBUG_VALUE: operator[]:__n <- 1
	@DEBUG_VALUE: operator[]:__n <- %R2
	.loc	7 781 32                @ /usr/bin/../lib/gcc/arm-linux-gnueabihf/6.3.0/../../../../include/c++/6.3.0/bits/stl_vector.h:781:32
	ldr	r4, [r12, #12]
	.loc	7 781 41 is_stmt 0      @ /usr/bin/../lib/gcc/arm-linux-gnueabihf/6.3.0/../../../../include/c++/6.3.0/bits/stl_vector.h:781:41
	add	r4, r4, r2, lsl #2
.Ltmp158:
	.loc	11 48 39 is_stmt 1      @ /root/Bela/projects/Thesis/RecordWav.cpp:48:39
	vstr	s1, [r4]
	.loc	11 50 3                 @ /root/Bela/projects/Thesis/RecordWav.cpp:50:3
	add	r4, r1, #1
	.loc	11 51 3                 @ /root/Bela/projects/Thesis/RecordWav.cpp:51:3
	add	r1, r2, #1
.Ltmp159:
	@DEBUG_VALUE: operator[]:__n <- 0
	.loc	11 50 3                 @ /root/Bela/projects/Thesis/RecordWav.cpp:50:3
	str	r4, [lr]
	str	r1, [lr, #4]
.Ltmp160:
	.loc	7 656 40                @ /usr/bin/../lib/gcc/arm-linux-gnueabihf/6.3.0/../../../../include/c++/6.3.0/bits/stl_vector.h:656:40
	ldr	r2, [r3, #4]
.Ltmp161:
	.loc	7 656 50 is_stmt 0      @ /usr/bin/../lib/gcc/arm-linux-gnueabihf/6.3.0/../../../../include/c++/6.3.0/bits/stl_vector.h:656:50
	sub	r0, r2, r0
.Ltmp162:
	.loc	11 52 45 is_stmt 1      @ /root/Bela/projects/Thesis/RecordWav.cpp:52:45
	cmp	r4, r0, asr #2
.Ltmp163:
	.loc	11 58 1                 @ /root/Bela/projects/Thesis/RecordWav.cpp:58:1
	poplo	{r4, pc}
.Ltmp164:
	@DEBUG_VALUE: operator[]:__n <- 0
	.loc	7 656 66                @ /usr/bin/../lib/gcc/arm-linux-gnueabihf/6.3.0/../../../../include/c++/6.3.0/bits/stl_vector.h:656:66
	ldm	r12, {r0, r2}
	.loc	7 656 50 is_stmt 0      @ /usr/bin/../lib/gcc/arm-linux-gnueabihf/6.3.0/../../../../include/c++/6.3.0/bits/stl_vector.h:656:50
	sub	r0, r2, r0
.Ltmp165:
	.loc	11 52 6 is_stmt 1 discriminator 1 @ /root/Bela/projects/Thesis/RecordWav.cpp:52:6
	cmp	r1, r0, asr #2
	bhs	.LBB2_2
.Ltmp166:
@ BB#1:
	@DEBUG_VALUE: size:this <- %R12
	@DEBUG_VALUE: size:this <- %R3
	@DEBUG_VALUE: operator[]:this <- %R3
	@DEBUG_VALUE: record_stereo:audio_r <- %S1
	@DEBUG_VALUE: record_stereo:audio_l <- %S0
	.loc	11 58 1                 @ /root/Bela/projects/Thesis/RecordWav.cpp:58:1
	pop	{r4, pc}
.Ltmp167:
.LBB2_2:
	@DEBUG_VALUE: size:this <- %R12
	@DEBUG_VALUE: size:this <- %R3
	@DEBUG_VALUE: operator[]:this <- %R3
	@DEBUG_VALUE: record_stereo:audio_r <- %S1
	@DEBUG_VALUE: record_stereo:audio_l <- %S0
	.loc	11 55 4                 @ /root/Bela/projects/Thesis/RecordWav.cpp:55:4
	pop	{r4, lr}
	b	Bela_requestStop
.Ltmp168:
.Lfunc_end2:
	.size	_Z13record_stereoff, .Lfunc_end2-_Z13record_stereoff
	.cfi_endproc
	.fnend

	.globl	_Z11record_quadffff
	.p2align	2
	.type	_Z11record_quadffff,%function
_Z11record_quadffff:                    @ @_Z11record_quadffff
.Lfunc_begin3:
	.loc	11 60 0                 @ /root/Bela/projects/Thesis/RecordWav.cpp:60:0
	.fnstart
	.cfi_startproc
@ BB#0:
	.save	{r4, r5, r6, r7, r8, r9, r10, lr}
	push	{r4, r5, r6, r7, r8, r9, r10, lr}
.Ltmp169:
	.cfi_def_cfa_offset 32
.Ltmp170:
	.cfi_offset lr, -4
.Ltmp171:
	.cfi_offset r10, -8
.Ltmp172:
	.cfi_offset r9, -12
.Ltmp173:
	.cfi_offset r8, -16
.Ltmp174:
	.cfi_offset r7, -20
.Ltmp175:
	.cfi_offset r6, -24
.Ltmp176:
	.cfi_offset r5, -28
.Ltmp177:
	.cfi_offset r4, -32
	@DEBUG_VALUE: record_quad:audio1_l <- %S0
	@DEBUG_VALUE: record_quad:audio2_l <- %S1
	@DEBUG_VALUE: record_quad:audio1_r <- %S2
	@DEBUG_VALUE: record_quad:audio2_r <- %S3
.Ltmp178:
	@DEBUG_VALUE: operator[]:__n <- 0
	.loc	7 781 32 prologue_end   @ /usr/bin/../lib/gcc/arm-linux-gnueabihf/6.3.0/../../../../include/c++/6.3.0/bits/stl_vector.h:781:32
	movw	r5, :lower16:.L_MergedGlobals
	movt	r5, :upper16:.L_MergedGlobals
	ldr	r7, [r5, #16]
.Ltmp179:
	@DEBUG_VALUE: operator[]:this <- %R7
	@DEBUG_VALUE: size:this <- %R7
	.loc	11 62 22                @ /root/Bela/projects/Thesis/RecordWav.cpp:62:22
	ldr	r6, [r5]
.Ltmp180:
	@DEBUG_VALUE: operator[]:__n <- %R6
	.loc	7 781 32                @ /usr/bin/../lib/gcc/arm-linux-gnueabihf/6.3.0/../../../../include/c++/6.3.0/bits/stl_vector.h:781:32
	ldr	r1, [r7]
	.loc	7 781 41 is_stmt 0      @ /usr/bin/../lib/gcc/arm-linux-gnueabihf/6.3.0/../../../../include/c++/6.3.0/bits/stl_vector.h:781:41
	add	r0, r1, r6, lsl #2
.Ltmp181:
	.loc	11 62 39 is_stmt 1      @ /root/Bela/projects/Thesis/RecordWav.cpp:62:39
	vstr	s0, [r0]
.Ltmp182:
	.loc	7 781 32                @ /usr/bin/../lib/gcc/arm-linux-gnueabihf/6.3.0/../../../../include/c++/6.3.0/bits/stl_vector.h:781:32
	ldr	r10, [r5, #28]
.Ltmp183:
	@DEBUG_VALUE: size:this <- %R10
	.loc	11 63 22                @ /root/Bela/projects/Thesis/RecordWav.cpp:63:22
	ldr	r4, [r5, #4]
.Ltmp184:
	@DEBUG_VALUE: operator[]:__n <- 1
	@DEBUG_VALUE: operator[]:__n <- %R4
	.loc	7 781 32                @ /usr/bin/../lib/gcc/arm-linux-gnueabihf/6.3.0/../../../../include/c++/6.3.0/bits/stl_vector.h:781:32
	ldr	r0, [r10, #12]
	.loc	7 781 41 is_stmt 0      @ /usr/bin/../lib/gcc/arm-linux-gnueabihf/6.3.0/../../../../include/c++/6.3.0/bits/stl_vector.h:781:41
	add	r0, r0, r4, lsl #2
.Ltmp185:
	.loc	11 71 48 is_stmt 1 discriminator 1 @ /root/Bela/projects/Thesis/RecordWav.cpp:71:48
	add	r4, r4, #1
.Ltmp186:
	.loc	11 63 39                @ /root/Bela/projects/Thesis/RecordWav.cpp:63:39
	vstr	s2, [r0]
.Ltmp187:
	.loc	7 781 32                @ /usr/bin/../lib/gcc/arm-linux-gnueabihf/6.3.0/../../../../include/c++/6.3.0/bits/stl_vector.h:781:32
	ldr	r8, [r5, #40]
.Ltmp188:
	@DEBUG_VALUE: operator[]:this <- %R8
	@DEBUG_VALUE: size:this <- %R8
	.loc	11 64 23                @ /root/Bela/projects/Thesis/RecordWav.cpp:64:23
	ldr	r0, [r5, #8]
.Ltmp189:
	@DEBUG_VALUE: operator[]:__n <- 0
	@DEBUG_VALUE: operator[]:__n <- %R0
	.loc	7 781 32                @ /usr/bin/../lib/gcc/arm-linux-gnueabihf/6.3.0/../../../../include/c++/6.3.0/bits/stl_vector.h:781:32
	ldr	r9, [r8]
	.loc	7 781 41 is_stmt 0      @ /usr/bin/../lib/gcc/arm-linux-gnueabihf/6.3.0/../../../../include/c++/6.3.0/bits/stl_vector.h:781:41
	add	r2, r9, r0, lsl #2
.Ltmp190:
	.loc	11 72 7 is_stmt 1 discriminator 1 @ /root/Bela/projects/Thesis/RecordWav.cpp:72:7
	add	r0, r0, #1
.Ltmp191:
	.loc	11 64 41                @ /root/Bela/projects/Thesis/RecordWav.cpp:64:41
	vstr	s1, [r2]
.Ltmp192:
	.loc	7 781 32                @ /usr/bin/../lib/gcc/arm-linux-gnueabihf/6.3.0/../../../../include/c++/6.3.0/bits/stl_vector.h:781:32
	ldr	lr, [r5, #52]
.Ltmp193:
	@DEBUG_VALUE: size:this <- %LR
	.loc	11 65 23                @ /root/Bela/projects/Thesis/RecordWav.cpp:65:23
	ldr	r2, [r5, #12]
.Ltmp194:
	@DEBUG_VALUE: operator[]:__n <- 1
	@DEBUG_VALUE: operator[]:__n <- %R2
	.loc	7 781 32                @ /usr/bin/../lib/gcc/arm-linux-gnueabihf/6.3.0/../../../../include/c++/6.3.0/bits/stl_vector.h:781:32
	ldr	r3, [lr, #12]
.Ltmp195:
	.loc	11 70 3                 @ /root/Bela/projects/Thesis/RecordWav.cpp:70:3
	add	r12, r2, #1
.Ltmp196:
	.loc	7 781 41                @ /usr/bin/../lib/gcc/arm-linux-gnueabihf/6.3.0/../../../../include/c++/6.3.0/bits/stl_vector.h:781:41
	add	r3, r3, r2, lsl #2
.Ltmp197:
	.loc	11 67 3                 @ /root/Bela/projects/Thesis/RecordWav.cpp:67:3
	add	r2, r6, #1
.Ltmp198:
	@DEBUG_VALUE: operator[]:__n <- 0
	.loc	11 65 41                @ /root/Bela/projects/Thesis/RecordWav.cpp:65:41
	vstr	s3, [r3]
	.loc	11 67 3                 @ /root/Bela/projects/Thesis/RecordWav.cpp:67:3
	stm	r5, {r2, r4}
	.loc	11 69 3                 @ /root/Bela/projects/Thesis/RecordWav.cpp:69:3
	str	r0, [r5, #8]
	.loc	11 70 3                 @ /root/Bela/projects/Thesis/RecordWav.cpp:70:3
	str	r12, [r5, #12]
.Ltmp199:
	.loc	7 656 40                @ /usr/bin/../lib/gcc/arm-linux-gnueabihf/6.3.0/../../../../include/c++/6.3.0/bits/stl_vector.h:656:40
	ldr	r3, [r7, #4]
	.loc	7 656 50 is_stmt 0      @ /usr/bin/../lib/gcc/arm-linux-gnueabihf/6.3.0/../../../../include/c++/6.3.0/bits/stl_vector.h:656:50
	sub	r1, r3, r1
.Ltmp200:
	.loc	11 71 45 is_stmt 1      @ /root/Bela/projects/Thesis/RecordWav.cpp:71:45
	cmp	r2, r1, asr #2
	blo	.LBB3_3
.Ltmp201:
@ BB#1:
	@DEBUG_VALUE: size:this <- %LR
	@DEBUG_VALUE: size:this <- %R8
	@DEBUG_VALUE: operator[]:this <- %R8
	@DEBUG_VALUE: size:this <- %R10
	@DEBUG_VALUE: operator[]:__n <- %R6
	@DEBUG_VALUE: size:this <- %R7
	@DEBUG_VALUE: operator[]:this <- %R7
	@DEBUG_VALUE: record_quad:audio2_r <- %S3
	@DEBUG_VALUE: record_quad:audio1_r <- %S2
	@DEBUG_VALUE: record_quad:audio2_l <- %S1
	@DEBUG_VALUE: record_quad:audio1_l <- %S0
	@DEBUG_VALUE: operator[]:__n <- 0
	.loc	7 656 66                @ /usr/bin/../lib/gcc/arm-linux-gnueabihf/6.3.0/../../../../include/c++/6.3.0/bits/stl_vector.h:656:66
	ldm	r10, {r1, r2}
	.loc	7 656 50 is_stmt 0      @ /usr/bin/../lib/gcc/arm-linux-gnueabihf/6.3.0/../../../../include/c++/6.3.0/bits/stl_vector.h:656:50
	sub	r1, r2, r1
.Ltmp202:
	.loc	11 72 4 is_stmt 1       @ /root/Bela/projects/Thesis/RecordWav.cpp:72:4
	cmp	r4, r1, asr #2
	blo	.LBB3_3
.Ltmp203:
@ BB#2:
	@DEBUG_VALUE: size:this <- %LR
	@DEBUG_VALUE: size:this <- %R8
	@DEBUG_VALUE: operator[]:this <- %R8
	@DEBUG_VALUE: size:this <- %R10
	@DEBUG_VALUE: operator[]:__n <- %R6
	@DEBUG_VALUE: size:this <- %R7
	@DEBUG_VALUE: operator[]:this <- %R7
	@DEBUG_VALUE: record_quad:audio2_r <- %S3
	@DEBUG_VALUE: record_quad:audio1_r <- %S2
	@DEBUG_VALUE: record_quad:audio2_l <- %S1
	@DEBUG_VALUE: record_quad:audio1_l <- %S0
	@DEBUG_VALUE: operator[]:__n <- 0
	.loc	7 656 40                @ /usr/bin/../lib/gcc/arm-linux-gnueabihf/6.3.0/../../../../include/c++/6.3.0/bits/stl_vector.h:656:40
	ldr	r1, [r8, #4]
	.loc	7 656 50 is_stmt 0      @ /usr/bin/../lib/gcc/arm-linux-gnueabihf/6.3.0/../../../../include/c++/6.3.0/bits/stl_vector.h:656:50
	sub	r1, r1, r9
.Ltmp204:
	.loc	11 72 48 is_stmt 1 discriminator 1 @ /root/Bela/projects/Thesis/RecordWav.cpp:72:48
	cmp	r0, r1, asr #2
.Ltmp205:
	.loc	11 78 1                 @ /root/Bela/projects/Thesis/RecordWav.cpp:78:1
	poplo	{r4, r5, r6, r7, r8, r9, r10, pc}
.Ltmp206:
	@DEBUG_VALUE: operator[]:__n <- 0
	.loc	7 656 66                @ /usr/bin/../lib/gcc/arm-linux-gnueabihf/6.3.0/../../../../include/c++/6.3.0/bits/stl_vector.h:656:66
	ldm	lr, {r0, r1}
	.loc	7 656 50 is_stmt 0      @ /usr/bin/../lib/gcc/arm-linux-gnueabihf/6.3.0/../../../../include/c++/6.3.0/bits/stl_vector.h:656:50
	sub	r0, r1, r0
.Ltmp207:
	.loc	11 71 6 is_stmt 1 discriminator 2 @ /root/Bela/projects/Thesis/RecordWav.cpp:71:6
	cmp	r12, r0, asr #2
	bhs	.LBB3_4
.Ltmp208:
.LBB3_3:
	@DEBUG_VALUE: size:this <- %LR
	@DEBUG_VALUE: record_quad:audio2_r <- %S3
	@DEBUG_VALUE: record_quad:audio1_r <- %S2
	@DEBUG_VALUE: record_quad:audio2_l <- %S1
	@DEBUG_VALUE: record_quad:audio1_l <- %S0
	.loc	11 78 1                 @ /root/Bela/projects/Thesis/RecordWav.cpp:78:1
	pop	{r4, r5, r6, r7, r8, r9, r10, pc}
.Ltmp209:
.LBB3_4:
	@DEBUG_VALUE: size:this <- %LR
	@DEBUG_VALUE: record_quad:audio2_r <- %S3
	@DEBUG_VALUE: record_quad:audio1_r <- %S2
	@DEBUG_VALUE: record_quad:audio2_l <- %S1
	@DEBUG_VALUE: record_quad:audio1_l <- %S0
	.loc	11 75 4                 @ /root/Bela/projects/Thesis/RecordWav.cpp:75:4
	pop	{r4, r5, r6, r7, r8, r9, r10, lr}
.Ltmp210:
	b	Bela_requestStop
.Ltmp211:
.Lfunc_end3:
	.size	_Z11record_quadffff, .Lfunc_end3-_Z11record_quadffff
	.cfi_endproc
	.fnend

	.globl	_Z17cleanup_recordWAVv
	.p2align	2
	.type	_Z17cleanup_recordWAVv,%function
_Z17cleanup_recordWAVv:                 @ @_Z17cleanup_recordWAVv
.Lfunc_begin4:
	.loc	11 80 0                 @ /root/Bela/projects/Thesis/RecordWav.cpp:80:0
	.fnstart
	.cfi_startproc
@ BB#0:
	.save	{r4, r5, r6, r7, r11, lr}
	push	{r4, r5, r6, r7, r11, lr}
.Ltmp212:
	.cfi_def_cfa_offset 24
.Ltmp213:
	.cfi_offset lr, -4
.Ltmp214:
	.cfi_offset r11, -8
.Ltmp215:
	.cfi_offset r7, -12
.Ltmp216:
	.cfi_offset r6, -16
.Ltmp217:
	.cfi_offset r5, -20
.Ltmp218:
	.cfi_offset r4, -24
	.setfp	r11, sp, #16
	add	r11, sp, #16
.Ltmp219:
	.cfi_def_cfa r11, 8
.Ltmp220:
	.loc	9 777 20 prologue_end   @ /usr/bin/../lib/gcc/arm-linux-gnueabihf/6.3.0/../../../../include/c++/6.3.0/bits/stl_iterator.h:777:20
	movw	r5, :lower16:.L_MergedGlobals
	movt	r5, :upper16:.L_MergedGlobals
	ldrd	r6, r7, [r5, #16]
.Ltmp221:
	.loc	11 84 14 discriminator 1 @ /root/Bela/projects/Thesis/RecordWav.cpp:84:14
	cmp	r6, r7
	beq	.LBB4_5
.LBB4_1:                                @ %.lr.ph56
                                        @ =>This Inner Loop Header: Depth=1
.Ltmp222:
	@DEBUG_VALUE: i <- %R6
	.loc	7 656 66                @ /usr/bin/../lib/gcc/arm-linux-gnueabihf/6.3.0/../../../../include/c++/6.3.0/bits/stl_vector.h:656:66
	ldm	r6, {r0, r2}
	.loc	7 656 50 is_stmt 0      @ /usr/bin/../lib/gcc/arm-linux-gnueabihf/6.3.0/../../../../include/c++/6.3.0/bits/stl_vector.h:656:50
	sub	r3, r2, r0
.Ltmp223:
	.loc	11 85 12 is_stmt 1      @ /root/Bela/projects/Thesis/RecordWav.cpp:85:12
	ldr	r1, [r5]
.Ltmp224:
	@DEBUG_VALUE: resize:__new_size <- %R1
	.loc	7 656 50                @ /usr/bin/../lib/gcc/arm-linux-gnueabihf/6.3.0/../../../../include/c++/6.3.0/bits/stl_vector.h:656:50
	asr	r2, r3, #2
.Ltmp225:
	.loc	7 676 6                 @ /usr/bin/../lib/gcc/arm-linux-gnueabihf/6.3.0/../../../../include/c++/6.3.0/bits/stl_vector.h:676:6
	cmp	r1, r3, asr #2
	bls	.LBB4_3
.Ltmp226:
@ BB#2:                                 @   in Loop: Header=BB4_1 Depth=1
	@DEBUG_VALUE: resize:__new_size <- %R1
	@DEBUG_VALUE: i <- %R6
	.loc	7 677 33                @ /usr/bin/../lib/gcc/arm-linux-gnueabihf/6.3.0/../../../../include/c++/6.3.0/bits/stl_vector.h:677:33
	sub	r1, r1, r2
.Ltmp227:
	.loc	7 677 4 is_stmt 0 discriminator 1 @ /usr/bin/../lib/gcc/arm-linux-gnueabihf/6.3.0/../../../../include/c++/6.3.0/bits/stl_vector.h:677:4
	mov	r0, r6
	bl	_ZNSt6vectorIfSaIfEE17_M_default_appendEj
	b	.LBB4_4
.Ltmp228:
.LBB4_3:                                @   in Loop: Header=BB4_1 Depth=1
	@DEBUG_VALUE: resize:__new_size <- %R1
	@DEBUG_VALUE: i <- %R6
	.loc	7 678 11 is_stmt 1      @ /usr/bin/../lib/gcc/arm-linux-gnueabihf/6.3.0/../../../../include/c++/6.3.0/bits/stl_vector.h:678:11
	cmp	r1, r2
.Ltmp229:
	.loc	7 679 43                @ /usr/bin/../lib/gcc/arm-linux-gnueabihf/6.3.0/../../../../include/c++/6.3.0/bits/stl_vector.h:679:43
	addlo	r0, r0, r1, lsl #2
.Ltmp230:
	@DEBUG_VALUE: _M_erase_at_end:__pos <- %R0
	.loc	7 1437 26               @ /usr/bin/../lib/gcc/arm-linux-gnueabihf/6.3.0/../../../../include/c++/6.3.0/bits/stl_vector.h:1437:26
	strlo	r0, [r6, #4]
.Ltmp231:
.LBB4_4:                                @ %_ZNSt6vectorIfSaIfEE6resizeEj.exit21
                                        @   in Loop: Header=BB4_1 Depth=1
	@DEBUG_VALUE: i <- %R6
	.loc	9 799 2                 @ /usr/bin/../lib/gcc/arm-linux-gnueabihf/6.3.0/../../../../include/c++/6.3.0/bits/stl_iterator.h:799:2
	add	r6, r6, #12
.Ltmp232:
	.loc	11 84 14 discriminator 1 @ /root/Bela/projects/Thesis/RecordWav.cpp:84:14
	cmp	r7, r6
	bne	.LBB4_1
.Ltmp233:
.LBB4_5:                                @ %._crit_edge57
	.loc	9 777 20                @ /usr/bin/../lib/gcc/arm-linux-gnueabihf/6.3.0/../../../../include/c++/6.3.0/bits/stl_iterator.h:777:20
	ldr	r4, [r5, #28]
.Ltmp234:
	.loc	9 777 20 is_stmt 0      @ /usr/bin/../lib/gcc/arm-linux-gnueabihf/6.3.0/../../../../include/c++/6.3.0/bits/stl_iterator.h:777:20
	ldr	r6, [r5, #32]
.Ltmp235:
	.loc	11 86 14 is_stmt 1 discriminator 1 @ /root/Bela/projects/Thesis/RecordWav.cpp:86:14
	cmp	r4, r6
	beq	.LBB4_10
.LBB4_6:                                @ %.lr.ph52
                                        @ =>This Inner Loop Header: Depth=1
.Ltmp236:
	@DEBUG_VALUE: o <- %R4
	.loc	7 656 66                @ /usr/bin/../lib/gcc/arm-linux-gnueabihf/6.3.0/../../../../include/c++/6.3.0/bits/stl_vector.h:656:66
	ldm	r4, {r0, r2}
	.loc	7 656 50 is_stmt 0      @ /usr/bin/../lib/gcc/arm-linux-gnueabihf/6.3.0/../../../../include/c++/6.3.0/bits/stl_vector.h:656:50
	sub	r3, r2, r0
.Ltmp237:
	.loc	11 87 12 is_stmt 1      @ /root/Bela/projects/Thesis/RecordWav.cpp:87:12
	ldr	r1, [r5, #4]
.Ltmp238:
	@DEBUG_VALUE: resize:__new_size <- %R1
	.loc	7 656 50                @ /usr/bin/../lib/gcc/arm-linux-gnueabihf/6.3.0/../../../../include/c++/6.3.0/bits/stl_vector.h:656:50
	asr	r2, r3, #2
.Ltmp239:
	.loc	7 676 6                 @ /usr/bin/../lib/gcc/arm-linux-gnueabihf/6.3.0/../../../../include/c++/6.3.0/bits/stl_vector.h:676:6
	cmp	r1, r3, asr #2
	bls	.LBB4_8
.Ltmp240:
@ BB#7:                                 @   in Loop: Header=BB4_6 Depth=1
	@DEBUG_VALUE: resize:__new_size <- %R1
	@DEBUG_VALUE: o <- %R4
	.loc	7 677 33                @ /usr/bin/../lib/gcc/arm-linux-gnueabihf/6.3.0/../../../../include/c++/6.3.0/bits/stl_vector.h:677:33
	sub	r1, r1, r2
.Ltmp241:
	.loc	7 677 4 is_stmt 0 discriminator 1 @ /usr/bin/../lib/gcc/arm-linux-gnueabihf/6.3.0/../../../../include/c++/6.3.0/bits/stl_vector.h:677:4
	mov	r0, r4
	bl	_ZNSt6vectorIfSaIfEE17_M_default_appendEj
	b	.LBB4_9
.Ltmp242:
.LBB4_8:                                @   in Loop: Header=BB4_6 Depth=1
	@DEBUG_VALUE: resize:__new_size <- %R1
	@DEBUG_VALUE: o <- %R4
	.loc	7 678 11 is_stmt 1      @ /usr/bin/../lib/gcc/arm-linux-gnueabihf/6.3.0/../../../../include/c++/6.3.0/bits/stl_vector.h:678:11
	cmp	r1, r2
.Ltmp243:
	.loc	7 679 43                @ /usr/bin/../lib/gcc/arm-linux-gnueabihf/6.3.0/../../../../include/c++/6.3.0/bits/stl_vector.h:679:43
	addlo	r0, r0, r1, lsl #2
.Ltmp244:
	@DEBUG_VALUE: _M_erase_at_end:__pos <- %R0
	.loc	7 1437 26               @ /usr/bin/../lib/gcc/arm-linux-gnueabihf/6.3.0/../../../../include/c++/6.3.0/bits/stl_vector.h:1437:26
	strlo	r0, [r4, #4]
.Ltmp245:
.LBB4_9:                                @ %_ZNSt6vectorIfSaIfEE6resizeEj.exit20
                                        @   in Loop: Header=BB4_6 Depth=1
	@DEBUG_VALUE: o <- %R4
	.loc	9 799 2                 @ /usr/bin/../lib/gcc/arm-linux-gnueabihf/6.3.0/../../../../include/c++/6.3.0/bits/stl_iterator.h:799:2
	add	r4, r4, #12
.Ltmp246:
	.loc	11 86 14 discriminator 1 @ /root/Bela/projects/Thesis/RecordWav.cpp:86:14
	cmp	r6, r4
	bne	.LBB4_6
.Ltmp247:
.LBB4_10:                               @ %._crit_edge53
	.loc	9 777 20                @ /usr/bin/../lib/gcc/arm-linux-gnueabihf/6.3.0/../../../../include/c++/6.3.0/bits/stl_iterator.h:777:20
	ldrd	r6, r7, [r5, #40]
.Ltmp248:
	.loc	11 88 14 discriminator 1 @ /root/Bela/projects/Thesis/RecordWav.cpp:88:14
	cmp	r6, r7
	beq	.LBB4_15
.LBB4_11:                               @ %.lr.ph48
                                        @ =>This Inner Loop Header: Depth=1
.Ltmp249:
	@DEBUG_VALUE: o <- %R6
	.loc	7 656 66                @ /usr/bin/../lib/gcc/arm-linux-gnueabihf/6.3.0/../../../../include/c++/6.3.0/bits/stl_vector.h:656:66
	ldm	r6, {r0, r2}
	.loc	7 656 50 is_stmt 0      @ /usr/bin/../lib/gcc/arm-linux-gnueabihf/6.3.0/../../../../include/c++/6.3.0/bits/stl_vector.h:656:50
	sub	r3, r2, r0
.Ltmp250:
	.loc	11 89 12 is_stmt 1      @ /root/Bela/projects/Thesis/RecordWav.cpp:89:12
	ldr	r1, [r5, #8]
.Ltmp251:
	@DEBUG_VALUE: resize:__new_size <- %R1
	.loc	7 656 50                @ /usr/bin/../lib/gcc/arm-linux-gnueabihf/6.3.0/../../../../include/c++/6.3.0/bits/stl_vector.h:656:50
	asr	r2, r3, #2
.Ltmp252:
	.loc	7 676 6                 @ /usr/bin/../lib/gcc/arm-linux-gnueabihf/6.3.0/../../../../include/c++/6.3.0/bits/stl_vector.h:676:6
	cmp	r1, r3, asr #2
	bls	.LBB4_13
.Ltmp253:
@ BB#12:                                @   in Loop: Header=BB4_11 Depth=1
	@DEBUG_VALUE: resize:__new_size <- %R1
	@DEBUG_VALUE: o <- %R6
	.loc	7 677 33                @ /usr/bin/../lib/gcc/arm-linux-gnueabihf/6.3.0/../../../../include/c++/6.3.0/bits/stl_vector.h:677:33
	sub	r1, r1, r2
.Ltmp254:
	.loc	7 677 4 is_stmt 0 discriminator 1 @ /usr/bin/../lib/gcc/arm-linux-gnueabihf/6.3.0/../../../../include/c++/6.3.0/bits/stl_vector.h:677:4
	mov	r0, r6
	bl	_ZNSt6vectorIfSaIfEE17_M_default_appendEj
	b	.LBB4_14
.Ltmp255:
.LBB4_13:                               @   in Loop: Header=BB4_11 Depth=1
	@DEBUG_VALUE: resize:__new_size <- %R1
	@DEBUG_VALUE: o <- %R6
	.loc	7 678 11 is_stmt 1      @ /usr/bin/../lib/gcc/arm-linux-gnueabihf/6.3.0/../../../../include/c++/6.3.0/bits/stl_vector.h:678:11
	cmp	r1, r2
.Ltmp256:
	.loc	7 679 43                @ /usr/bin/../lib/gcc/arm-linux-gnueabihf/6.3.0/../../../../include/c++/6.3.0/bits/stl_vector.h:679:43
	addlo	r0, r0, r1, lsl #2
.Ltmp257:
	@DEBUG_VALUE: _M_erase_at_end:__pos <- %R0
	.loc	7 1437 26               @ /usr/bin/../lib/gcc/arm-linux-gnueabihf/6.3.0/../../../../include/c++/6.3.0/bits/stl_vector.h:1437:26
	strlo	r0, [r6, #4]
.Ltmp258:
.LBB4_14:                               @ %_ZNSt6vectorIfSaIfEE6resizeEj.exit19
                                        @   in Loop: Header=BB4_11 Depth=1
	@DEBUG_VALUE: o <- %R6
	.loc	9 799 2                 @ /usr/bin/../lib/gcc/arm-linux-gnueabihf/6.3.0/../../../../include/c++/6.3.0/bits/stl_iterator.h:799:2
	add	r6, r6, #12
.Ltmp259:
	.loc	11 88 14 discriminator 1 @ /root/Bela/projects/Thesis/RecordWav.cpp:88:14
	cmp	r7, r6
	bne	.LBB4_11
.Ltmp260:
.LBB4_15:                               @ %._crit_edge49
	.loc	9 777 20                @ /usr/bin/../lib/gcc/arm-linux-gnueabihf/6.3.0/../../../../include/c++/6.3.0/bits/stl_iterator.h:777:20
	ldr	r4, [r5, #52]
.Ltmp261:
	.loc	9 777 20 is_stmt 0      @ /usr/bin/../lib/gcc/arm-linux-gnueabihf/6.3.0/../../../../include/c++/6.3.0/bits/stl_iterator.h:777:20
	ldr	r6, [r5, #56]
.Ltmp262:
	.loc	11 90 14 is_stmt 1 discriminator 1 @ /root/Bela/projects/Thesis/RecordWav.cpp:90:14
	cmp	r4, r6
	beq	.LBB4_20
.LBB4_16:                               @ %.lr.ph
                                        @ =>This Inner Loop Header: Depth=1
.Ltmp263:
	@DEBUG_VALUE: o <- %R4
	.loc	7 656 66                @ /usr/bin/../lib/gcc/arm-linux-gnueabihf/6.3.0/../../../../include/c++/6.3.0/bits/stl_vector.h:656:66
	ldm	r4, {r0, r2}
	.loc	7 656 50 is_stmt 0      @ /usr/bin/../lib/gcc/arm-linux-gnueabihf/6.3.0/../../../../include/c++/6.3.0/bits/stl_vector.h:656:50
	sub	r3, r2, r0
.Ltmp264:
	.loc	11 91 12 is_stmt 1      @ /root/Bela/projects/Thesis/RecordWav.cpp:91:12
	ldr	r1, [r5, #12]
.Ltmp265:
	@DEBUG_VALUE: resize:__new_size <- %R1
	.loc	7 656 50                @ /usr/bin/../lib/gcc/arm-linux-gnueabihf/6.3.0/../../../../include/c++/6.3.0/bits/stl_vector.h:656:50
	asr	r2, r3, #2
.Ltmp266:
	.loc	7 676 6                 @ /usr/bin/../lib/gcc/arm-linux-gnueabihf/6.3.0/../../../../include/c++/6.3.0/bits/stl_vector.h:676:6
	cmp	r1, r3, asr #2
	bls	.LBB4_18
.Ltmp267:
@ BB#17:                                @   in Loop: Header=BB4_16 Depth=1
	@DEBUG_VALUE: resize:__new_size <- %R1
	@DEBUG_VALUE: o <- %R4
	.loc	7 677 33                @ /usr/bin/../lib/gcc/arm-linux-gnueabihf/6.3.0/../../../../include/c++/6.3.0/bits/stl_vector.h:677:33
	sub	r1, r1, r2
.Ltmp268:
	.loc	7 677 4 is_stmt 0 discriminator 1 @ /usr/bin/../lib/gcc/arm-linux-gnueabihf/6.3.0/../../../../include/c++/6.3.0/bits/stl_vector.h:677:4
	mov	r0, r4
	bl	_ZNSt6vectorIfSaIfEE17_M_default_appendEj
	b	.LBB4_19
.Ltmp269:
.LBB4_18:                               @   in Loop: Header=BB4_16 Depth=1
	@DEBUG_VALUE: resize:__new_size <- %R1
	@DEBUG_VALUE: o <- %R4
	.loc	7 678 11 is_stmt 1      @ /usr/bin/../lib/gcc/arm-linux-gnueabihf/6.3.0/../../../../include/c++/6.3.0/bits/stl_vector.h:678:11
	cmp	r1, r2
.Ltmp270:
	.loc	7 679 43                @ /usr/bin/../lib/gcc/arm-linux-gnueabihf/6.3.0/../../../../include/c++/6.3.0/bits/stl_vector.h:679:43
	addlo	r0, r0, r1, lsl #2
.Ltmp271:
	@DEBUG_VALUE: _M_erase_at_end:__pos <- %R0
	.loc	7 1437 26               @ /usr/bin/../lib/gcc/arm-linux-gnueabihf/6.3.0/../../../../include/c++/6.3.0/bits/stl_vector.h:1437:26
	strlo	r0, [r4, #4]
.Ltmp272:
.LBB4_19:                               @ %_ZNSt6vectorIfSaIfEE6resizeEj.exit
                                        @   in Loop: Header=BB4_16 Depth=1
	@DEBUG_VALUE: o <- %R4
	.loc	9 799 2                 @ /usr/bin/../lib/gcc/arm-linux-gnueabihf/6.3.0/../../../../include/c++/6.3.0/bits/stl_iterator.h:799:2
	add	r4, r4, #12
.Ltmp273:
	.loc	11 90 14 discriminator 1 @ /root/Bela/projects/Thesis/RecordWav.cpp:90:14
	cmp	r6, r4
	bne	.LBB4_16
.Ltmp274:
.LBB4_20:                               @ %._crit_edge
	.loc	11 92 2                 @ /root/Bela/projects/Thesis/RecordWav.cpp:92:2
	add	r0, r5, #64
	add	r1, r5, #16
.Ltmp275:
	@DEBUG_VALUE: end:this <- %R1
	movw	r2, #44100
	bl	_ZN18AudioFileUtilities5writeERKNSt7__cxx1112basic_stringIcSt11char_traitsIcESaIcEEERKSt6vectorIS8_IfSaIfEESaISA_EEj
.Ltmp276:
	.loc	11 93 2                 @ /root/Bela/projects/Thesis/RecordWav.cpp:93:2
	add	r0, r5, #88
	add	r1, r5, #28
.Ltmp277:
	@DEBUG_VALUE: end:this <- %R1
	movw	r2, #44100
	bl	_ZN18AudioFileUtilities5writeERKNSt7__cxx1112basic_stringIcSt11char_traitsIcESaIcEEERKSt6vectorIS8_IfSaIfEESaISA_EEj
.Ltmp278:
	.loc	11 94 2                 @ /root/Bela/projects/Thesis/RecordWav.cpp:94:2
	movw	r4, :lower16:.L_MergedGlobals.1
	add	r1, r5, #40
.Ltmp279:
	@DEBUG_VALUE: end:this <- %R1
	movt	r4, :upper16:.L_MergedGlobals.1
	movw	r2, #44100
	mov	r0, r4
	bl	_ZN18AudioFileUtilities5writeERKNSt7__cxx1112basic_stringIcSt11char_traitsIcESaIcEEERKSt6vectorIS8_IfSaIfEESaISA_EEj
.Ltmp280:
	.loc	11 95 2                 @ /root/Bela/projects/Thesis/RecordWav.cpp:95:2
	add	r0, r4, #24
	add	r1, r5, #52
.Ltmp281:
	@DEBUG_VALUE: end:this <- %R1
	movw	r2, #44100
	pop	{r4, r5, r6, r7, r11, lr}
	b	_ZN18AudioFileUtilities5writeERKNSt7__cxx1112basic_stringIcSt11char_traitsIcESaIcEEERKSt6vectorIS8_IfSaIfEESaISA_EEj
.Ltmp282:
.Lfunc_end4:
	.size	_Z17cleanup_recordWAVv, .Lfunc_end4-_Z17cleanup_recordWAVv
	.cfi_endproc
	.fnend

	.section	.text._ZNSt6vectorIS_IfSaIfEESaIS1_EE17_M_default_appendEj,"axG",%progbits,_ZNSt6vectorIS_IfSaIfEESaIS1_EE17_M_default_appendEj,comdat
	.weak	_ZNSt6vectorIS_IfSaIfEESaIS1_EE17_M_default_appendEj
	.p2align	2
	.type	_ZNSt6vectorIS_IfSaIfEESaIS1_EE17_M_default_appendEj,%function
_ZNSt6vectorIS_IfSaIfEESaIS1_EE17_M_default_appendEj: @ @_ZNSt6vectorIS_IfSaIfEESaIS1_EE17_M_default_appendEj
.Lfunc_begin5:
	.file	40 "/usr/bin/../lib/gcc/arm-linux-gnueabihf/6.3.0/../../../../include/c++/6.3.0/bits" "vector.tcc"
	.loc	40 542 0                @ /usr/bin/../lib/gcc/arm-linux-gnueabihf/6.3.0/../../../../include/c++/6.3.0/bits/vector.tcc:542:0
	.fnstart
	.cfi_startproc
@ BB#0:
	.save	{r4, r5, r6, r7, r8, r9, r10, r11, lr}
	push	{r4, r5, r6, r7, r8, r9, r10, r11, lr}
.Ltmp283:
	.cfi_def_cfa_offset 36
.Ltmp284:
	.cfi_offset lr, -4
.Ltmp285:
	.cfi_offset r11, -8
.Ltmp286:
	.cfi_offset r10, -12
.Ltmp287:
	.cfi_offset r9, -16
.Ltmp288:
	.cfi_offset r8, -20
.Ltmp289:
	.cfi_offset r7, -24
.Ltmp290:
	.cfi_offset r6, -28
.Ltmp291:
	.cfi_offset r5, -32
.Ltmp292:
	.cfi_offset r4, -36
	.setfp	r11, sp, #28
	add	r11, sp, #28
.Ltmp293:
	.cfi_def_cfa r11, 8
	.pad	#4
	sub	sp, sp, #4
	@DEBUG_VALUE: _M_default_append:this <- %R0
	@DEBUG_VALUE: _M_default_append:__n <- %R1
	mov	r5, r1
.Ltmp294:
	@DEBUG_VALUE: _M_default_append:__n <- %R5
	mov	r4, r0
.Ltmp295:
	@DEBUG_VALUE: _M_default_append:this <- %R4
	.loc	40 543 11 prologue_end  @ /usr/bin/../lib/gcc/arm-linux-gnueabihf/6.3.0/../../../../include/c++/6.3.0/bits/vector.tcc:543:11
	cmp	r5, #0
	beq	.LBB5_19
.Ltmp296:
@ BB#1:
	@DEBUG_VALUE: _M_default_append:this <- %R4
	@DEBUG_VALUE: _M_default_append:__n <- %R5
	@DEBUG_VALUE: __uninit_default_n<std::vector<float, std::allocator<float> > *, unsigned int>:__cur <- %R7
	@DEBUG_VALUE: __uninit_default_n<std::vector<float, std::allocator<float> > *, unsigned int>:__first <- %R7
	@DEBUG_VALUE: __uninitialized_default_n<std::vector<float, std::allocator<float> > *, unsigned int>:__first <- %R7
	@DEBUG_VALUE: __uninitialized_default_n_a<std::vector<float, std::allocator<float> > *, unsigned int, std::vector<float, std::allocator<float> > >:__first <- %R7
	.loc	40 546 20               @ /usr/bin/../lib/gcc/arm-linux-gnueabihf/6.3.0/../../../../include/c++/6.3.0/bits/vector.tcc:546:20
	ldr	r7, [r4, #4]
.Ltmp297:
	.loc	40 546 4 is_stmt 0      @ /usr/bin/../lib/gcc/arm-linux-gnueabihf/6.3.0/../../../../include/c++/6.3.0/bits/vector.tcc:546:4
	movw	r2, #43691
	.loc	40 545 32 is_stmt 1     @ /usr/bin/../lib/gcc/arm-linux-gnueabihf/6.3.0/../../../../include/c++/6.3.0/bits/vector.tcc:545:32
	ldr	r0, [r4, #8]
	.loc	40 546 4                @ /usr/bin/../lib/gcc/arm-linux-gnueabihf/6.3.0/../../../../include/c++/6.3.0/bits/vector.tcc:546:4
	movt	r2, #43690
	sub	r0, r0, r7
	asr	r0, r0, #2
	mul	r0, r0, r2
.Ltmp298:
	.loc	40 545 8                @ /usr/bin/../lib/gcc/arm-linux-gnueabihf/6.3.0/../../../../include/c++/6.3.0/bits/vector.tcc:545:8
	cmp	r0, r5
	bhs	.LBB5_6
.Ltmp299:
@ BB#2:
	@DEBUG_VALUE: _M_default_append:this <- %R4
	@DEBUG_VALUE: _M_default_append:__n <- %R5
	@DEBUG_VALUE: size:this <- %R4
	.loc	7 656 66                @ /usr/bin/../lib/gcc/arm-linux-gnueabihf/6.3.0/../../../../include/c++/6.3.0/bits/stl_vector.h:656:66
	ldr	r0, [r4]
	.loc	7 656 50 is_stmt 0      @ /usr/bin/../lib/gcc/arm-linux-gnueabihf/6.3.0/../../../../include/c++/6.3.0/bits/stl_vector.h:656:50
	sub	r1, r7, r0
	asr	r3, r1, #2
	movw	r1, #21845
	movt	r1, #5461
.Ltmp300:
	.loc	7 1422 17 is_stmt 1     @ /usr/bin/../lib/gcc/arm-linux-gnueabihf/6.3.0/../../../../include/c++/6.3.0/bits/stl_vector.h:1422:17
	mls	r6, r3, r2, r1
.Ltmp301:
	@DEBUG_VALUE: _M_check_len:__n <- %R5
	.loc	7 1422 6 is_stmt 0      @ /usr/bin/../lib/gcc/arm-linux-gnueabihf/6.3.0/../../../../include/c++/6.3.0/bits/stl_vector.h:1422:6
	cmp	r6, r5
	blo	.LBB5_20
.Ltmp302:
@ BB#3:                                 @ %_ZNKSt6vectorIS_IfSaIfEESaIS1_EE12_M_check_lenEjPKc.exit
	@DEBUG_VALUE: _M_check_len:__n <- %R5
	@DEBUG_VALUE: size:this <- %R4
	@DEBUG_VALUE: _M_default_append:this <- %R4
	@DEBUG_VALUE: _M_default_append:__n <- %R5
	.loc	7 656 50 is_stmt 1      @ /usr/bin/../lib/gcc/arm-linux-gnueabihf/6.3.0/../../../../include/c++/6.3.0/bits/stl_vector.h:656:50
	mul	r2, r3, r2
.Ltmp303:
	.loc	7 1425 35               @ /usr/bin/../lib/gcc/arm-linux-gnueabihf/6.3.0/../../../../include/c++/6.3.0/bits/stl_vector.h:1425:35
	cmp	r2, r5
	mov	r3, r2
	movlo	r3, r5
	add	r2, r3, r2
	.loc	7 1426 25               @ /usr/bin/../lib/gcc/arm-linux-gnueabihf/6.3.0/../../../../include/c++/6.3.0/bits/stl_vector.h:1426:25
	cmp	r2, r1
	mov	r9, r2
	movhi	r9, r1
	cmp	r2, r3
	movlo	r9, r1
.Ltmp304:
	@DEBUG_VALUE: _M_allocate:__n <- %R9
	@DEBUG_VALUE: __len <- %R9
	@DEBUG_VALUE: allocate:__n <- %R9
	@DEBUG_VALUE: allocate:__n <- %R9
	.loc	7 170 9                 @ /usr/bin/../lib/gcc/arm-linux-gnueabihf/6.3.0/../../../../include/c++/6.3.0/bits/stl_vector.h:170:9
	cmp	r9, #0
.Ltmp305:
	@DEBUG_VALUE: _M_check_len:__len <- %R2
	beq	.LBB5_7
.Ltmp306:
@ BB#4:
	@DEBUG_VALUE: _M_check_len:__len <- %R2
	@DEBUG_VALUE: allocate:__n <- %R9
	@DEBUG_VALUE: allocate:__n <- %R9
	@DEBUG_VALUE: __len <- %R9
	@DEBUG_VALUE: _M_allocate:__n <- %R9
	@DEBUG_VALUE: _M_check_len:__n <- %R5
	@DEBUG_VALUE: size:this <- %R4
	@DEBUG_VALUE: _M_default_append:this <- %R4
	@DEBUG_VALUE: _M_default_append:__n <- %R5
	.loc	3 101 6                 @ /usr/bin/../lib/gcc/arm-linux-gnueabihf/6.3.0/../../../../include/c++/6.3.0/ext/new_allocator.h:101:6
	cmp	r9, r1
	bhi	.LBB5_21
.Ltmp307:
@ BB#5:                                 @ %_ZNSt16allocator_traitsISaISt6vectorIfSaIfEEEE8allocateERS3_j.exit.i
	@DEBUG_VALUE: _M_check_len:__len <- %R2
	@DEBUG_VALUE: allocate:__n <- %R9
	@DEBUG_VALUE: allocate:__n <- %R9
	@DEBUG_VALUE: __len <- %R9
	@DEBUG_VALUE: _M_allocate:__n <- %R9
	@DEBUG_VALUE: _M_check_len:__n <- %R5
	@DEBUG_VALUE: size:this <- %R4
	@DEBUG_VALUE: _M_default_append:this <- %R4
	@DEBUG_VALUE: _M_default_append:__n <- %R5
	.loc	3 104 46                @ /usr/bin/../lib/gcc/arm-linux-gnueabihf/6.3.0/../../../../include/c++/6.3.0/ext/new_allocator.h:104:46
	add	r0, r9, r9, lsl #1
	lsl	r0, r0, #2
	.loc	3 104 27 is_stmt 0      @ /usr/bin/../lib/gcc/arm-linux-gnueabihf/6.3.0/../../../../include/c++/6.3.0/ext/new_allocator.h:104:27
	bl	_Znwj
.Ltmp308:
	mov	r8, r0
.Ltmp309:
	.loc	40 563 22 is_stmt 1     @ /usr/bin/../lib/gcc/arm-linux-gnueabihf/6.3.0/../../../../include/c++/6.3.0/bits/vector.tcc:563:22
	ldm	r4, {r0, r7}
.Ltmp310:
	@DEBUG_VALUE: size:this <- %R4
	b	.LBB5_8
.Ltmp311:
.LBB5_6:                                @ %_ZSt27__uninitialized_default_n_aIPSt6vectorIfSaIfEEjS2_ET_S4_T0_RSaIT1_E.exit
	@DEBUG_VALUE: _M_default_append:this <- %R4
	@DEBUG_VALUE: _M_default_append:__n <- %R5
	@DEBUG_VALUE: __uninitialized_default_n<std::vector<float, std::allocator<float> > *, unsigned int>:__assignable <- 1
	@DEBUG_VALUE: __uninit_default_n<std::vector<float, std::allocator<float> > *, unsigned int>:__n <- %R5
	.file	41 "/usr/bin/../lib/gcc/arm-linux-gnueabihf/6.3.0/../../../../include/c++/6.3.0/bits" "move.h"
	.loc	41 47 22                @ /usr/bin/../lib/gcc/arm-linux-gnueabihf/6.3.0/../../../../include/c++/6.3.0/bits/move.h:47:22
	add	r5, r5, r5, lsl #1
.Ltmp312:
	.loc	7 87 22                 @ /usr/bin/../lib/gcc/arm-linux-gnueabihf/6.3.0/../../../../include/c++/6.3.0/bits/stl_vector.h:87:22
	mov	r0, r7
	mov	r1, #0
.Ltmp313:
	.loc	41 47 22                @ /usr/bin/../lib/gcc/arm-linux-gnueabihf/6.3.0/../../../../include/c++/6.3.0/bits/move.h:47:22
	lsl	r2, r5, #2
.Ltmp314:
	.loc	7 87 22                 @ /usr/bin/../lib/gcc/arm-linux-gnueabihf/6.3.0/../../../../include/c++/6.3.0/bits/stl_vector.h:87:22
	bl	memset
.Ltmp315:
	.loc	41 47 22                @ /usr/bin/../lib/gcc/arm-linux-gnueabihf/6.3.0/../../../../include/c++/6.3.0/bits/move.h:47:22
	add	r0, r7, r5, lsl #2
.Ltmp316:
	.loc	40 548 32               @ /usr/bin/../lib/gcc/arm-linux-gnueabihf/6.3.0/../../../../include/c++/6.3.0/bits/vector.tcc:548:32
	str	r0, [r4, #4]
.Ltmp317:
	.loc	40 586 5 discriminator 2 @ /usr/bin/../lib/gcc/arm-linux-gnueabihf/6.3.0/../../../../include/c++/6.3.0/bits/vector.tcc:586:5
	sub	sp, r11, #28
	pop	{r4, r5, r6, r7, r8, r9, r10, r11, pc}
.Ltmp318:
.LBB5_7:                                @ %_ZNKSt6vectorIS_IfSaIfEESaIS1_EE12_M_check_lenEjPKc.exit._ZNSt12_Vector_baseISt6vectorIfSaIfEESaIS2_EE11_M_allocateEj.exit_crit_edge
	@DEBUG_VALUE: _M_check_len:__len <- %R2
	@DEBUG_VALUE: allocate:__n <- %R9
	@DEBUG_VALUE: allocate:__n <- %R9
	@DEBUG_VALUE: __len <- %R9
	@DEBUG_VALUE: _M_allocate:__n <- %R9
	@DEBUG_VALUE: _M_check_len:__n <- %R5
	@DEBUG_VALUE: size:this <- %R4
	@DEBUG_VALUE: _M_default_append:this <- %R4
	@DEBUG_VALUE: _M_default_append:__n <- %R5
	mov	r8, #0
.Ltmp319:
.LBB5_8:                                @ %_ZNSt12_Vector_baseISt6vectorIfSaIfEESaIS2_EE11_M_allocateEj.exit
	@DEBUG_VALUE: allocate:__n <- %R9
	@DEBUG_VALUE: allocate:__n <- %R9
	@DEBUG_VALUE: __len <- %R9
	@DEBUG_VALUE: _M_allocate:__n <- %R9
	@DEBUG_VALUE: _M_check_len:__n <- %R5
	@DEBUG_VALUE: size:this <- %R4
	@DEBUG_VALUE: _M_default_append:this <- %R4
	@DEBUG_VALUE: _M_default_append:__n <- %R5
	@DEBUG_VALUE: __uninitialized_move_if_noexcept_a<std::vector<float, std::allocator<float> > *, std::vector<float, std::allocator<float> > *, std::allocator<std::vector<float, std::allocator<float> > > >:__first <- %R0
	@DEBUG_VALUE: uninitialized_copy<std::move_iterator<std::vector<float, std::allocator<float> > *>, std::vector<float, std::allocator<float> > *>:__assignable <- 1
	.file	42 "/usr/bin/../lib/gcc/arm-linux-gnueabihf/6.3.0/../../../../include/c++/6.3.0/bits" "stl_uninitialized.h"
	.loc	42 123 14               @ /usr/bin/../lib/gcc/arm-linux-gnueabihf/6.3.0/../../../../include/c++/6.3.0/bits/stl_uninitialized.h:123:14
	mov	r6, r8
.Ltmp320:
	.loc	42 74 8 discriminator 2 @ /usr/bin/../lib/gcc/arm-linux-gnueabihf/6.3.0/../../../../include/c++/6.3.0/bits/stl_uninitialized.h:74:8
	cmp	r0, r7
.Ltmp321:
	@DEBUG_VALUE: __uninitialized_move_if_noexcept_a<std::vector<float, std::allocator<float> > *, std::vector<float, std::allocator<float> > *, std::allocator<std::vector<float, std::allocator<float> > > >:__last <- %R7
	beq	.LBB5_11
.Ltmp322:
@ BB#9:                                 @ %.lr.ph.i.i.i.i.preheader
	@DEBUG_VALUE: __uninitialized_move_if_noexcept_a<std::vector<float, std::allocator<float> > *, std::vector<float, std::allocator<float> > *, std::allocator<std::vector<float, std::allocator<float> > > >:__last <- %R7
	@DEBUG_VALUE: __uninitialized_move_if_noexcept_a<std::vector<float, std::allocator<float> > *, std::vector<float, std::allocator<float> > *, std::allocator<std::vector<float, std::allocator<float> > > >:__first <- %R0
	@DEBUG_VALUE: allocate:__n <- %R9
	@DEBUG_VALUE: allocate:__n <- %R9
	@DEBUG_VALUE: __len <- %R9
	@DEBUG_VALUE: _M_allocate:__n <- %R9
	@DEBUG_VALUE: _M_check_len:__n <- %R5
	@DEBUG_VALUE: size:this <- %R4
	@DEBUG_VALUE: _M_default_append:this <- %R4
	@DEBUG_VALUE: _M_default_append:__n <- %R5
	mov	r1, #0
	.loc	42 123 14               @ /usr/bin/../lib/gcc/arm-linux-gnueabihf/6.3.0/../../../../include/c++/6.3.0/bits/stl_uninitialized.h:123:14
	mov	r6, r8
.Ltmp323:
.LBB5_10:                               @ %.lr.ph.i.i.i.i
                                        @ =>This Inner Loop Header: Depth=1
	@DEBUG_VALUE: __addressof<std::vector<float, std::allocator<float> > >:__r <- %R6
	@DEBUG_VALUE: _Construct<std::vector<float, std::allocator<float> >, std::vector<float, std::allocator<float> > >:__args <- %R0
	.loc	7 97 4                  @ /usr/bin/../lib/gcc/arm-linux-gnueabihf/6.3.0/../../../../include/c++/6.3.0/bits/stl_vector.h:97:4
	str	r1, [r6]
	.loc	7 97 16 is_stmt 0       @ /usr/bin/../lib/gcc/arm-linux-gnueabihf/6.3.0/../../../../include/c++/6.3.0/bits/stl_vector.h:97:16
	str	r1, [r6, #4]
	.loc	7 97 29                 @ /usr/bin/../lib/gcc/arm-linux-gnueabihf/6.3.0/../../../../include/c++/6.3.0/bits/stl_vector.h:97:29
	str	r1, [r6, #8]
.Ltmp324:
	.loc	41 191 13 is_stmt 1     @ /usr/bin/../lib/gcc/arm-linux-gnueabihf/6.3.0/../../../../include/c++/6.3.0/bits/move.h:191:13
	ldr	r2, [r0]
	.loc	41 191 11 is_stmt 0     @ /usr/bin/../lib/gcc/arm-linux-gnueabihf/6.3.0/../../../../include/c++/6.3.0/bits/move.h:191:11
	str	r2, [r6]
	.loc	41 192 11 is_stmt 1     @ /usr/bin/../lib/gcc/arm-linux-gnueabihf/6.3.0/../../../../include/c++/6.3.0/bits/move.h:192:11
	str	r1, [r0]
.Ltmp325:
	.loc	41 190 19               @ /usr/bin/../lib/gcc/arm-linux-gnueabihf/6.3.0/../../../../include/c++/6.3.0/bits/move.h:190:19
	ldr	r2, [r6, #4]
	.loc	41 191 13               @ /usr/bin/../lib/gcc/arm-linux-gnueabihf/6.3.0/../../../../include/c++/6.3.0/bits/move.h:191:13
	ldr	r3, [r0, #4]
	.loc	41 191 11 is_stmt 0     @ /usr/bin/../lib/gcc/arm-linux-gnueabihf/6.3.0/../../../../include/c++/6.3.0/bits/move.h:191:11
	str	r3, [r6, #4]
	.loc	41 192 11 is_stmt 1     @ /usr/bin/../lib/gcc/arm-linux-gnueabihf/6.3.0/../../../../include/c++/6.3.0/bits/move.h:192:11
	str	r2, [r0, #4]
.Ltmp326:
	.loc	41 190 19               @ /usr/bin/../lib/gcc/arm-linux-gnueabihf/6.3.0/../../../../include/c++/6.3.0/bits/move.h:190:19
	ldr	r2, [r6, #8]
	.loc	41 191 13               @ /usr/bin/../lib/gcc/arm-linux-gnueabihf/6.3.0/../../../../include/c++/6.3.0/bits/move.h:191:13
	ldr	r3, [r0, #8]
	.loc	41 191 11 is_stmt 0     @ /usr/bin/../lib/gcc/arm-linux-gnueabihf/6.3.0/../../../../include/c++/6.3.0/bits/move.h:191:11
	str	r3, [r6, #8]
.Ltmp327:
	.loc	42 74 51 is_stmt 1 discriminator 4 @ /usr/bin/../lib/gcc/arm-linux-gnueabihf/6.3.0/../../../../include/c++/6.3.0/bits/stl_uninitialized.h:74:51
	add	r6, r6, #12
.Ltmp328:
	@DEBUG_VALUE: __uninit_copy<std::move_iterator<std::vector<float, std::allocator<float> > *>, std::vector<float, std::allocator<float> > *>:__cur <- %R6
	.loc	41 192 11               @ /usr/bin/../lib/gcc/arm-linux-gnueabihf/6.3.0/../../../../include/c++/6.3.0/bits/move.h:192:11
	str	r2, [r0, #8]
.Ltmp329:
	.loc	9 1133 14               @ /usr/bin/../lib/gcc/arm-linux-gnueabihf/6.3.0/../../../../include/c++/6.3.0/bits/stl_iterator.h:1133:14
	add	r0, r0, #12
.Ltmp330:
	.loc	42 74 8 discriminator 2 @ /usr/bin/../lib/gcc/arm-linux-gnueabihf/6.3.0/../../../../include/c++/6.3.0/bits/stl_uninitialized.h:74:8
	cmp	r0, r7
	bne	.LBB5_10
.Ltmp331:
.LBB5_11:                               @ %.loopexit
	@DEBUG_VALUE: __uninitialized_default_n<std::vector<float, std::allocator<float> > *, unsigned int>:__assignable <- 1
	@DEBUG_VALUE: __uninit_default_n<std::vector<float, std::allocator<float> > *, unsigned int>:__cur <- %R6
	@DEBUG_VALUE: __uninit_default_n<std::vector<float, std::allocator<float> > *, unsigned int>:__n <- %R5
	.loc	41 47 22                @ /usr/bin/../lib/gcc/arm-linux-gnueabihf/6.3.0/../../../../include/c++/6.3.0/bits/move.h:47:22
	add	r10, r5, r5, lsl #1
.Ltmp332:
	.loc	7 87 22                 @ /usr/bin/../lib/gcc/arm-linux-gnueabihf/6.3.0/../../../../include/c++/6.3.0/bits/stl_vector.h:87:22
	mov	r0, r6
	mov	r1, #0
.Ltmp333:
	.loc	41 47 22                @ /usr/bin/../lib/gcc/arm-linux-gnueabihf/6.3.0/../../../../include/c++/6.3.0/bits/move.h:47:22
	lsl	r2, r10, #2
.Ltmp334:
	.loc	7 87 22                 @ /usr/bin/../lib/gcc/arm-linux-gnueabihf/6.3.0/../../../../include/c++/6.3.0/bits/stl_vector.h:87:22
	bl	memset
.Ltmp335:
	@DEBUG_VALUE: __destroy<std::vector<float, std::allocator<float> > *>:__last <- %R7
	@DEBUG_VALUE: _Destroy<std::vector<float, std::allocator<float> > *>:__last <- %R7
	@DEBUG_VALUE: _Destroy<std::vector<float, std::allocator<float> > *, std::vector<float, std::allocator<float> > >:__last <- %R7
	@DEBUG_VALUE: _Destroy<std::vector<float, std::allocator<float> > *, std::vector<float, std::allocator<float> > >:__first <- %R5
	@DEBUG_VALUE: _Destroy<std::vector<float, std::allocator<float> > *>:__first <- %R5
	@DEBUG_VALUE: __destroy<std::vector<float, std::allocator<float> > *>:__first <- %R5
	.loc	40 576 36               @ /usr/bin/../lib/gcc/arm-linux-gnueabihf/6.3.0/../../../../include/c++/6.3.0/bits/vector.tcc:576:36
	ldm	r4, {r5, r7}
.Ltmp336:
	.loc	37 102 4 discriminator 1 @ /usr/bin/../lib/gcc/arm-linux-gnueabihf/6.3.0/../../../../include/c++/6.3.0/bits/stl_construct.h:102:4
	cmp	r5, r7
	beq	.LBB5_16
.Ltmp337:
.LBB5_12:                               @ %.lr.ph.i.i.i
                                        @ =>This Inner Loop Header: Depth=1
	@DEBUG_VALUE: __addressof<std::vector<float, std::allocator<float> > >:__r <- %R5
	.loc	7 160 37                @ /usr/bin/../lib/gcc/arm-linux-gnueabihf/6.3.0/../../../../include/c++/6.3.0/bits/stl_vector.h:160:37
	ldr	r0, [r5]
.Ltmp338:
	@DEBUG_VALUE: _M_deallocate:__p <- %R0
	@DEBUG_VALUE: deallocate:__p <- %R0
	@DEBUG_VALUE: deallocate:__p <- %R0
	.loc	7 177 6                 @ /usr/bin/../lib/gcc/arm-linux-gnueabihf/6.3.0/../../../../include/c++/6.3.0/bits/stl_vector.h:177:6
	cmp	r0, #0
	beq	.LBB5_14
.Ltmp339:
@ BB#13:                                @   in Loop: Header=BB5_12 Depth=1
	@DEBUG_VALUE: deallocate:__p <- %R0
	@DEBUG_VALUE: deallocate:__p <- %R0
	@DEBUG_VALUE: _M_deallocate:__p <- %R0
	@DEBUG_VALUE: __addressof<std::vector<float, std::allocator<float> > >:__r <- %R5
	.loc	3 110 9                 @ /usr/bin/../lib/gcc/arm-linux-gnueabihf/6.3.0/../../../../include/c++/6.3.0/ext/new_allocator.h:110:9
	bl	_ZdlPv
.Ltmp340:
.LBB5_14:                               @ %_ZSt8_DestroyISt6vectorIfSaIfEEEvPT_.exit.i.i.i
                                        @   in Loop: Header=BB5_12 Depth=1
	@DEBUG_VALUE: __addressof<std::vector<float, std::allocator<float> > >:__r <- %R5
	.loc	37 102 30 discriminator 2 @ /usr/bin/../lib/gcc/arm-linux-gnueabihf/6.3.0/../../../../include/c++/6.3.0/bits/stl_construct.h:102:30
	add	r5, r5, #12
.Ltmp341:
	@DEBUG_VALUE: __destroy<std::vector<float, std::allocator<float> > *>:__first <- %R5
	.loc	37 102 4 is_stmt 0 discriminator 1 @ /usr/bin/../lib/gcc/arm-linux-gnueabihf/6.3.0/../../../../include/c++/6.3.0/bits/stl_construct.h:102:4
	cmp	r7, r5
	bne	.LBB5_12
.Ltmp342:
@ BB#15:                                @ %_ZSt8_DestroyIPSt6vectorIfSaIfEES2_EvT_S4_RSaIT0_E.exitthread-pre-split
	@DEBUG_VALUE: __destroy<std::vector<float, std::allocator<float> > *>:__first <- %R5
	.loc	40 578 36 is_stmt 1     @ /usr/bin/../lib/gcc/arm-linux-gnueabihf/6.3.0/../../../../include/c++/6.3.0/bits/vector.tcc:578:36
	ldr	r5, [r4]
.Ltmp343:
.LBB5_16:                               @ %_ZSt8_DestroyIPSt6vectorIfSaIfEES2_EvT_S4_RSaIT0_E.exit
	.loc	41 47 22                @ /usr/bin/../lib/gcc/arm-linux-gnueabihf/6.3.0/../../../../include/c++/6.3.0/bits/move.h:47:22
	add	r6, r6, r10, lsl #2
.Ltmp344:
	@DEBUG_VALUE: _M_deallocate:__p <- %R5
	@DEBUG_VALUE: __new_finish <- %R6
	.loc	7 177 6                 @ /usr/bin/../lib/gcc/arm-linux-gnueabihf/6.3.0/../../../../include/c++/6.3.0/bits/stl_vector.h:177:6
	cmp	r5, #0
	beq	.LBB5_18
.Ltmp345:
@ BB#17:
	@DEBUG_VALUE: __new_finish <- %R6
	@DEBUG_VALUE: _M_deallocate:__p <- %R5
	.loc	3 110 9                 @ /usr/bin/../lib/gcc/arm-linux-gnueabihf/6.3.0/../../../../include/c++/6.3.0/ext/new_allocator.h:110:9
	mov	r0, r5
	bl	_ZdlPv
.Ltmp346:
.LBB5_18:                               @ %_ZNSt12_Vector_baseISt6vectorIfSaIfEESaIS2_EE13_M_deallocateEPS2_j.exit31
	@DEBUG_VALUE: __new_finish <- %R6
	@DEBUG_VALUE: _M_deallocate:__p <- %R5
	.loc	40 583 54               @ /usr/bin/../lib/gcc/arm-linux-gnueabihf/6.3.0/../../../../include/c++/6.3.0/bits/vector.tcc:583:54
	add	r0, r9, r9, lsl #1
	.loc	40 581 31               @ /usr/bin/../lib/gcc/arm-linux-gnueabihf/6.3.0/../../../../include/c++/6.3.0/bits/vector.tcc:581:31
	str	r8, [r4]
	.loc	40 582 32               @ /usr/bin/../lib/gcc/arm-linux-gnueabihf/6.3.0/../../../../include/c++/6.3.0/bits/vector.tcc:582:32
	str	r6, [r4, #4]
	.loc	40 583 54               @ /usr/bin/../lib/gcc/arm-linux-gnueabihf/6.3.0/../../../../include/c++/6.3.0/bits/vector.tcc:583:54
	add	r0, r8, r0, lsl #2
.Ltmp347:
	@DEBUG_VALUE: __uninitialized_move_if_noexcept_a<std::vector<float, std::allocator<float> > *, std::vector<float, std::allocator<float> > *, std::allocator<std::vector<float, std::allocator<float> > > >:__result <- %R8
	.loc	40 583 40 is_stmt 0     @ /usr/bin/../lib/gcc/arm-linux-gnueabihf/6.3.0/../../../../include/c++/6.3.0/bits/vector.tcc:583:40
	str	r0, [r4, #8]
.Ltmp348:
.LBB5_19:
	.loc	40 586 5 is_stmt 1 discriminator 2 @ /usr/bin/../lib/gcc/arm-linux-gnueabihf/6.3.0/../../../../include/c++/6.3.0/bits/vector.tcc:586:5
	sub	sp, r11, #28
	pop	{r4, r5, r6, r7, r8, r9, r10, r11, pc}
.LBB5_20:
.Ltmp349:
	@DEBUG_VALUE: _M_check_len:__n <- %R5
	@DEBUG_VALUE: size:this <- %R4
	@DEBUG_VALUE: _M_default_append:this <- %R4
	@DEBUG_VALUE: _M_default_append:__n <- %R5
	.loc	7 1423 4                @ /usr/bin/../lib/gcc/arm-linux-gnueabihf/6.3.0/../../../../include/c++/6.3.0/bits/stl_vector.h:1423:4
	movw	r0, :lower16:.L.str.13
	movt	r0, :upper16:.L.str.13
.Ltmp350:
	@DEBUG_VALUE: _M_check_len:__s <- %R0
	mov	lr, pc
	b	_ZSt20__throw_length_errorPKc
.Ltmp351:
.LBB5_21:
	@DEBUG_VALUE: _M_check_len:__len <- %R2
	@DEBUG_VALUE: allocate:__n <- %R9
	@DEBUG_VALUE: allocate:__n <- %R9
	@DEBUG_VALUE: __len <- %R9
	@DEBUG_VALUE: _M_allocate:__n <- %R9
	@DEBUG_VALUE: _M_check_len:__n <- %R5
	@DEBUG_VALUE: size:this <- %R4
	@DEBUG_VALUE: _M_default_append:this <- %R4
	@DEBUG_VALUE: _M_default_append:__n <- %R5
	.loc	3 102 4                 @ /usr/bin/../lib/gcc/arm-linux-gnueabihf/6.3.0/../../../../include/c++/6.3.0/ext/new_allocator.h:102:4
	mov	lr, pc
	b	_ZSt17__throw_bad_allocv
.Ltmp352:
.Lfunc_end5:
	.size	_ZNSt6vectorIS_IfSaIfEESaIS1_EE17_M_default_appendEj, .Lfunc_end5-_ZNSt6vectorIS_IfSaIfEESaIS1_EE17_M_default_appendEj
	.cfi_endproc
	.fnend

	.section	.text._ZNSt6vectorIfSaIfEE17_M_default_appendEj,"axG",%progbits,_ZNSt6vectorIfSaIfEE17_M_default_appendEj,comdat
	.weak	_ZNSt6vectorIfSaIfEE17_M_default_appendEj
	.p2align	2
	.type	_ZNSt6vectorIfSaIfEE17_M_default_appendEj,%function
_ZNSt6vectorIfSaIfEE17_M_default_appendEj: @ @_ZNSt6vectorIfSaIfEE17_M_default_appendEj
.Lfunc_begin6:
	.loc	40 542 0                @ /usr/bin/../lib/gcc/arm-linux-gnueabihf/6.3.0/../../../../include/c++/6.3.0/bits/vector.tcc:542:0
	.fnstart
	.cfi_startproc
@ BB#0:
	.save	{r4, r5, r6, r7, r8, r10, r11, lr}
	push	{r4, r5, r6, r7, r8, r10, r11, lr}
.Ltmp353:
	.cfi_def_cfa_offset 32
.Ltmp354:
	.cfi_offset lr, -4
.Ltmp355:
	.cfi_offset r11, -8
.Ltmp356:
	.cfi_offset r10, -12
.Ltmp357:
	.cfi_offset r8, -16
.Ltmp358:
	.cfi_offset r7, -20
.Ltmp359:
	.cfi_offset r6, -24
.Ltmp360:
	.cfi_offset r5, -28
.Ltmp361:
	.cfi_offset r4, -32
	.setfp	r11, sp, #24
	add	r11, sp, #24
.Ltmp362:
	.cfi_def_cfa r11, 8
	@DEBUG_VALUE: _M_default_append:this <- %R0
	@DEBUG_VALUE: _M_default_append:__n <- %R1
	mov	r5, r1
.Ltmp363:
	@DEBUG_VALUE: _M_default_append:__n <- %R5
	mov	r4, r0
.Ltmp364:
	@DEBUG_VALUE: _M_default_append:this <- %R4
	.loc	40 543 11 prologue_end  @ /usr/bin/../lib/gcc/arm-linux-gnueabihf/6.3.0/../../../../include/c++/6.3.0/bits/vector.tcc:543:11
	cmp	r5, #0
	beq	.LBB6_11
.Ltmp365:
@ BB#1:
	@DEBUG_VALUE: _M_default_append:this <- %R4
	@DEBUG_VALUE: _M_default_append:__n <- %R5
	@DEBUG_VALUE: __fill_n_a<float *, unsigned int, float>:__first <- %R7
	@DEBUG_VALUE: fill_n<float *, unsigned int, float>:__first <- %R7
	@DEBUG_VALUE: __uninit_default_n<float *, unsigned int>:__first <- %R7
	@DEBUG_VALUE: __uninitialized_default_n<float *, unsigned int>:__first <- %R7
	@DEBUG_VALUE: __uninitialized_default_n_a<float *, unsigned int, float>:__first <- %R7
	.loc	40 546 20               @ /usr/bin/../lib/gcc/arm-linux-gnueabihf/6.3.0/../../../../include/c++/6.3.0/bits/vector.tcc:546:20
	ldr	r7, [r4, #4]
.Ltmp366:
	.loc	40 545 32               @ /usr/bin/../lib/gcc/arm-linux-gnueabihf/6.3.0/../../../../include/c++/6.3.0/bits/vector.tcc:545:32
	ldr	r0, [r4, #8]
	.loc	40 546 4                @ /usr/bin/../lib/gcc/arm-linux-gnueabihf/6.3.0/../../../../include/c++/6.3.0/bits/vector.tcc:546:4
	sub	r0, r0, r7
	asr	r0, r0, #2
.Ltmp367:
	.loc	40 545 8                @ /usr/bin/../lib/gcc/arm-linux-gnueabihf/6.3.0/../../../../include/c++/6.3.0/bits/vector.tcc:545:8
	cmp	r0, r5
	bhs	.LBB6_12
.Ltmp368:
@ BB#2:
	@DEBUG_VALUE: _M_default_append:this <- %R4
	@DEBUG_VALUE: _M_default_append:__n <- %R5
	@DEBUG_VALUE: size:this <- %R4
	.loc	7 656 66                @ /usr/bin/../lib/gcc/arm-linux-gnueabihf/6.3.0/../../../../include/c++/6.3.0/bits/stl_vector.h:656:66
	ldr	r1, [r4]
.Ltmp369:
	.loc	7 1422 17               @ /usr/bin/../lib/gcc/arm-linux-gnueabihf/6.3.0/../../../../include/c++/6.3.0/bits/stl_vector.h:1422:17
	mvn	r8, #-1073741824
.Ltmp370:
	.loc	7 656 50                @ /usr/bin/../lib/gcc/arm-linux-gnueabihf/6.3.0/../../../../include/c++/6.3.0/bits/stl_vector.h:656:50
	sub	r0, r7, r1
.Ltmp371:
	.loc	7 1422 17               @ /usr/bin/../lib/gcc/arm-linux-gnueabihf/6.3.0/../../../../include/c++/6.3.0/bits/stl_vector.h:1422:17
	sub	r2, r8, r0, asr #2
.Ltmp372:
	@DEBUG_VALUE: _M_check_len:__n <- %R5
	.loc	7 1422 6 is_stmt 0      @ /usr/bin/../lib/gcc/arm-linux-gnueabihf/6.3.0/../../../../include/c++/6.3.0/bits/stl_vector.h:1422:6
	cmp	r2, r5
	blo	.LBB6_13
.Ltmp373:
@ BB#3:                                 @ %_ZNKSt6vectorIfSaIfEE12_M_check_lenEjPKc.exit
	@DEBUG_VALUE: _M_check_len:__n <- %R5
	@DEBUG_VALUE: size:this <- %R4
	@DEBUG_VALUE: _M_default_append:this <- %R4
	@DEBUG_VALUE: _M_default_append:__n <- %R5
	.loc	7 656 50 is_stmt 1      @ /usr/bin/../lib/gcc/arm-linux-gnueabihf/6.3.0/../../../../include/c++/6.3.0/bits/stl_vector.h:656:50
	asr	r0, r0, #2
.Ltmp374:
	.loc	7 1425 35               @ /usr/bin/../lib/gcc/arm-linux-gnueabihf/6.3.0/../../../../include/c++/6.3.0/bits/stl_vector.h:1425:35
	cmp	r0, r5
	mov	r2, r0
	mov	r6, #0
	movlo	r2, r5
	add	r0, r2, r0
	.loc	7 1426 25               @ /usr/bin/../lib/gcc/arm-linux-gnueabihf/6.3.0/../../../../include/c++/6.3.0/bits/stl_vector.h:1426:25
	cmp	r6, r0, lsr #30
	mov	r3, r0
	mvnne	r3, #-1073741824
	cmp	r0, r2
	movhs	r8, r3
.Ltmp375:
	@DEBUG_VALUE: _M_allocate:__n <- %R8
	@DEBUG_VALUE: __len <- %R8
	@DEBUG_VALUE: allocate:__n <- %R8
	@DEBUG_VALUE: allocate:__n <- %R8
	.loc	7 170 9                 @ /usr/bin/../lib/gcc/arm-linux-gnueabihf/6.3.0/../../../../include/c++/6.3.0/bits/stl_vector.h:170:9
	cmp	r8, #0
.Ltmp376:
	@DEBUG_VALUE: _M_check_len:__len <- %R0
	beq	.LBB6_6
.Ltmp377:
@ BB#4:
	@DEBUG_VALUE: _M_check_len:__len <- %R0
	@DEBUG_VALUE: allocate:__n <- %R8
	@DEBUG_VALUE: allocate:__n <- %R8
	@DEBUG_VALUE: __len <- %R8
	@DEBUG_VALUE: _M_allocate:__n <- %R8
	@DEBUG_VALUE: _M_check_len:__n <- %R5
	@DEBUG_VALUE: size:this <- %R4
	@DEBUG_VALUE: _M_default_append:this <- %R4
	@DEBUG_VALUE: _M_default_append:__n <- %R5
	.loc	3 101 6                 @ /usr/bin/../lib/gcc/arm-linux-gnueabihf/6.3.0/../../../../include/c++/6.3.0/ext/new_allocator.h:101:6
	cmp	r8, #1073741824
	bhs	.LBB6_14
.Ltmp378:
@ BB#5:                                 @ %_ZNSt16allocator_traitsISaIfEE8allocateERS0_j.exit.i
	@DEBUG_VALUE: _M_check_len:__len <- %R0
	@DEBUG_VALUE: allocate:__n <- %R8
	@DEBUG_VALUE: allocate:__n <- %R8
	@DEBUG_VALUE: __len <- %R8
	@DEBUG_VALUE: _M_allocate:__n <- %R8
	@DEBUG_VALUE: _M_check_len:__n <- %R5
	@DEBUG_VALUE: size:this <- %R4
	@DEBUG_VALUE: _M_default_append:this <- %R4
	@DEBUG_VALUE: _M_default_append:__n <- %R5
	.loc	3 104 46                @ /usr/bin/../lib/gcc/arm-linux-gnueabihf/6.3.0/../../../../include/c++/6.3.0/ext/new_allocator.h:104:46
	lsl	r0, r8, #2
.Ltmp379:
	.loc	3 104 27 is_stmt 0      @ /usr/bin/../lib/gcc/arm-linux-gnueabihf/6.3.0/../../../../include/c++/6.3.0/ext/new_allocator.h:104:27
	bl	_Znwj
.Ltmp380:
	.loc	40 563 22 is_stmt 1     @ /usr/bin/../lib/gcc/arm-linux-gnueabihf/6.3.0/../../../../include/c++/6.3.0/bits/vector.tcc:563:22
	ldm	r4, {r1, r7}
.Ltmp381:
	@DEBUG_VALUE: size:this <- %R4
	.loc	3 104 27                @ /usr/bin/../lib/gcc/arm-linux-gnueabihf/6.3.0/../../../../include/c++/6.3.0/ext/new_allocator.h:104:27
	mov	r6, r0
.Ltmp382:
.LBB6_6:                                @ %_ZNSt12_Vector_baseIfSaIfEE11_M_allocateEj.exit
	@DEBUG_VALUE: allocate:__n <- %R8
	@DEBUG_VALUE: allocate:__n <- %R8
	@DEBUG_VALUE: __len <- %R8
	@DEBUG_VALUE: _M_allocate:__n <- %R8
	@DEBUG_VALUE: _M_check_len:__n <- %R5
	@DEBUG_VALUE: size:this <- %R4
	@DEBUG_VALUE: _M_default_append:this <- %R4
	@DEBUG_VALUE: _M_default_append:__n <- %R5
	@DEBUG_VALUE: __uninitialized_move_if_noexcept_a<float *, float *, std::allocator<float> >:__first <- %R1
	@DEBUG_VALUE: uninitialized_copy<std::move_iterator<float *>, float *>:__assignable <- 1
	@DEBUG_VALUE: __copy_move_a<true, float *, float *>:__simple <- 1
	.file	43 "/usr/bin/../lib/gcc/arm-linux-gnueabihf/6.3.0/../../../../include/c++/6.3.0/bits" "stl_algobase.h"
	.loc	43 366 34               @ /usr/bin/../lib/gcc/arm-linux-gnueabihf/6.3.0/../../../../include/c++/6.3.0/bits/stl_algobase.h:366:34
	sub	r2, r7, r1
	mov	r0, #0
	asr	r7, r2, #2
.Ltmp383:
	@DEBUG_VALUE: __copy_m<float>:_Num <- %R7
	.loc	43 367 8                @ /usr/bin/../lib/gcc/arm-linux-gnueabihf/6.3.0/../../../../include/c++/6.3.0/bits/stl_algobase.h:367:8
	cmp	r0, r2, asr #2
	beq	.LBB6_8
.Ltmp384:
@ BB#7:
	@DEBUG_VALUE: __copy_m<float>:_Num <- %R7
	@DEBUG_VALUE: __uninitialized_move_if_noexcept_a<float *, float *, std::allocator<float> >:__first <- %R1
	@DEBUG_VALUE: allocate:__n <- %R8
	@DEBUG_VALUE: allocate:__n <- %R8
	@DEBUG_VALUE: __len <- %R8
	@DEBUG_VALUE: _M_allocate:__n <- %R8
	@DEBUG_VALUE: _M_check_len:__n <- %R5
	@DEBUG_VALUE: size:this <- %R4
	@DEBUG_VALUE: _M_default_append:this <- %R4
	@DEBUG_VALUE: _M_default_append:__n <- %R5
	.loc	43 368 6                @ /usr/bin/../lib/gcc/arm-linux-gnueabihf/6.3.0/../../../../include/c++/6.3.0/bits/stl_algobase.h:368:6
	mov	r0, r6
	bl	memmove
.Ltmp385:
	@DEBUG_VALUE: __uninitialized_move_if_noexcept_a<float *, float *, std::allocator<float> >:__result <- %R6
.LBB6_8:
	@DEBUG_VALUE: __copy_m<float>:_Num <- %R7
	@DEBUG_VALUE: allocate:__n <- %R8
	@DEBUG_VALUE: allocate:__n <- %R8
	@DEBUG_VALUE: __len <- %R8
	@DEBUG_VALUE: _M_allocate:__n <- %R8
	@DEBUG_VALUE: _M_check_len:__n <- %R5
	@DEBUG_VALUE: size:this <- %R4
	@DEBUG_VALUE: _M_default_append:this <- %R4
	@DEBUG_VALUE: _M_default_append:__n <- %R5
	.loc	43 369 20               @ /usr/bin/../lib/gcc/arm-linux-gnueabihf/6.3.0/../../../../include/c++/6.3.0/bits/stl_algobase.h:369:20
	add	r7, r6, r7, lsl #2
.Ltmp386:
	@DEBUG_VALUE: __niter <- %R5
	@DEBUG_VALUE: __fill_n_a<float *, unsigned int, float>:__first <- %R7
	@DEBUG_VALUE: fill_n<float *, unsigned int, float>:__first <- %R7
	@DEBUG_VALUE: __uninit_default_n<float *, unsigned int>:__first <- %R7
	@DEBUG_VALUE: __uninitialized_default_n<float *, unsigned int>:__assignable <- 1
	@DEBUG_VALUE: __uninitialized_default_n<float *, unsigned int>:__first <- %R7
	@DEBUG_VALUE: __uninitialized_default_n_a<float *, unsigned int, float>:__first <- %R7
	@DEBUG_VALUE: __new_finish <- %R7
	.loc	43 754 11               @ /usr/bin/../lib/gcc/arm-linux-gnueabihf/6.3.0/../../../../include/c++/6.3.0/bits/stl_algobase.h:754:11
	lsl	r2, r5, #2
	mov	r1, #0
	mov	r0, r7
	bl	memset
.Ltmp387:
	.loc	40 578 36               @ /usr/bin/../lib/gcc/arm-linux-gnueabihf/6.3.0/../../../../include/c++/6.3.0/bits/vector.tcc:578:36
	ldr	r0, [r4]
.Ltmp388:
	@DEBUG_VALUE: _M_deallocate:__p <- %R0
	@DEBUG_VALUE: deallocate:__p <- %R0
	@DEBUG_VALUE: deallocate:__p <- %R0
	.loc	43 754 11               @ /usr/bin/../lib/gcc/arm-linux-gnueabihf/6.3.0/../../../../include/c++/6.3.0/bits/stl_algobase.h:754:11
	add	r5, r7, r5, lsl #2
.Ltmp389:
	@DEBUG_VALUE: __new_finish <- %R5
	.loc	7 177 6                 @ /usr/bin/../lib/gcc/arm-linux-gnueabihf/6.3.0/../../../../include/c++/6.3.0/bits/stl_vector.h:177:6
	cmp	r0, #0
	beq	.LBB6_10
.Ltmp390:
@ BB#9:
	@DEBUG_VALUE: __new_finish <- %R5
	@DEBUG_VALUE: deallocate:__p <- %R0
	@DEBUG_VALUE: deallocate:__p <- %R0
	@DEBUG_VALUE: _M_deallocate:__p <- %R0
	@DEBUG_VALUE: __uninitialized_default_n_a<float *, unsigned int, float>:__first <- %R7
	@DEBUG_VALUE: __uninitialized_default_n<float *, unsigned int>:__first <- %R7
	@DEBUG_VALUE: __uninit_default_n<float *, unsigned int>:__first <- %R7
	@DEBUG_VALUE: fill_n<float *, unsigned int, float>:__first <- %R7
	@DEBUG_VALUE: __fill_n_a<float *, unsigned int, float>:__first <- %R7
	@DEBUG_VALUE: allocate:__n <- %R8
	@DEBUG_VALUE: allocate:__n <- %R8
	@DEBUG_VALUE: __len <- %R8
	@DEBUG_VALUE: _M_allocate:__n <- %R8
	@DEBUG_VALUE: size:this <- %R4
	@DEBUG_VALUE: _M_default_append:this <- %R4
	.loc	3 110 9                 @ /usr/bin/../lib/gcc/arm-linux-gnueabihf/6.3.0/../../../../include/c++/6.3.0/ext/new_allocator.h:110:9
	bl	_ZdlPv
.Ltmp391:
.LBB6_10:                               @ %_ZNSt12_Vector_baseIfSaIfEE13_M_deallocateEPfj.exit31
	@DEBUG_VALUE: __new_finish <- %R5
	@DEBUG_VALUE: __uninitialized_default_n_a<float *, unsigned int, float>:__first <- %R7
	@DEBUG_VALUE: __uninitialized_default_n<float *, unsigned int>:__first <- %R7
	@DEBUG_VALUE: __uninit_default_n<float *, unsigned int>:__first <- %R7
	@DEBUG_VALUE: fill_n<float *, unsigned int, float>:__first <- %R7
	@DEBUG_VALUE: __fill_n_a<float *, unsigned int, float>:__first <- %R7
	@DEBUG_VALUE: allocate:__n <- %R8
	@DEBUG_VALUE: allocate:__n <- %R8
	@DEBUG_VALUE: __len <- %R8
	@DEBUG_VALUE: _M_allocate:__n <- %R8
	@DEBUG_VALUE: size:this <- %R4
	@DEBUG_VALUE: _M_default_append:this <- %R4
	.loc	40 581 31               @ /usr/bin/../lib/gcc/arm-linux-gnueabihf/6.3.0/../../../../include/c++/6.3.0/bits/vector.tcc:581:31
	str	r6, [r4]
	.loc	40 583 54               @ /usr/bin/../lib/gcc/arm-linux-gnueabihf/6.3.0/../../../../include/c++/6.3.0/bits/vector.tcc:583:54
	add	r0, r6, r8, lsl #2
	.loc	40 582 32               @ /usr/bin/../lib/gcc/arm-linux-gnueabihf/6.3.0/../../../../include/c++/6.3.0/bits/vector.tcc:582:32
	str	r5, [r4, #4]
	.loc	40 583 40               @ /usr/bin/../lib/gcc/arm-linux-gnueabihf/6.3.0/../../../../include/c++/6.3.0/bits/vector.tcc:583:40
	str	r0, [r4, #8]
.Ltmp392:
.LBB6_11:
	@DEBUG_VALUE: _M_default_append:this <- %R4
	.loc	40 586 5 discriminator 2 @ /usr/bin/../lib/gcc/arm-linux-gnueabihf/6.3.0/../../../../include/c++/6.3.0/bits/vector.tcc:586:5
	pop	{r4, r5, r6, r7, r8, r10, r11, pc}
.Ltmp393:
.LBB6_12:                               @ %_ZSt27__uninitialized_default_n_aIPfjfET_S1_T0_RSaIT1_E.exit
	@DEBUG_VALUE: _M_default_append:this <- %R4
	@DEBUG_VALUE: _M_default_append:__n <- %R5
	@DEBUG_VALUE: __uninitialized_default_n<float *, unsigned int>:__assignable <- 1
	@DEBUG_VALUE: __niter <- %R5
	.loc	43 754 11               @ /usr/bin/../lib/gcc/arm-linux-gnueabihf/6.3.0/../../../../include/c++/6.3.0/bits/stl_algobase.h:754:11
	lsl	r2, r5, #2
	mov	r0, r7
	mov	r1, #0
	bl	memset
	add	r0, r7, r5, lsl #2
.Ltmp394:
	.loc	40 548 32               @ /usr/bin/../lib/gcc/arm-linux-gnueabihf/6.3.0/../../../../include/c++/6.3.0/bits/vector.tcc:548:32
	str	r0, [r4, #4]
.Ltmp395:
	.loc	40 586 5 discriminator 2 @ /usr/bin/../lib/gcc/arm-linux-gnueabihf/6.3.0/../../../../include/c++/6.3.0/bits/vector.tcc:586:5
	pop	{r4, r5, r6, r7, r8, r10, r11, pc}
.Ltmp396:
.LBB6_13:
	@DEBUG_VALUE: _M_check_len:__n <- %R5
	@DEBUG_VALUE: size:this <- %R4
	@DEBUG_VALUE: _M_default_append:this <- %R4
	@DEBUG_VALUE: _M_default_append:__n <- %R5
	.loc	7 1423 4                @ /usr/bin/../lib/gcc/arm-linux-gnueabihf/6.3.0/../../../../include/c++/6.3.0/bits/stl_vector.h:1423:4
	movw	r0, :lower16:.L.str.13
	movt	r0, :upper16:.L.str.13
.Ltmp397:
	@DEBUG_VALUE: _M_check_len:__s <- %R0
	mov	lr, pc
	b	_ZSt20__throw_length_errorPKc
.Ltmp398:
.LBB6_14:
	@DEBUG_VALUE: _M_check_len:__len <- %R0
	@DEBUG_VALUE: allocate:__n <- %R8
	@DEBUG_VALUE: allocate:__n <- %R8
	@DEBUG_VALUE: __len <- %R8
	@DEBUG_VALUE: _M_allocate:__n <- %R8
	@DEBUG_VALUE: _M_check_len:__n <- %R5
	@DEBUG_VALUE: size:this <- %R4
	@DEBUG_VALUE: _M_default_append:this <- %R4
	@DEBUG_VALUE: _M_default_append:__n <- %R5
	.loc	3 102 4                 @ /usr/bin/../lib/gcc/arm-linux-gnueabihf/6.3.0/../../../../include/c++/6.3.0/ext/new_allocator.h:102:4
	mov	lr, pc
	b	_ZSt17__throw_bad_allocv
.Ltmp399:
.Lfunc_end6:
	.size	_ZNSt6vectorIfSaIfEE17_M_default_appendEj, .Lfunc_end6-_ZNSt6vectorIfSaIfEE17_M_default_appendEj
	.cfi_endproc
	.file	44 "/usr/bin/../lib/gcc/arm-linux-gnueabihf/6.3.0/../../../../include/c++/6.3.0/ext" "type_traits.h"
	.fnend

	.section	.text.startup,"ax",%progbits
	.p2align	2
	.type	_GLOBAL__sub_I_RecordWav.ii,%function
_GLOBAL__sub_I_RecordWav.ii:            @ @_GLOBAL__sub_I_RecordWav.ii
.Lfunc_begin7:
	.file	45 "/root/Bela/projects/Thesis/build" "RecordWav.cpp"
	.loc	45 0 0                  @ /root/Bela/projects/Thesis/build/RecordWav.cpp:0:0
	.fnstart
	.cfi_startproc
@ BB#0:
	.save	{r4, r5, r6, r7, r8, r9, r11, lr}
	push	{r4, r5, r6, r7, r8, r9, r11, lr}
.Ltmp400:
	.cfi_def_cfa_offset 32
.Ltmp401:
	.cfi_offset lr, -4
.Ltmp402:
	.cfi_offset r11, -8
.Ltmp403:
	.cfi_offset r9, -12
.Ltmp404:
	.cfi_offset r8, -16
.Ltmp405:
	.cfi_offset r7, -20
.Ltmp406:
	.cfi_offset r6, -24
.Ltmp407:
	.cfi_offset r5, -28
.Ltmp408:
	.cfi_offset r4, -32
	.setfp	r11, sp, #24
	add	r11, sp, #24
.Ltmp409:
	.cfi_def_cfa r11, 8
.Ltmp410:
	.loc	7 87 22 prologue_end    @ /usr/bin/../lib/gcc/arm-linux-gnueabihf/6.3.0/../../../../include/c++/6.3.0/bits/stl_vector.h:87:22
	movw	r5, :lower16:.L_MergedGlobals
.Ltmp411:
	.loc	11 7 33 discriminator 1 @ /root/Bela/projects/Thesis/RecordWav.cpp:7:33
	movw	r6, :lower16:_ZNSt6vectorIS_IfSaIfEESaIS1_EED2Ev
.Ltmp412:
	.loc	7 87 22                 @ /usr/bin/../lib/gcc/arm-linux-gnueabihf/6.3.0/../../../../include/c++/6.3.0/bits/stl_vector.h:87:22
	movt	r5, :upper16:.L_MergedGlobals
.Ltmp413:
	.loc	11 7 33 discriminator 1 @ /root/Bela/projects/Thesis/RecordWav.cpp:7:33
	movw	r4, :lower16:__dso_handle
	mov	r7, #0
.Ltmp414:
	.loc	7 87 22                 @ /usr/bin/../lib/gcc/arm-linux-gnueabihf/6.3.0/../../../../include/c++/6.3.0/bits/stl_vector.h:87:22
	mov	r1, r5
	str	r7, [r1, #16]!
.Ltmp415:
	@DEBUG_VALUE: vector:this <- %R1
	.loc	11 7 33 discriminator 1 @ /root/Bela/projects/Thesis/RecordWav.cpp:7:33
	movt	r6, :upper16:_ZNSt6vectorIS_IfSaIfEESaIS1_EED2Ev
	movt	r4, :upper16:__dso_handle
	mov	r0, r6
	mov	r2, r4
.Ltmp416:
	.loc	7 87 34                 @ /usr/bin/../lib/gcc/arm-linux-gnueabihf/6.3.0/../../../../include/c++/6.3.0/bits/stl_vector.h:87:34
	str	r7, [r5, #20]
	.loc	7 87 47 is_stmt 0       @ /usr/bin/../lib/gcc/arm-linux-gnueabihf/6.3.0/../../../../include/c++/6.3.0/bits/stl_vector.h:87:47
	str	r7, [r5, #24]
.Ltmp417:
	.loc	11 7 33 is_stmt 1 discriminator 1 @ /root/Bela/projects/Thesis/RecordWav.cpp:7:33
	bl	__cxa_atexit
.Ltmp418:
	.loc	7 87 22                 @ /usr/bin/../lib/gcc/arm-linux-gnueabihf/6.3.0/../../../../include/c++/6.3.0/bits/stl_vector.h:87:22
	mov	r1, r5
.Ltmp419:
	.loc	11 8 33 discriminator 1 @ /root/Bela/projects/Thesis/RecordWav.cpp:8:33
	mov	r0, r6
.Ltmp420:
	.loc	7 87 22                 @ /usr/bin/../lib/gcc/arm-linux-gnueabihf/6.3.0/../../../../include/c++/6.3.0/bits/stl_vector.h:87:22
	str	r7, [r1, #28]!
.Ltmp421:
	.loc	11 8 33 discriminator 1 @ /root/Bela/projects/Thesis/RecordWav.cpp:8:33
	mov	r2, r4
.Ltmp422:
	.loc	7 87 34                 @ /usr/bin/../lib/gcc/arm-linux-gnueabihf/6.3.0/../../../../include/c++/6.3.0/bits/stl_vector.h:87:34
	str	r7, [r5, #32]
	.loc	7 87 47 is_stmt 0       @ /usr/bin/../lib/gcc/arm-linux-gnueabihf/6.3.0/../../../../include/c++/6.3.0/bits/stl_vector.h:87:47
	str	r7, [r5, #36]
.Ltmp423:
	.loc	11 8 33 is_stmt 1 discriminator 1 @ /root/Bela/projects/Thesis/RecordWav.cpp:8:33
	bl	__cxa_atexit
.Ltmp424:
	.loc	7 87 22                 @ /usr/bin/../lib/gcc/arm-linux-gnueabihf/6.3.0/../../../../include/c++/6.3.0/bits/stl_vector.h:87:22
	mov	r1, r5
.Ltmp425:
	.loc	11 9 32 discriminator 1 @ /root/Bela/projects/Thesis/RecordWav.cpp:9:32
	mov	r0, r6
.Ltmp426:
	.loc	7 87 22                 @ /usr/bin/../lib/gcc/arm-linux-gnueabihf/6.3.0/../../../../include/c++/6.3.0/bits/stl_vector.h:87:22
	str	r7, [r1, #40]!
.Ltmp427:
	.loc	11 9 32 discriminator 1 @ /root/Bela/projects/Thesis/RecordWav.cpp:9:32
	mov	r2, r4
.Ltmp428:
	.loc	7 87 34                 @ /usr/bin/../lib/gcc/arm-linux-gnueabihf/6.3.0/../../../../include/c++/6.3.0/bits/stl_vector.h:87:34
	str	r7, [r5, #44]
	.loc	7 87 47 is_stmt 0       @ /usr/bin/../lib/gcc/arm-linux-gnueabihf/6.3.0/../../../../include/c++/6.3.0/bits/stl_vector.h:87:47
	str	r7, [r5, #48]
.Ltmp429:
	.loc	11 9 32 is_stmt 1 discriminator 1 @ /root/Bela/projects/Thesis/RecordWav.cpp:9:32
	bl	__cxa_atexit
.Ltmp430:
	.loc	7 87 22                 @ /usr/bin/../lib/gcc/arm-linux-gnueabihf/6.3.0/../../../../include/c++/6.3.0/bits/stl_vector.h:87:22
	str	r7, [r5, #52]!
.Ltmp431:
	.loc	11 10 32 discriminator 1 @ /root/Bela/projects/Thesis/RecordWav.cpp:10:32
	mov	r0, r6
	mov	r2, r4
	mov	r1, r5
.Ltmp432:
	.loc	7 87 34                 @ /usr/bin/../lib/gcc/arm-linux-gnueabihf/6.3.0/../../../../include/c++/6.3.0/bits/stl_vector.h:87:34
	str	r7, [r5, #4]
	.loc	7 87 47 is_stmt 0       @ /usr/bin/../lib/gcc/arm-linux-gnueabihf/6.3.0/../../../../include/c++/6.3.0/bits/stl_vector.h:87:47
	str	r7, [r5, #8]
.Ltmp433:
	.loc	11 10 32 is_stmt 1 discriminator 1 @ /root/Bela/projects/Thesis/RecordWav.cpp:10:32
	bl	__cxa_atexit
.Ltmp434:
	.loc	13 110 25               @ /usr/bin/../lib/gcc/arm-linux-gnueabihf/6.3.0/../../../../include/c++/6.3.0/bits/basic_string.h:110:25
	add	r0, r5, #20
	str	r0, [r5, #12]
.Ltmp435:
	@DEBUG_VALUE: _S_copy:__n <- 12
	@DEBUG_VALUE: _M_construct<const char *>:__dnew <- 12
	.loc	15 290 33               @ /usr/bin/../lib/gcc/arm-linux-gnueabihf/6.3.0/../../../../include/c++/6.3.0/bits/char_traits.h:290:33
	movw	r0, :lower16:.L.str
.Ltmp436:
	.loc	11 11 13 discriminator 6 @ /root/Bela/projects/Thesis/RecordWav.cpp:11:13
	movw	r8, :lower16:_ZNSt7__cxx1112basic_stringIcSt11char_traitsIcESaIcEED2Ev
.Ltmp437:
	.loc	15 290 33               @ /usr/bin/../lib/gcc/arm-linux-gnueabihf/6.3.0/../../../../include/c++/6.3.0/bits/char_traits.h:290:33
	movt	r0, :upper16:.L.str
	movw	r9, #30510
	vldr	d16, [r0]
.Ltmp438:
	.loc	11 11 13 discriminator 6 @ /root/Bela/projects/Thesis/RecordWav.cpp:11:13
	movt	r8, :upper16:_ZNSt7__cxx1112basic_stringIcSt11char_traitsIcESaIcEED2Ev
.Ltmp439:
	.loc	13 110 25               @ /usr/bin/../lib/gcc/arm-linux-gnueabihf/6.3.0/../../../../include/c++/6.3.0/bits/basic_string.h:110:25
	add	r1, r5, #12
.Ltmp440:
	@DEBUG_VALUE: _M_length:this <- %R1
	@DEBUG_VALUE: _M_set_length:__n <- 12
	@DEBUG_VALUE: _M_set_length:this <- %R1
	@DEBUG_VALUE: _M_construct<const char *>:this <- %R1
	@DEBUG_VALUE: _M_construct_aux<const char *>:this <- %R1
	@DEBUG_VALUE: _M_construct<const char *>:this <- %R1
	@DEBUG_VALUE: basic_string:this <- %R1
	movt	r9, #30305
	mov	r6, #12
.Ltmp441:
	@DEBUG_VALUE: _M_length:__length <- 12
	.loc	11 11 13 discriminator 6 @ /root/Bela/projects/Thesis/RecordWav.cpp:11:13
	mov	r0, r8
	mov	r2, r4
.Ltmp442:
	.loc	15 290 33               @ /usr/bin/../lib/gcc/arm-linux-gnueabihf/6.3.0/../../../../include/c++/6.3.0/bits/char_traits.h:290:33
	str	r9, [r5, #28]
	vstr	d16, [r5, #20]
.Ltmp443:
	.loc	13 132 26               @ /usr/bin/../lib/gcc/arm-linux-gnueabihf/6.3.0/../../../../include/c++/6.3.0/bits/basic_string.h:132:26
	str	r6, [r5, #16]
.Ltmp444:
	.loc	15 243 14               @ /usr/bin/../lib/gcc/arm-linux-gnueabihf/6.3.0/../../../../include/c++/6.3.0/bits/char_traits.h:243:14
	strb	r7, [r5, #32]
.Ltmp445:
	.loc	11 11 13 discriminator 6 @ /root/Bela/projects/Thesis/RecordWav.cpp:11:13
	bl	__cxa_atexit
.Ltmp446:
	.loc	13 110 25               @ /usr/bin/../lib/gcc/arm-linux-gnueabihf/6.3.0/../../../../include/c++/6.3.0/bits/basic_string.h:110:25
	add	r0, r5, #44
	str	r0, [r5, #36]
.Ltmp447:
	@DEBUG_VALUE: _S_copy:__n <- 12
	@DEBUG_VALUE: _M_construct<const char *>:__dnew <- 12
	.loc	15 290 33               @ /usr/bin/../lib/gcc/arm-linux-gnueabihf/6.3.0/../../../../include/c++/6.3.0/bits/char_traits.h:290:33
	movw	r0, :lower16:.L.str.6
.Ltmp448:
	.loc	13 110 25               @ /usr/bin/../lib/gcc/arm-linux-gnueabihf/6.3.0/../../../../include/c++/6.3.0/bits/basic_string.h:110:25
	add	r1, r5, #36
.Ltmp449:
	@DEBUG_VALUE: _M_length:this <- %R1
	@DEBUG_VALUE: _M_set_length:__n <- 12
	@DEBUG_VALUE: _M_set_length:this <- %R1
	@DEBUG_VALUE: _M_construct<const char *>:this <- %R1
	@DEBUG_VALUE: _M_construct_aux<const char *>:this <- %R1
	@DEBUG_VALUE: _M_construct<const char *>:this <- %R1
	@DEBUG_VALUE: basic_string:this <- %R1
	.loc	15 290 33               @ /usr/bin/../lib/gcc/arm-linux-gnueabihf/6.3.0/../../../../include/c++/6.3.0/bits/char_traits.h:290:33
	movt	r0, :upper16:.L.str.6
.Ltmp450:
	.loc	11 12 13 discriminator 6 @ /root/Bela/projects/Thesis/RecordWav.cpp:12:13
	mov	r2, r4
.Ltmp451:
	.loc	15 290 33               @ /usr/bin/../lib/gcc/arm-linux-gnueabihf/6.3.0/../../../../include/c++/6.3.0/bits/char_traits.h:290:33
	vldr	d16, [r0]
.Ltmp452:
	.loc	11 12 13 discriminator 6 @ /root/Bela/projects/Thesis/RecordWav.cpp:12:13
	mov	r0, r8
.Ltmp453:
	.loc	15 290 33               @ /usr/bin/../lib/gcc/arm-linux-gnueabihf/6.3.0/../../../../include/c++/6.3.0/bits/char_traits.h:290:33
	str	r9, [r5, #52]
	vstr	d16, [r5, #44]
.Ltmp454:
	@DEBUG_VALUE: _M_length:__length <- 12
	.loc	13 132 26               @ /usr/bin/../lib/gcc/arm-linux-gnueabihf/6.3.0/../../../../include/c++/6.3.0/bits/basic_string.h:132:26
	str	r6, [r5, #40]
.Ltmp455:
	.loc	15 243 14               @ /usr/bin/../lib/gcc/arm-linux-gnueabihf/6.3.0/../../../../include/c++/6.3.0/bits/char_traits.h:243:14
	strb	r7, [r5, #56]
.Ltmp456:
	.loc	11 12 13 discriminator 6 @ /root/Bela/projects/Thesis/RecordWav.cpp:12:13
	bl	__cxa_atexit
.Ltmp457:
	.loc	13 110 25               @ /usr/bin/../lib/gcc/arm-linux-gnueabihf/6.3.0/../../../../include/c++/6.3.0/bits/basic_string.h:110:25
	movw	r5, :lower16:.L_MergedGlobals.1
	mov	r6, #13
.Ltmp458:
	@DEBUG_VALUE: _M_length:__length <- 13
	@DEBUG_VALUE: _M_set_length:__n <- 13
	movt	r5, :upper16:.L_MergedGlobals.1
	add	r0, r5, #8
.Ltmp459:
	@DEBUG_VALUE: _S_copy:__d <- %R0
	@DEBUG_VALUE: _M_construct<const char *>:__dnew <- 13
	str	r0, [r5]
.Ltmp460:
	@DEBUG_VALUE: _S_copy:__n <- 13
	.loc	15 290 33               @ /usr/bin/../lib/gcc/arm-linux-gnueabihf/6.3.0/../../../../include/c++/6.3.0/bits/char_traits.h:290:33
	movw	r0, :lower16:.L.str.8
.Ltmp461:
	movt	r0, :upper16:.L.str.8
	add	r1, r0, #5
	vldr	d17, [r0]
	add	r0, r5, #13
	vld1.8	{d16}, [r1]
.Ltmp462:
	.loc	11 13 13 discriminator 6 @ /root/Bela/projects/Thesis/RecordWav.cpp:13:13
	mov	r1, r5
	mov	r2, r4
.Ltmp463:
	.loc	15 290 33               @ /usr/bin/../lib/gcc/arm-linux-gnueabihf/6.3.0/../../../../include/c++/6.3.0/bits/char_traits.h:290:33
	vst1.8	{d16}, [r0]
.Ltmp464:
	.loc	11 13 13 discriminator 6 @ /root/Bela/projects/Thesis/RecordWav.cpp:13:13
	mov	r0, r8
.Ltmp465:
	.loc	15 290 33               @ /usr/bin/../lib/gcc/arm-linux-gnueabihf/6.3.0/../../../../include/c++/6.3.0/bits/char_traits.h:290:33
	vstr	d17, [r5, #8]
.Ltmp466:
	.loc	13 132 26               @ /usr/bin/../lib/gcc/arm-linux-gnueabihf/6.3.0/../../../../include/c++/6.3.0/bits/basic_string.h:132:26
	str	r6, [r5, #4]
.Ltmp467:
	.loc	15 243 14               @ /usr/bin/../lib/gcc/arm-linux-gnueabihf/6.3.0/../../../../include/c++/6.3.0/bits/char_traits.h:243:14
	strb	r7, [r5, #21]
.Ltmp468:
	.loc	11 13 13 discriminator 6 @ /root/Bela/projects/Thesis/RecordWav.cpp:13:13
	bl	__cxa_atexit
.Ltmp469:
	.loc	13 110 25               @ /usr/bin/../lib/gcc/arm-linux-gnueabihf/6.3.0/../../../../include/c++/6.3.0/bits/basic_string.h:110:25
	add	r0, r5, #32
	str	r0, [r5, #24]
.Ltmp470:
	@DEBUG_VALUE: _S_copy:__n <- 13
	@DEBUG_VALUE: _M_construct<const char *>:__dnew <- 13
	.loc	15 290 33               @ /usr/bin/../lib/gcc/arm-linux-gnueabihf/6.3.0/../../../../include/c++/6.3.0/bits/char_traits.h:290:33
	movw	r0, :lower16:.L.str.10
.Ltmp471:
	.loc	11 14 13 discriminator 6 @ /root/Bela/projects/Thesis/RecordWav.cpp:14:13
	mov	r2, r4
.Ltmp472:
	@DEBUG_VALUE: vector:this <- %R1
	@DEBUG_VALUE: vector:this <- %R1
	@DEBUG_VALUE: vector:this <- %R5
	@DEBUG_VALUE: _S_copy:__d <- %R0
	@DEBUG_VALUE: _S_copy:__d <- %R0
	@DEBUG_VALUE: _S_copy:__s <- %R0
	@DEBUG_VALUE: _S_copy:__s <- %R0
	@DEBUG_VALUE: _S_copy:__s <- %R0
	@DEBUG_VALUE: _S_copy:__s <- %R0
	@DEBUG_VALUE: _S_copy:__d <- %R0
	.loc	15 290 33               @ /usr/bin/../lib/gcc/arm-linux-gnueabihf/6.3.0/../../../../include/c++/6.3.0/bits/char_traits.h:290:33
	movt	r0, :upper16:.L.str.10
.Ltmp473:
	add	r1, r0, #5
.Ltmp474:
	vldr	d17, [r0]
	add	r0, r5, #37
	vld1.8	{d16}, [r1]
.Ltmp475:
	.loc	13 110 25               @ /usr/bin/../lib/gcc/arm-linux-gnueabihf/6.3.0/../../../../include/c++/6.3.0/bits/basic_string.h:110:25
	add	r1, r5, #24
.Ltmp476:
	@DEBUG_VALUE: _M_length:this <- %R1
	@DEBUG_VALUE: _M_set_length:__n <- 13
	@DEBUG_VALUE: _M_set_length:this <- %R1
	@DEBUG_VALUE: _M_construct<const char *>:this <- %R1
	@DEBUG_VALUE: _M_construct_aux<const char *>:this <- %R1
	@DEBUG_VALUE: _M_construct<const char *>:this <- %R1
	@DEBUG_VALUE: basic_string:this <- %R1
	.loc	15 290 33               @ /usr/bin/../lib/gcc/arm-linux-gnueabihf/6.3.0/../../../../include/c++/6.3.0/bits/char_traits.h:290:33
	vst1.8	{d16}, [r0]
.Ltmp477:
	.loc	11 14 13 discriminator 6 @ /root/Bela/projects/Thesis/RecordWav.cpp:14:13
	mov	r0, r8
.Ltmp478:
	.loc	15 290 33               @ /usr/bin/../lib/gcc/arm-linux-gnueabihf/6.3.0/../../../../include/c++/6.3.0/bits/char_traits.h:290:33
	vstr	d17, [r5, #32]
.Ltmp479:
	@DEBUG_VALUE: _M_length:__length <- 13
	.loc	13 132 26               @ /usr/bin/../lib/gcc/arm-linux-gnueabihf/6.3.0/../../../../include/c++/6.3.0/bits/basic_string.h:132:26
	str	r6, [r5, #28]
.Ltmp480:
	.loc	15 243 14               @ /usr/bin/../lib/gcc/arm-linux-gnueabihf/6.3.0/../../../../include/c++/6.3.0/bits/char_traits.h:243:14
	strb	r7, [r5, #45]
.Ltmp481:
	.loc	11 14 13 discriminator 6 @ /root/Bela/projects/Thesis/RecordWav.cpp:14:13
	pop	{r4, r5, r6, r7, r8, r9, r11, lr}
.Ltmp482:
	b	__cxa_atexit
.Ltmp483:
.Lfunc_end7:
	.size	_GLOBAL__sub_I_RecordWav.ii, .Lfunc_end7-_GLOBAL__sub_I_RecordWav.ii
	.cfi_endproc
	.file	46 "/usr/bin/../lib/gcc/arm-linux-gnueabihf/6.3.0/../../../../include/c++/6.3.0/bits" "basic_string.tcc"
	.fnend

	.type	.L.str,%object          @ @.str
	.section	.rodata.str1.8,"aMS",%progbits,1
	.p2align	3
.L.str:
	.asciz	"outputsL.wav"
	.size	.L.str, 13

	.type	.L.str.6,%object        @ @.str.6
	.p2align	3
.L.str.6:
	.asciz	"outputsR.wav"
	.size	.L.str.6, 13

	.type	.L.str.8,%object        @ @.str.8
	.p2align	3
.L.str.8:
	.asciz	"outputs2L.wav"
	.size	.L.str.8, 14

	.type	.L.str.10,%object       @ @.str.10
	.p2align	3
.L.str.10:
	.asciz	"outputs2R.wav"
	.size	.L.str.10, 14

	.type	.L.str.11,%object       @ @.str.11
	.section	.rodata.str1.1,"aMS",%progbits,1
.L.str.11:
	.asciz	"Error while allocating memory. Maybe you are asking to record too many frames and/or too many channels\n"
	.size	.L.str.11, 104

	.type	.L.str.13,%object       @ @.str.13
.L.str.13:
	.asciz	"vector::_M_default_append"
	.size	.L.str.13, 26

	.section	.init_array,"aw",%init_array
	.p2align	2
	.long	_GLOBAL__sub_I_RecordWav.ii(target1)
	.type	.L_MergedGlobals,%object @ @_MergedGlobals
	.local	.L_MergedGlobals
	.comm	.L_MergedGlobals,112,16
	.type	.L_MergedGlobals.1,%object @ @_MergedGlobals.1
	.local	.L_MergedGlobals.1
	.comm	.L_MergedGlobals.1,48,16