	.text
	.syntax unified
	.eabi_attribute	67, "2.09"	@ Tag_conformance
	.cpu	cortex-a8
	.eabi_attribute	6, 10	@ Tag_CPU_arch
	.eabi_attribute	7, 65	@ Tag_CPU_arch_profile
	.eabi_attribute	8, 1	@ Tag_ARM_ISA_use
	.eabi_attribute	9, 2	@ Tag_THUMB_ISA_use
	.fpu	neon
	.eabi_attribute	17, 1	@ Tag_ABI_PCS_GOT_use
	.eabi_attribute	20, 2	@ Tag_ABI_FP_denormal
	.eabi_attribute	23, 1	@ Tag_ABI_FP_number_model
	.eabi_attribute	34, 1	@ Tag_CPU_unaligned_access
	.eabi_attribute	24, 1	@ Tag_ABI_align_needed
	.eabi_attribute	25, 1	@ Tag_ABI_align_preserved
	.eabi_attribute	28, 1	@ Tag_ABI_VFP_args
	.eabi_attribute	38, 1	@ Tag_ABI_FP_16bit_format
	.eabi_attribute	18, 4	@ Tag_ABI_PCS_wchar_t
	.eabi_attribute	26, 2	@ Tag_ABI_enum_size
	.eabi_attribute	14, 0	@ Tag_ABI_PCS_R9_use
	.eabi_attribute	68, 1	@ Tag_Virtualization_use
	.file	"/root/Bela/projects/Thesis/build/render.bc"
	.file	1 "/root/Bela/projects/Thesis" "render.cpp"
	.file	2 "./include" "Bela.h"
	.file	3 "/usr/bin/../lib/gcc/arm-linux-gnueabihf/6.3.0/../../../../include/arm-linux-gnueabihf/c++/6.3.0/bits" "c++config.h"
	.file	4 "/usr/bin/../lib/gcc/arm-linux-gnueabihf/6.3.0/../../../../include/c++/6.3.0/ext" "concurrence.h"
	.file	5 "/usr/include/arm-linux-gnueabihf/bits" "math-finite.h"
	.file	6 "/usr/include/arm-linux-gnueabihf/bits" "mathcalls.h"
	.file	7 "/usr/include/arm-linux-gnueabihf/bits" "mathdef.h"
	.file	8 "/usr/bin/../lib/gcc/arm-linux-gnueabihf/6.3.0/../../../../include/c++/6.3.0/debug" "debug.h"
	.file	9 "/usr/bin/../lib/gcc/arm-linux-gnueabihf/6.3.0/../../../../include/c++/6.3.0/bits" "exception_ptr.h"
	.file	10 "/usr/include" "wchar.h"
	.file	11 "/usr/lib/llvm-3.9/bin/../lib/clang/3.9.1/include" "stddef.h"
	.file	12 "/usr/include" "libio.h"
	.file	13 "/usr/include/arm-linux-gnueabihf/bits" "types.h"
	.file	14 "/usr/include" "stdio.h"
	.file	15 "/usr/lib/llvm-3.9/bin/../lib/clang/3.9.1/include" "stdarg.h"
	.file	16 "/usr/include" "time.h"
	.file	17 "/usr/include" "stdint.h"
	.file	18 "/usr/include" "locale.h"
	.file	19 "/usr/include" "ctype.h"
	.file	20 "/usr/include" "stdlib.h"
	.file	21 "/usr/include/arm-linux-gnueabihf/bits" "stdlib-float.h"
	.file	22 "/usr/include/arm-linux-gnueabihf/bits" "stdlib-bsearch.h"
	.file	23 "/usr/bin/../lib/gcc/arm-linux-gnueabihf/6.3.0/../../../../include/c++/6.3.0" "cstdlib"
	.file	24 "/usr/include" "_G_config.h"
	.file	25 "/usr/include/arm-linux-gnueabihf/bits" "stdio.h"
	.file	26 "/usr/include" "string.h"
	.file	27 "/usr/include" "wctype.h"
	.globl	setup
	.p2align	2
	.type	setup,%function
setup:                                  @ @setup
.Lfunc_begin0:
	.loc	1 60 0                  @ /root/Bela/projects/Thesis/render.cpp:60:0
	.fnstart
	.cfi_startproc
@ BB#0:
	.save	{r4, r5, r11, lr}
	push	{r4, r5, r11, lr}
.Ltmp0:
	.cfi_def_cfa_offset 16
.Ltmp1:
	.cfi_offset lr, -4
.Ltmp2:
	.cfi_offset r11, -8
.Ltmp3:
	.cfi_offset r5, -12
.Ltmp4:
	.cfi_offset r4, -16
	.setfp	r11, sp, #8
	add	r11, sp, #8
.Ltmp5:
	.cfi_def_cfa r11, 8
	@DEBUG_VALUE: setup:context <- %R0
	@DEBUG_VALUE: setup:userData <- %R1
	mov	r4, r0
.Ltmp6:
	@DEBUG_VALUE: setup:context <- %R4
	.loc	1 63 2 prologue_end     @ /root/Bela/projects/Thesis/render.cpp:63:2
	bl	_Z18initialize_sensorsP11BelaContext
.Ltmp7:
	.loc	1 66 2                  @ /root/Bela/projects/Thesis/render.cpp:66:2
	bl	_Z13initialize_SSv
	.loc	1 69 2                  @ /root/Bela/projects/Thesis/render.cpp:69:2
	bl	_Z20initialize_recordingv
.Ltmp8:
	.loc	1 72 14                 @ /root/Bela/projects/Thesis/render.cpp:72:14
	ldr	r1, [r4, #36]
	.loc	1 72 32 is_stmt 0       @ /root/Bela/projects/Thesis/render.cpp:72:32
	cmp	r1, #0
	beq	.LBB0_2
.Ltmp9:
@ BB#1:
	@DEBUG_VALUE: setup:context <- %R4
	.loc	1 72 68 discriminator 1 @ /root/Bela/projects/Thesis/render.cpp:72:68
	ldr	r0, [r4, #20]
	.loc	1 72 5 discriminator 1  @ /root/Bela/projects/Thesis/render.cpp:72:5
	cmp	r1, r0
	bls	.LBB0_3
.Ltmp10:
.LBB0_2:
	@DEBUG_VALUE: setup:context <- %R4
	.loc	1 73 3 is_stmt 1        @ /root/Bela/projects/Thesis/render.cpp:73:3
	movw	r0, :lower16:.L.str
	movt	r0, :upper16:.L.str
	bl	rt_printf
	mov	r0, #0
.Ltmp11:
	.loc	1 86 1                  @ /root/Bela/projects/Thesis/render.cpp:86:1
	pop	{r4, r5, r11, pc}
.Ltmp12:
.LBB0_3:
	@DEBUG_VALUE: setup:context <- %R4
	.loc	1 79 53                 @ /root/Bela/projects/Thesis/render.cpp:79:53
	bl	__aeabi_uidiv
	.loc	1 79 30 is_stmt 0       @ /root/Bela/projects/Thesis/render.cpp:79:30
	movw	r5, :lower16:.L_MergedGlobals
.Ltmp13:
	.loc	1 81 13 is_stmt 1       @ /root/Bela/projects/Thesis/render.cpp:81:13
	movw	r2, :lower16:.L.str.1
.Ltmp14:
	.loc	1 79 30                 @ /root/Bela/projects/Thesis/render.cpp:79:30
	movt	r5, :upper16:.L_MergedGlobals
.Ltmp15:
	.loc	1 81 13                 @ /root/Bela/projects/Thesis/render.cpp:81:13
	movt	r2, :upper16:.L.str.1
.Ltmp16:
	.loc	1 79 30                 @ /root/Bela/projects/Thesis/render.cpp:79:30
	str	r0, [r5]
.Ltmp17:
	.loc	1 81 13                 @ /root/Bela/projects/Thesis/render.cpp:81:13
	movw	r0, :lower16:_Z18readAudioFunctionsPv
	movt	r0, :upper16:_Z18readAudioFunctionsPv
	mov	r1, #80
	mov	r3, #0
	bl	Bela_createAuxiliaryTask
	.loc	1 81 11 is_stmt 0       @ /root/Bela/projects/Thesis/render.cpp:81:11
	str	r0, [r5, #28]
	.loc	1 83 51 is_stmt 1       @ /root/Bela/projects/Thesis/render.cpp:83:51
	ldr	r0, [r5, #40]
	.loc	1 83 33 is_stmt 0       @ /root/Bela/projects/Thesis/render.cpp:83:33
	vldr	s0, [r4, #32]
	.loc	1 83 51                 @ /root/Bela/projects/Thesis/render.cpp:83:51
	vmov	s2, r0
	vcvt.f32.s32	d1, d1
	.loc	1 83 49                 @ /root/Bela/projects/Thesis/render.cpp:83:49
	vdiv.f32	s0, s0, s2
	.loc	1 83 24                 @ /root/Bela/projects/Thesis/render.cpp:83:24
	vcvt.s32.f32	d0, d0
	vmov	r0, s0
	.loc	1 83 22                 @ /root/Bela/projects/Thesis/render.cpp:83:22
	str	r0, [r5, #36]
	mov	r0, #1
	.loc	1 86 1 is_stmt 1        @ /root/Bela/projects/Thesis/render.cpp:86:1
	pop	{r4, r5, r11, pc}
.Ltmp18:
.Lfunc_end0:
	.size	setup, .Lfunc_end0-setup
	.cfi_endproc
	.fnend

	.globl	_Z18readAudioFunctionsPv
	.p2align	2
	.type	_Z18readAudioFunctionsPv,%function
_Z18readAudioFunctionsPv:               @ @_Z18readAudioFunctionsPv
.Lfunc_begin1:
	.loc	1 183 0                 @ /root/Bela/projects/Thesis/render.cpp:183:0
	.fnstart
	.cfi_startproc
@ BB#0:
	.save	{r4, r10, r11, lr}
	push	{r4, r10, r11, lr}
.Ltmp19:
	.cfi_def_cfa_offset 16
.Ltmp20:
	.cfi_offset lr, -4
.Ltmp21:
	.cfi_offset r11, -8
.Ltmp22:
	.cfi_offset r10, -12
.Ltmp23:
	.cfi_offset r4, -16
	.setfp	r11, sp, #8
	add	r11, sp, #8
.Ltmp24:
	.cfi_def_cfa r11, 8
	@DEBUG_VALUE: readAudioFunctions: <- %R0
.Ltmp25:
	.loc	1 186 29 prologue_end   @ /root/Bela/projects/Thesis/render.cpp:186:29
	movw	r4, :lower16:.L_MergedGlobals
	.loc	1 186 2 is_stmt 0       @ /root/Bela/projects/Thesis/render.cpp:186:2
	mvn	r0, #0
.Ltmp26:
	.loc	1 186 29                @ /root/Bela/projects/Thesis/render.cpp:186:29
	movt	r4, :upper16:.L_MergedGlobals
	vldr	s0, [r4, #4]
	.loc	1 186 2                 @ /root/Bela/projects/Thesis/render.cpp:186:2
	bl	Bela_setAudioInputGain
	.loc	1 187 23 is_stmt 1      @ /root/Bela/projects/Thesis/render.cpp:187:23
	vldr	s0, [r4, #8]
	.loc	1 187 2 is_stmt 0       @ /root/Bela/projects/Thesis/render.cpp:187:2
	mvn	r0, #0
	pop	{r4, r10, r11, lr}
	b	Bela_setHpLevel
.Ltmp27:
.Lfunc_end1:
	.size	_Z18readAudioFunctionsPv, .Lfunc_end1-_Z18readAudioFunctionsPv
	.cfi_endproc
	.fnend

	.globl	render
	.p2align	2
	.type	render,%function
render:                                 @ @render
.Lfunc_begin2:
	.loc	1 91 0 is_stmt 1        @ /root/Bela/projects/Thesis/render.cpp:91:0
	.fnstart
	.cfi_startproc
@ BB#0:
	.save	{r4, r5, r6, r7, r8, r9, r10, r11, lr}
	push	{r4, r5, r6, r7, r8, r9, r10, r11, lr}
.Ltmp28:
	.cfi_def_cfa_offset 36
.Ltmp29:
	.cfi_offset lr, -4
.Ltmp30:
	.cfi_offset r11, -8
.Ltmp31:
	.cfi_offset r10, -12
.Ltmp32:
	.cfi_offset r9, -16
.Ltmp33:
	.cfi_offset r8, -20
.Ltmp34:
	.cfi_offset r7, -24
.Ltmp35:
	.cfi_offset r6, -28
.Ltmp36:
	.cfi_offset r5, -32
.Ltmp37:
	.cfi_offset r4, -36
	.setfp	r11, sp, #28
	add	r11, sp, #28
.Ltmp38:
	.cfi_def_cfa r11, 8
	.pad	#4
	sub	sp, sp, #4
	.vsave	{d8, d9, d10, d11, d12, d13, d14, d15}
	vpush	{d8, d9, d10, d11, d12, d13, d14, d15}
.Ltmp39:
	.cfi_offset d15, -48
.Ltmp40:
	.cfi_offset d14, -56
.Ltmp41:
	.cfi_offset d13, -64
.Ltmp42:
	.cfi_offset d12, -72
.Ltmp43:
	.cfi_offset d11, -80
.Ltmp44:
	.cfi_offset d10, -88
.Ltmp45:
	.cfi_offset d9, -96
.Ltmp46:
	.cfi_offset d8, -104
	.pad	#16
	sub	sp, sp, #16
	@DEBUG_VALUE: render:context <- %R0
	@DEBUG_VALUE: render:userData <- %R1
	mov	r4, r0
.Ltmp47:
	@DEBUG_VALUE: n <- 0
	@DEBUG_VALUE: render:context <- %R4
	.loc	1 101 39 prologue_end discriminator 1 @ /root/Bela/projects/Thesis/render.cpp:101:39
	ldr	r0, [r4, #20]
	.loc	1 101 2 is_stmt 0 discriminator 1 @ /root/Bela/projects/Thesis/render.cpp:101:2
	cmp	r0, #0
	beq	.LBB2_10
.Ltmp48:
@ BB#1:                                 @ %.lr.ph
	@DEBUG_VALUE: render:context <- %R4
	@DEBUG_VALUE: render:userData <- %R1
	.loc	1 108 43 is_stmt 1      @ /root/Bela/projects/Thesis/render.cpp:108:43
	vmov.f32	d9, #5.000000e-01
	.loc	1 108 6 is_stmt 0       @ /root/Bela/projects/Thesis/render.cpp:108:6
	movw	r8, :lower16:_ZZ6renderE7counter
.Ltmp49:
	.loc	1 158 15 is_stmt 1      @ /root/Bela/projects/Thesis/render.cpp:158:15
	vmov.f32	d10, #3.000000e+00
.Ltmp50:
	.loc	1 126 36                @ /root/Bela/projects/Thesis/render.cpp:126:36
	movw	r9, :lower16:.L_MergedGlobals
.Ltmp51:
	.loc	1 162 13                @ /root/Bela/projects/Thesis/render.cpp:162:13
	vmov.f32	d11, #4.000000e+00
	.loc	1 149 81                @ /root/Bela/projects/Thesis/render.cpp:149:81
	movw	r7, :lower16:gDelayAmount
.Ltmp52:
	.loc	1 108 6                 @ /root/Bela/projects/Thesis/render.cpp:108:6
	movt	r8, :upper16:_ZZ6renderE7counter
.Ltmp53:
	.loc	1 126 36                @ /root/Bela/projects/Thesis/render.cpp:126:36
	movt	r9, :upper16:.L_MergedGlobals
.Ltmp54:
	.loc	1 149 48                @ /root/Bela/projects/Thesis/render.cpp:149:48
	movw	r10, #44100
	.loc	1 149 81 is_stmt 0      @ /root/Bela/projects/Thesis/render.cpp:149:81
	movt	r7, :upper16:gDelayAmount
	mov	r5, #0
.Ltmp55:
.LBB2_2:                                @ =>This Inner Loop Header: Depth=1
	.loc	1 104 24 is_stmt 1 discriminator 1 @ /root/Bela/projects/Thesis/render.cpp:104:24
	mov	r0, r4
	bl	_Z13temt6000_readP11BelaContext
.Ltmp56:
	.loc	1 108 6                 @ /root/Bela/projects/Thesis/render.cpp:108:6
	ldr	r0, [r8]
	add	r0, r0, #1
	str	r0, [r8]
	.loc	1 108 28 is_stmt 0      @ /root/Bela/projects/Thesis/render.cpp:108:28
	vldr	s0, [r4, #32]
	.loc	1 108 6                 @ /root/Bela/projects/Thesis/render.cpp:108:6
	vmov	s2, r0
	vcvt.f32.s32	d1, d1
	.loc	1 108 43                @ /root/Bela/projects/Thesis/render.cpp:108:43
	vmul.f32	d0, d0, d9
.Ltmp57:
	.loc	1 108 6                 @ /root/Bela/projects/Thesis/render.cpp:108:6
	vcmpe.f32	s2, s0
	vmrs	APSR_nzcv, fpscr
	blt	.LBB2_4
@ BB#3:                                 @   in Loop: Header=BB2_2 Depth=1
	mov	r0, #0
	add	r1, sp, #8
.Ltmp58:
	.loc	1 109 12 is_stmt 1      @ /root/Bela/projects/Thesis/render.cpp:109:12
	str	r0, [r8]
.Ltmp59:
	@DEBUG_VALUE: render:humidity <- undef
	@DEBUG_VALUE: render:temperature <- undef
	@DEBUG_VALUE: render:pressure <- undef
	add	r0, sp, #12
	add	r2, sp, #4
	.loc	1 110 4                 @ /root/Bela/projects/Thesis/render.cpp:110:4
	bl	_Z11bme280_readRfS_S_
.Ltmp60:
.LBB2_4:                                @   in Loop: Header=BB2_2 Depth=1
	.loc	1 126 36                @ /root/Bela/projects/Thesis/render.cpp:126:36
	ldr	r6, [r9]
.Ltmp61:
	.loc	1 124 33                @ /root/Bela/projects/Thesis/render.cpp:124:33
	cmp	r6, #0
	beq	.LBB2_7
@ BB#5:                                 @   in Loop: Header=BB2_2 Depth=1
	.loc	1 124 40 is_stmt 0 discriminator 1 @ /root/Bela/projects/Thesis/render.cpp:124:40
	mov	r0, r5
	mov	r1, r6
	bl	__aeabi_uidivmod
	.loc	1 124 6 discriminator 1 @ /root/Bela/projects/Thesis/render.cpp:124:6
	cmp	r1, #0
	bne	.LBB2_7
@ BB#6:                                 @   in Loop: Header=BB2_2 Depth=1
.Ltmp62:
	.loc	1 125 36 is_stmt 1      @ /root/Bela/projects/Thesis/render.cpp:125:36
	mov	r0, r5
	mov	r1, r6
	bl	__aeabi_uidiv
	ldr	r2, [r4, #40]
	ldr	r1, [r4, #8]
.Ltmp63:
	.file	28 "./include" "Utilities.h"
	.loc	28 73 44                @ ./include/Utilities.h:73:44
	vldr	s0, .LCPI2_0
.Ltmp64:
	.loc	2 1400 33               @ ./include/Bela.h:1400:33
	mul	r0, r2, r0
.Ltmp65:
	.loc	28 73 44                @ ./include/Utilities.h:73:44
	vldr	s2, .LCPI2_2
.Ltmp66:
	.loc	2 1400 9                @ ./include/Bela.h:1400:9
	ldr	r0, [r1, r0, lsl #2]!
.Ltmp67:
	.loc	1 125 13                @ /root/Bela/projects/Thesis/render.cpp:125:13
	str	r0, [r9, #12]
.Ltmp68:
	.loc	2 1400 9                @ ./include/Bela.h:1400:9
	ldr	r1, [r1, #4]
.Ltmp69:
	.loc	1 128 21                @ /root/Bela/projects/Thesis/render.cpp:128:21
	vmov	d16, r0, r0
.Ltmp70:
	@DEBUG_VALUE: map:in_max <- 8.056641e-01
	@DEBUG_VALUE: map:in_min <- 0.000000e+00
	.loc	1 126 12                @ /root/Bela/projects/Thesis/render.cpp:126:12
	str	r1, [r9, #16]
.Ltmp71:
	.loc	28 73 44                @ ./include/Utilities.h:73:44
	vmul.f32	d16, d16, d0
	.loc	28 73 64 is_stmt 0      @ ./include/Utilities.h:73:64
	vldr	s0, .LCPI2_1
	vadd.f32	d0, d16, d0
.Ltmp72:
	.loc	1 129 22 is_stmt 1      @ /root/Bela/projects/Thesis/render.cpp:129:22
	vmov	d16, r1, r1
.Ltmp73:
	@DEBUG_VALUE: map:in_max <- 8.056641e-01
	@DEBUG_VALUE: map:in_min <- 0.000000e+00
	.loc	28 73 44                @ ./include/Utilities.h:73:44
	vmul.f32	d16, d16, d1
	.loc	28 73 64 is_stmt 0      @ ./include/Utilities.h:73:64
	vldr	s2, .LCPI2_3
.Ltmp74:
	.loc	1 128 15 is_stmt 1      @ /root/Bela/projects/Thesis/render.cpp:128:15
	vstr	s0, [r9, #4]
.Ltmp75:
	.loc	28 73 64                @ ./include/Utilities.h:73:64
	vadd.f32	d1, d16, d1
.Ltmp76:
	.loc	1 129 16                @ /root/Bela/projects/Thesis/render.cpp:129:16
	vstr	s2, [r9, #8]
.Ltmp77:
.LBB2_7:                                @   in Loop: Header=BB2_2 Depth=1
	ldr	r1, [r4, #24]
	ldr	r0, [r4]
.Ltmp78:
	.loc	1 138 6                 @ /root/Bela/projects/Thesis/render.cpp:138:6
	ldr	r2, [r9, #32]
.Ltmp79:
	.loc	2 1378 32               @ ./include/Bela.h:1378:32
	mul	r1, r1, r5
	add	r0, r0, r1, lsl #2
.Ltmp80:
	@DEBUG_VALUE: render:out_r <- %S24
	@DEBUG_VALUE: render:out_l <- %S16
	.loc	2 1378 9 is_stmt 0      @ ./include/Bela.h:1378:9
	vldr	s16, [r0]
.Ltmp81:
	.loc	2 1378 9                @ ./include/Bela.h:1378:9
	vldr	s24, [r0, #4]
.Ltmp82:
	.loc	1 138 6 is_stmt 1       @ /root/Bela/projects/Thesis/render.cpp:138:6
	add	r0, r2, #1
	str	r0, [r9, #32]
	.loc	1 138 21 is_stmt 0      @ /root/Bela/projects/Thesis/render.cpp:138:21
	ldr	r1, [r9, #36]
.Ltmp83:
	.loc	1 138 6                 @ /root/Bela/projects/Thesis/render.cpp:138:6
	cmp	r0, r1
	blt	.LBB2_9
@ BB#8:                                 @   in Loop: Header=BB2_2 Depth=1
	mov	r0, #0
.Ltmp84:
	.loc	1 139 14 is_stmt 1      @ /root/Bela/projects/Thesis/render.cpp:139:14
	str	r0, [r9, #32]
	.loc	1 141 31                @ /root/Bela/projects/Thesis/render.cpp:141:31
	ldr	r0, [r9, #28]
	.loc	1 141 4 is_stmt 0       @ /root/Bela/projects/Thesis/render.cpp:141:4
	bl	Bela_scheduleAuxiliaryTask
.Ltmp85:
.LBB2_9:                                @   in Loop: Header=BB2_2 Depth=1
	.loc	1 148 3 is_stmt 1       @ /root/Bela/projects/Thesis/render.cpp:148:3
	vmov.f32	s0, s16
	vmov.f32	s1, s24
	bl	_Z5delayff
	.loc	1 158 15                @ /root/Bela/projects/Thesis/render.cpp:158:15
	vldr	s0, [r9, #48]
	.loc	1 149 31                @ /root/Bela/projects/Thesis/render.cpp:149:31
	movw	r0, :lower16:gDelayBufWritePtr
	movt	r0, :upper16:gDelayBufWritePtr
	.loc	1 149 49 is_stmt 0      @ /root/Bela/projects/Thesis/render.cpp:149:49
	movw	r1, :lower16:gDelayInSamples
	.loc	1 158 15 is_stmt 1      @ /root/Bela/projects/Thesis/render.cpp:158:15
	vmul.f32	d2, d0, d10
	.loc	1 149 31                @ /root/Bela/projects/Thesis/render.cpp:149:31
	ldr	r0, [r0]
	.loc	1 149 49 is_stmt 0      @ /root/Bela/projects/Thesis/render.cpp:149:49
	movt	r1, :upper16:gDelayInSamples
	.loc	1 149 81                @ /root/Bela/projects/Thesis/render.cpp:149:81
	vldr	s26, [r7]
	.loc	1 149 49                @ /root/Bela/projects/Thesis/render.cpp:149:49
	ldr	r1, [r1]
	.loc	1 149 48                @ /root/Bela/projects/Thesis/render.cpp:149:48
	add	r0, r0, r10
	.loc	1 149 64                @ /root/Bela/projects/Thesis/render.cpp:149:64
	sub	r0, r0, r1
	.loc	1 149 71                @ /root/Bela/projects/Thesis/render.cpp:149:71
	movw	r1, #61839
	.loc	1 158 15 is_stmt 1      @ /root/Bela/projects/Thesis/render.cpp:158:15
	vstr	s4, [r9, #48]
	.loc	1 149 71                @ /root/Bela/projects/Thesis/render.cpp:149:71
	movt	r1, #12173
	.loc	1 159 15                @ /root/Bela/projects/Thesis/render.cpp:159:15
	vldr	s0, [r9, #56]
	.loc	1 149 71                @ /root/Bela/projects/Thesis/render.cpp:149:71
	smmul	r1, r0, r1
	.loc	1 159 15                @ /root/Bela/projects/Thesis/render.cpp:159:15
	vmul.f32	d3, d0, d10
	.loc	1 149 71                @ /root/Bela/projects/Thesis/render.cpp:149:71
	asr	r2, r1, #13
	add	r1, r2, r1, lsr #31
	.loc	1 159 15                @ /root/Bela/projects/Thesis/render.cpp:159:15
	vstr	s6, [r9, #56]
	.loc	1 166 3                 @ /root/Bela/projects/Thesis/render.cpp:166:3
	vmov.f32	s3, s6
	.loc	1 162 13                @ /root/Bela/projects/Thesis/render.cpp:162:13
	vldr	s0, [r9, #20]
	.loc	1 149 71                @ /root/Bela/projects/Thesis/render.cpp:149:71
	mls	r0, r1, r10, r0
	.loc	1 149 15 is_stmt 0      @ /root/Bela/projects/Thesis/render.cpp:149:15
	movw	r1, :lower16:gDelayBuffer_l
	.loc	1 162 13 is_stmt 1      @ /root/Bela/projects/Thesis/render.cpp:162:13
	vmul.f32	d0, d0, d11
	.loc	1 149 15                @ /root/Bela/projects/Thesis/render.cpp:149:15
	movt	r1, :upper16:gDelayBuffer_l
	add	r1, r1, r0, lsl #2
	.loc	1 162 13                @ /root/Bela/projects/Thesis/render.cpp:162:13
	vstr	s0, [r9, #20]
	.loc	1 163 13                @ /root/Bela/projects/Thesis/render.cpp:163:13
	vldr	s0, [r9, #24]
	.loc	1 149 15                @ /root/Bela/projects/Thesis/render.cpp:149:15
	vldr	s28, [r1]
	.loc	1 150 15                @ /root/Bela/projects/Thesis/render.cpp:150:15
	movw	r1, :lower16:gDelayBuffer_r
	.loc	1 163 13                @ /root/Bela/projects/Thesis/render.cpp:163:13
	vmul.f32	d0, d0, d11
	.loc	1 150 15                @ /root/Bela/projects/Thesis/render.cpp:150:15
	movt	r1, :upper16:gDelayBuffer_r
	add	r0, r1, r0, lsl #2
	vldr	s30, [r0]
	.loc	1 163 13                @ /root/Bela/projects/Thesis/render.cpp:163:13
	vstr	s0, [r9, #24]
	.loc	1 166 3                 @ /root/Bela/projects/Thesis/render.cpp:166:3
	vmov.f32	s1, s4
	.loc	1 166 15 is_stmt 0      @ /root/Bela/projects/Thesis/render.cpp:166:15
	vldr	s0, [r9, #44]
	.loc	1 166 41                @ /root/Bela/projects/Thesis/render.cpp:166:41
	vldr	s2, [r9, #52]
	.loc	1 166 3                 @ /root/Bela/projects/Thesis/render.cpp:166:3
	bl	_Z11record_quadffff
	ldr	r1, [r4, #28]
	.loc	1 150 79 is_stmt 1      @ /root/Bela/projects/Thesis/render.cpp:150:79
	vmul.f32	d16, d15, d13
	.loc	1 149 79                @ /root/Bela/projects/Thesis/render.cpp:149:79
	vmul.f32	d17, d13, d14
	ldr	r0, [r4, #4]
	.loc	1 170 29                @ /root/Bela/projects/Thesis/render.cpp:170:29
	ldr	r2, [r9, #20]
.Ltmp86:
	.loc	2 1389 26               @ ./include/Bela.h:1389:26
	mul	r1, r1, r5
.Ltmp87:
	.loc	1 101 53 discriminator 3 @ /root/Bela/projects/Thesis/render.cpp:101:53
	add	r5, r5, #1
.Ltmp88:
	@DEBUG_VALUE: n <- %R5
	.loc	1 150 12                @ /root/Bela/projects/Thesis/render.cpp:150:12
	vadd.f32	d0, d16, d12
	.loc	1 149 12                @ /root/Bela/projects/Thesis/render.cpp:149:12
	vadd.f32	d1, d17, d8
.Ltmp89:
	.loc	2 1389 65               @ ./include/Bela.h:1389:65
	str	r2, [r0, r1, lsl #2]!
.Ltmp90:
	.loc	1 172 29                @ /root/Bela/projects/Thesis/render.cpp:172:29
	ldr	r1, [r9, #48]
.Ltmp91:
	@DEBUG_VALUE: render:out_r <- %S0
	@DEBUG_VALUE: render:out_l <- %S2
	.loc	2 1389 65               @ ./include/Bela.h:1389:65
	str	r1, [r0]
.Ltmp92:
	.loc	2 1389 65 is_stmt 0     @ ./include/Bela.h:1389:65
	vstr	s2, [r0]
.Ltmp93:
	.loc	2 1389 65               @ ./include/Bela.h:1389:65
	vstr	s0, [r0, #4]
.Ltmp94:
	.loc	1 101 39 is_stmt 1 discriminator 1 @ /root/Bela/projects/Thesis/render.cpp:101:39
	ldr	r0, [r4, #20]
	.loc	1 101 2 is_stmt 0 discriminator 1 @ /root/Bela/projects/Thesis/render.cpp:101:2
	cmp	r5, r0
	blo	.LBB2_2
.Ltmp95:
.LBB2_10:                               @ %._crit_edge
	.loc	1 179 1 is_stmt 1       @ /root/Bela/projects/Thesis/render.cpp:179:1
	sub	sp, r11, #96
	vpop	{d8, d9, d10, d11, d12, d13, d14, d15}
	add	sp, sp, #4
	pop	{r4, r5, r6, r7, r8, r9, r10, r11, pc}
.Ltmp96:
	.p2align	2
@ BB#11:
.LCPI2_0:
	.long	1120311308              @ float 99.2969665
.LCPI2_1:
	.long	3262119936              @ float -60
.LCPI2_2:
	.long	1115176464              @ float 62.0606079
.LCPI2_3:
	.long	3256877056              @ float -40
.Lfunc_end2:
	.size	render, .Lfunc_end2-render
	.cfi_endproc
	.fnend

	.globl	cleanup
	.p2align	2
	.type	cleanup,%function
cleanup:                                @ @cleanup
.Lfunc_begin3:
	.loc	1 190 0                 @ /root/Bela/projects/Thesis/render.cpp:190:0
	.fnstart
	.cfi_startproc
@ BB#0:
	@DEBUG_VALUE: cleanup:context <- %R0
	@DEBUG_VALUE: cleanup:userData <- %R1
	.loc	1 191 6 prologue_end    @ /root/Bela/projects/Thesis/render.cpp:191:6
	b	_Z17cleanup_recordWAVv
.Ltmp97:
.Lfunc_end3:
	.size	cleanup, .Lfunc_end3-cleanup
	.cfi_endproc
	.fnend

	.type	.L.str,%object          @ @.str
	.section	.rodata.str1.1,"aMS",%progbits,1
.L.str:
	.asciz	"Error: this example needs analog enabled, with 4 or 8 channels\n"
	.size	.L.str, 64

	.type	.L.str.1,%object        @ @.str.1
.L.str.1:
	.asciz	"bela-levels"
	.size	.L.str.1, 12

	.type	_ZZ6renderE7counter,%object @ @_ZZ6renderE7counter
	.local	_ZZ6renderE7counter
	.comm	_ZZ6renderE7counter,4,4
	.type	.L_MergedGlobals,%object @ @_MergedGlobals
	.data
	.p2align	4
.L_MergedGlobals:
	.long	0                       @ 0x0
	.long	0                       @ float 0
	.long	0                       @ float 0
	.long	0                       @ float 0
	.long	0                       @ float 0
	.long	0                       @ float 0
	.long	0                       @ float 0
	.long	0
	.long	0                       @ 0x0
	.long	0                       @ 0x0
	.long	200                     @ 0xc8
	.long	0                       @ float 0
	.long	0                       @ float 0
	.long	0                       @ float 0
	.long	0                       @ float 0
	.size	.L_MergedGlobals, 60

	.section	".note.GNU-stack","",%progbits
	.eabi_attribute	30, 2	@ Tag_ABI_optimization_goals