	.text
	.syntax unified
	.eabi_attribute	67, "2.09"	@ Tag_conformance
	.cpu	cortex-a8
	.eabi_attribute	6, 10	@ Tag_CPU_arch
	.eabi_attribute	7, 65	@ Tag_CPU_arch_profile
	.eabi_attribute	8, 1	@ Tag_ARM_ISA_use
	.eabi_attribute	9, 2	@ Tag_THUMB_ISA_use
	.fpu	neon
	.eabi_attribute	17, 1	@ Tag_ABI_PCS_GOT_use
	.eabi_attribute	20, 2	@ Tag_ABI_FP_denormal
	.eabi_attribute	23, 1	@ Tag_ABI_FP_number_model
	.eabi_attribute	34, 1	@ Tag_CPU_unaligned_access
	.eabi_attribute	24, 1	@ Tag_ABI_align_needed
	.eabi_attribute	25, 1	@ Tag_ABI_align_preserved
	.eabi_attribute	28, 1	@ Tag_ABI_VFP_args
	.eabi_attribute	38, 1	@ Tag_ABI_FP_16bit_format
	.eabi_attribute	18, 4	@ Tag_ABI_PCS_wchar_t
	.eabi_attribute	26, 2	@ Tag_ABI_enum_size
	.eabi_attribute	14, 0	@ Tag_ABI_PCS_R9_use
	.eabi_attribute	68, 1	@ Tag_Virtualization_use
	.file	"/root/Bela/projects/Thesis/build/SensorRead.bc"
	.file	1 "/root/Bela/projects/Thesis" "SensorRead.cpp"
	.file	2 "./libraries/OnePole" "OnePole.h"
	.file	3 "./include" "Bela.h"
	.file	4 "/root/Bela/projects/Thesis" "BME280.h"
	.file	5 "/root/Bela/projects/Thesis" "BME280I2C.h"
	.file	6 "/usr/bin/../lib/gcc/arm-linux-gnueabihf/6.3.0/../../../../include/arm-linux-gnueabihf/c++/6.3.0/bits" "c++config.h"
	.file	7 "/usr/include/arm-linux-gnueabihf/bits" "math-finite.h"
	.file	8 "/usr/include/arm-linux-gnueabihf/bits" "mathcalls.h"
	.file	9 "/usr/include/arm-linux-gnueabihf/bits" "mathdef.h"
	.file	10 "/usr/include" "stdint.h"
	.file	11 "/usr/include/arm-linux-gnueabihf/bits" "types.h"
	.file	12 "/usr/include" "time.h"
	.file	13 "/usr/lib/llvm-3.9/bin/../lib/clang/3.9.1/include" "stddef.h"
	.globl	_Z18initialize_sensorsP11BelaContext
	.p2align	2
	.type	_Z18initialize_sensorsP11BelaContext,%function
_Z18initialize_sensorsP11BelaContext:   @ @_Z18initialize_sensorsP11BelaContext
.Lfunc_begin0:
	.loc	1 38 0                  @ /root/Bela/projects/Thesis/SensorRead.cpp:38:0
	.fnstart
	.cfi_startproc
@ BB#0:
	.save	{r4, r10, r11, lr}
	push	{r4, r10, r11, lr}
.Ltmp0:
	.cfi_def_cfa_offset 16
.Ltmp1:
	.cfi_offset lr, -4
.Ltmp2:
	.cfi_offset r11, -8
.Ltmp3:
	.cfi_offset r10, -12
.Ltmp4:
	.cfi_offset r4, -16
	.setfp	r11, sp, #8
	add	r11, sp, #8
.Ltmp5:
	.cfi_def_cfa r11, 8
	@DEBUG_VALUE: initialize_sensors:context <- %R0
	mov	r4, r0
.Ltmp6:
	@DEBUG_VALUE: initialize_sensors:context <- %R4
	.loc	1 40 13 prologue_end    @ /root/Bela/projects/Thesis/SensorRead.cpp:40:13
	movw	r0, :lower16:.L_MergedGlobals.3
	movt	r0, :upper16:.L_MergedGlobals.3
	bl	_ZN6BME2805beginEv
.Ltmp7:
	.loc	1 40 5 is_stmt 0        @ /root/Bela/projects/Thesis/SensorRead.cpp:40:5
	cmp	r0, #0
	beq	.LBB0_2
.Ltmp8:
@ BB#1:
	@DEBUG_VALUE: initialize_sensors:context <- %R4
	.loc	1 45 15 is_stmt 1       @ /root/Bela/projects/Thesis/SensorRead.cpp:45:15
	movw	r0, :lower16:_Z10readBME280Pv
	movw	r2, :lower16:.L.str.2
	movt	r0, :upper16:_Z10readBME280Pv
	movt	r2, :upper16:.L.str.2
	mov	r1, #80
	mov	r3, #0
	bl	Bela_createAuxiliaryTask
	.loc	1 45 13 is_stmt 0       @ /root/Bela/projects/Thesis/SensorRead.cpp:45:13
	movw	r1, :lower16:.L_MergedGlobals
	.loc	1 60 15 is_stmt 1       @ /root/Bela/projects/Thesis/SensorRead.cpp:60:15
	vmov.f32	d0, #1.000000e+00
	.loc	1 45 13                 @ /root/Bela/projects/Thesis/SensorRead.cpp:45:13
	movt	r1, :upper16:.L_MergedGlobals
	str	r0, [r1, #24]
	.loc	1 60 15                 @ /root/Bela/projects/Thesis/SensorRead.cpp:60:15
	add	r0, r1, #28
	.loc	1 60 33 is_stmt 0       @ /root/Bela/projects/Thesis/SensorRead.cpp:60:33
	vldr	s2, [r4, #32]
	.loc	1 60 15                 @ /root/Bela/projects/Thesis/SensorRead.cpp:60:15
	mov	r1, #0
	vmov.f32	s1, s2
	bl	_ZN7OnePole5setupEffNS_4TypeE
	mov	r0, #1
	.loc	1 64 1 is_stmt 1        @ /root/Bela/projects/Thesis/SensorRead.cpp:64:1
	pop	{r4, r10, r11, pc}
.Ltmp9:
.LBB0_2:
	@DEBUG_VALUE: initialize_sensors:context <- %R4
	.loc	1 41 3                  @ /root/Bela/projects/Thesis/SensorRead.cpp:41:3
	movw	r0, :lower16:.L.str
	movt	r0, :upper16:.L.str
	bl	rt_printf
	mov	r0, #0
.Ltmp10:
	.loc	1 64 1                  @ /root/Bela/projects/Thesis/SensorRead.cpp:64:1
	pop	{r4, r10, r11, pc}
.Ltmp11:
.Lfunc_end0:
	.size	_Z18initialize_sensorsP11BelaContext, .Lfunc_end0-_Z18initialize_sensorsP11BelaContext
	.cfi_endproc
	.fnend

	.globl	_Z10readBME280Pv
	.p2align	2
	.type	_Z10readBME280Pv,%function
_Z10readBME280Pv:                       @ @_Z10readBME280Pv
.Lfunc_begin1:
	.loc	1 99 0                  @ /root/Bela/projects/Thesis/SensorRead.cpp:99:0
	.fnstart
	.cfi_startproc
@ BB#0:
	.save	{r4, r10, r11, lr}
	push	{r4, r10, r11, lr}
.Ltmp12:
	.cfi_def_cfa_offset 16
.Ltmp13:
	.cfi_offset lr, -4
.Ltmp14:
	.cfi_offset r11, -8
.Ltmp15:
	.cfi_offset r10, -12
.Ltmp16:
	.cfi_offset r4, -16
	.setfp	r11, sp, #8
	add	r11, sp, #8
.Ltmp17:
	.cfi_def_cfa r11, 8
	.pad	#8
	sub	sp, sp, #8
	@DEBUG_VALUE: readBME280: <- %R0
.Ltmp18:
	.loc	1 100 9 prologue_end    @ /root/Bela/projects/Thesis/SensorRead.cpp:100:9
	movw	r4, :lower16:.L_MergedGlobals.3
	movt	r4, :upper16:.L_MergedGlobals.3
	mov	r0, r4
.Ltmp19:
	bl	_ZN9BME280I2C6updateEv
	.loc	1 101 9                 @ /root/Bela/projects/Thesis/SensorRead.cpp:101:9
	movw	r2, :lower16:.L_MergedGlobals
	mov	r1, #0
	movt	r2, :upper16:.L_MergedGlobals
	str	r1, [sp]
	mov	r0, #1
	add	r1, r2, #4
	add	r3, r2, #8
	str	r0, [sp, #4]
	mov	r0, r4
	bl	_ZN6BME2804readERfS0_S0_NS_8TempUnitENS_8PresUnitE
	.loc	1 102 2                 @ /root/Bela/projects/Thesis/SensorRead.cpp:102:2
	mov	r0, #10
	sub	sp, r11, #8
	pop	{r4, r10, r11, lr}
	b	usleep
.Ltmp20:
.Lfunc_end1:
	.size	_Z10readBME280Pv, .Lfunc_end1-_Z10readBME280Pv
	.cfi_endproc
	.fnend

	.globl	_Z11bme280_readRfS_S_
	.p2align	3
	.type	_Z11bme280_readRfS_S_,%function
_Z11bme280_readRfS_S_:                  @ @_Z11bme280_readRfS_S_
.Lfunc_begin2:
	.loc	1 68 0                  @ /root/Bela/projects/Thesis/SensorRead.cpp:68:0
	.fnstart
	.cfi_startproc
@ BB#0:
	.save	{r4, r5, r6, r7, r11, lr}
	push	{r4, r5, r6, r7, r11, lr}
.Ltmp21:
	.cfi_def_cfa_offset 24
.Ltmp22:
	.cfi_offset lr, -4
.Ltmp23:
	.cfi_offset r11, -8
.Ltmp24:
	.cfi_offset r7, -12
.Ltmp25:
	.cfi_offset r6, -16
.Ltmp26:
	.cfi_offset r5, -20
.Ltmp27:
	.cfi_offset r4, -24
	.setfp	r11, sp, #16
	add	r11, sp, #16
.Ltmp28:
	.cfi_def_cfa r11, 8
	@DEBUG_VALUE: bme280_read:pressure <- %R0
	@DEBUG_VALUE: bme280_read:temperature <- %R1
	@DEBUG_VALUE: bme280_read:humidity <- %R2
.Ltmp29:
	.loc	1 69 29 prologue_end    @ /root/Bela/projects/Thesis/SensorRead.cpp:69:29
	movw	r7, :lower16:.L_MergedGlobals
	mov	r6, r0
.Ltmp30:
	@DEBUG_VALUE: bme280_read:pressure <- %R6
	movt	r7, :upper16:.L_MergedGlobals
	mov	r4, r2
.Ltmp31:
	@DEBUG_VALUE: bme280_read:humidity <- %R4
	ldr	r0, [r7, #24]
	mov	r5, r1
.Ltmp32:
	@DEBUG_VALUE: bme280_read:temperature <- %R5
	.loc	1 69 2 is_stmt 0        @ /root/Bela/projects/Thesis/SensorRead.cpp:69:2
	bl	Bela_scheduleAuxiliaryTask
	.loc	1 71 17 is_stmt 1       @ /root/Bela/projects/Thesis/SensorRead.cpp:71:17
	vldr	s0, [r7]
	.loc	1 71 21 is_stmt 0       @ /root/Bela/projects/Thesis/SensorRead.cpp:71:21
	vldr	d17, .LCPI2_0
	.loc	1 71 17                 @ /root/Bela/projects/Thesis/SensorRead.cpp:71:17
	vcvt.f64.f32	d16, s0
	.loc	1 72 13 is_stmt 1       @ /root/Bela/projects/Thesis/SensorRead.cpp:72:13
	ldr	r0, [r7, #4]
	.loc	1 71 21                 @ /root/Bela/projects/Thesis/SensorRead.cpp:71:21
	vmul.f64	d16, d16, d17
	.loc	1 71 27 is_stmt 0       @ /root/Bela/projects/Thesis/SensorRead.cpp:71:27
	vldr	d17, .LCPI2_1
	.loc	1 71 36                 @ /root/Bela/projects/Thesis/SensorRead.cpp:71:36
	vldr	s2, [r7, #12]
	.loc	1 71 27                 @ /root/Bela/projects/Thesis/SensorRead.cpp:71:27
	vadd.f64	d16, d16, d17
	.loc	1 72 11 is_stmt 1       @ /root/Bela/projects/Thesis/SensorRead.cpp:72:11
	str	r0, [r6]
	.loc	1 71 36                 @ /root/Bela/projects/Thesis/SensorRead.cpp:71:36
	vcvt.f64.f32	d17, s2
	.loc	1 71 34 is_stmt 0       @ /root/Bela/projects/Thesis/SensorRead.cpp:71:34
	vsub.f64	d16, d16, d17
	.loc	1 71 16                 @ /root/Bela/projects/Thesis/SensorRead.cpp:71:16
	vcvt.f32.f64	s0, d16
.Ltmp33:
	@DEBUG_VALUE: bme280_read:tempF <- %S0
	.loc	1 73 14 is_stmt 1       @ /root/Bela/projects/Thesis/SensorRead.cpp:73:14
	vstr	s0, [r5]
	.loc	1 74 13                 @ /root/Bela/projects/Thesis/SensorRead.cpp:74:13
	ldr	r0, [r7, #8]
	.loc	1 74 11 is_stmt 0       @ /root/Bela/projects/Thesis/SensorRead.cpp:74:11
	str	r0, [r4]
	.loc	1 75 1 is_stmt 1        @ /root/Bela/projects/Thesis/SensorRead.cpp:75:1
	pop	{r4, r5, r6, r7, r11, pc}
.Ltmp34:
	.p2align	3
@ BB#1:
.LCPI2_0:
	.long	3435973837              @ double 1.8
	.long	1073532108
.LCPI2_1:
	.long	0                       @ double 32
	.long	1077936128
.Lfunc_end2:
	.size	_Z11bme280_readRfS_S_, .Lfunc_end2-_Z11bme280_readRfS_S_
	.cfi_endproc
	.fnend

	.globl	_Z13temt6000_readP11BelaContext
	.p2align	2
	.type	_Z13temt6000_readP11BelaContext,%function
_Z13temt6000_readP11BelaContext:        @ @_Z13temt6000_readP11BelaContext
.Lfunc_begin3:
	.loc	1 77 0                  @ /root/Bela/projects/Thesis/SensorRead.cpp:77:0
	.fnstart
	.cfi_startproc
@ BB#0:
	.save	{r4, r5, r6, r7, r11, lr}
	push	{r4, r5, r6, r7, r11, lr}
.Ltmp35:
	.cfi_def_cfa_offset 24
.Ltmp36:
	.cfi_offset lr, -4
.Ltmp37:
	.cfi_offset r11, -8
.Ltmp38:
	.cfi_offset r7, -12
.Ltmp39:
	.cfi_offset r6, -16
.Ltmp40:
	.cfi_offset r5, -20
.Ltmp41:
	.cfi_offset r4, -24
	.setfp	r11, sp, #16
	add	r11, sp, #16
.Ltmp42:
	.cfi_def_cfa r11, 8
	@DEBUG_VALUE: temt6000_read:context <- %R0
	mov	r4, r0
.Ltmp43:
	@DEBUG_VALUE: n <- 0
	@DEBUG_VALUE: temt6000_read:context <- %R4
	.loc	1 79 39 prologue_end discriminator 1 @ /root/Bela/projects/Thesis/SensorRead.cpp:79:39
	ldr	r7, [r4, #20]
	.loc	1 79 2 is_stmt 0 discriminator 1 @ /root/Bela/projects/Thesis/SensorRead.cpp:79:2
	cmp	r7, #0
	beq	.LBB3_7
.Ltmp44:
@ BB#1:                                 @ %.lr.ph
	@DEBUG_VALUE: temt6000_read:context <- %R4
	.loc	1 80 12 is_stmt 1       @ /root/Bela/projects/Thesis/SensorRead.cpp:80:12
	movw	r0, :lower16:gAudioFramesPerAnalogFrame
	movt	r0, :upper16:gAudioFramesPerAnalogFrame
	ldr	r5, [r0]
	.loc	1 80 39 is_stmt 0       @ /root/Bela/projects/Thesis/SensorRead.cpp:80:39
	cmp	r5, #0
	beq	.LBB3_5
.Ltmp45:
@ BB#2:                                 @ %.lr.ph.split.preheader
	@DEBUG_VALUE: temt6000_read:context <- %R4
	mov	r6, #0
.Ltmp46:
.LBB3_3:                                @ %.lr.ph.split
                                        @ =>This Inner Loop Header: Depth=1
	.loc	1 80 46 discriminator 1 @ /root/Bela/projects/Thesis/SensorRead.cpp:80:46
	mov	r0, r6
	mov	r1, r5
	bl	__aeabi_uidivmod
	.loc	1 80 12 discriminator 1 @ /root/Bela/projects/Thesis/SensorRead.cpp:80:12
	cmp	r1, #0
	beq	.LBB3_8
.Ltmp47:
@ BB#4:                                 @   in Loop: Header=BB3_3 Depth=1
	.loc	1 79 53 is_stmt 1 discriminator 3 @ /root/Bela/projects/Thesis/SensorRead.cpp:79:53
	add	r6, r6, #1
.Ltmp48:
	@DEBUG_VALUE: n <- %R6
	.loc	1 79 2 is_stmt 0 discriminator 1 @ /root/Bela/projects/Thesis/SensorRead.cpp:79:2
	cmp	r6, r7
	blo	.LBB3_3
	b	.LBB3_7
.Ltmp49:
.LBB3_5:                                @ %.lr.ph.split.us.preheader
	@DEBUG_VALUE: temt6000_read:context <- %R4
	mov	r0, #0
.Ltmp50:
.LBB3_6:                                @ %.lr.ph.split.us
                                        @ =>This Inner Loop Header: Depth=1
	.loc	1 79 53 discriminator 3 @ /root/Bela/projects/Thesis/SensorRead.cpp:79:53
	add	r0, r0, #1
.Ltmp51:
	@DEBUG_VALUE: n <- %R0
	.loc	1 79 2 discriminator 1  @ /root/Bela/projects/Thesis/SensorRead.cpp:79:2
	cmp	r0, r7
	blo	.LBB3_6
.Ltmp52:
.LBB3_7:
	vmov.f32	d0, #1.000000e+00
	.loc	1 95 1 is_stmt 1        @ /root/Bela/projects/Thesis/SensorRead.cpp:95:1
                                        @ kill: %S0<def> %S0<kill> %D0<kill>
	pop	{r4, r5, r6, r7, r11, pc}
.LBB3_8:
	ldr	r0, [r4, #8]
.Ltmp53:
	.loc	1 84 18                 @ /root/Bela/projects/Thesis/SensorRead.cpp:84:18
	movw	r1, :lower16:.L_MergedGlobals
	movt	r1, :upper16:.L_MergedGlobals
.Ltmp54:
	.loc	1 88 26                 @ /root/Bela/projects/Thesis/SensorRead.cpp:88:26
	vldr	s0, .LCPI3_0
.Ltmp55:
	.loc	1 85 10                 @ /root/Bela/projects/Thesis/SensorRead.cpp:85:10
	vldr	s4, .LCPI3_1
	ldr	r0, [r0, #8]
	.loc	1 84 18                 @ /root/Bela/projects/Thesis/SensorRead.cpp:84:18
	str	r0, [r1, #16]
.Ltmp56:
	@DEBUG_VALUE: alpha <- 8.000000e-01
	.loc	1 88 28                 @ /root/Bela/projects/Thesis/SensorRead.cpp:88:28
	vldr	s2, [r1, #20]
.Ltmp57:
	.loc	1 85 10                 @ /root/Bela/projects/Thesis/SensorRead.cpp:85:10
	vmov	d16, r0, r0
.Ltmp58:
	.loc	1 88 26                 @ /root/Bela/projects/Thesis/SensorRead.cpp:88:26
	vmul.f32	d17, d1, d0
.Ltmp59:
	.loc	1 85 10                 @ /root/Bela/projects/Thesis/SensorRead.cpp:85:10
	vmul.f32	d16, d16, d2
.Ltmp60:
	.loc	1 88 42                 @ /root/Bela/projects/Thesis/SensorRead.cpp:88:42
	vadd.f32	d0, d16, d17
	.loc	1 88 18 is_stmt 0       @ /root/Bela/projects/Thesis/SensorRead.cpp:88:18
	vstr	s0, [r1, #20]
.Ltmp61:
	.loc	1 95 1 is_stmt 1        @ /root/Bela/projects/Thesis/SensorRead.cpp:95:1
                                        @ kill: %S0<def> %S0<kill> %D0<kill>
	pop	{r4, r5, r6, r7, r11, pc}
.Ltmp62:
	.p2align	2
@ BB#9:
.LCPI3_0:
	.long	1061997773              @ float 0.800000011
.LCPI3_1:
	.long	1045220556              @ float 0.199999988
.Lfunc_end3:
	.size	_Z13temt6000_readP11BelaContext, .Lfunc_end3-_Z13temt6000_readP11BelaContext
	.cfi_endproc
	.fnend

	.section	.text.startup,"ax",%progbits
	.p2align	4
	.type	_GLOBAL__sub_I_SensorRead.ii,%function
_GLOBAL__sub_I_SensorRead.ii:           @ @_GLOBAL__sub_I_SensorRead.ii
.Lfunc_begin4:
	.file	14 "/root/Bela/projects/Thesis/build" "SensorRead.cpp"
	.loc	14 0 0                  @ /root/Bela/projects/Thesis/build/SensorRead.cpp:0:0
	.fnstart
	.cfi_startproc
@ BB#0:
	.save	{r11, lr}
	push	{r11, lr}
.Ltmp63:
	.cfi_def_cfa_offset 8
.Ltmp64:
	.cfi_offset lr, -4
.Ltmp65:
	.cfi_offset r11, -8
	.setfp	r11, sp
	mov	r11, sp
.Ltmp66:
	.cfi_def_cfa_register r11
	.pad	#32
	sub	sp, sp, #32
.Ltmp67:
	@DEBUG_VALUE: Settings:_tosr <- 1
	@DEBUG_VALUE: Settings:_hosr <- 1
	@DEBUG_VALUE: Settings:_posr <- 1
	@DEBUG_VALUE: Settings:_mode <- 1
	@DEBUG_VALUE: Settings:_st <- 5
	@DEBUG_VALUE: Settings:_filter <- 4
	@DEBUG_VALUE: Settings:_se <- 0
	@DEBUG_VALUE: Settings:_addr <- 118
	@DEBUG_VALUE: Settings:_tosr <- 1
	@DEBUG_VALUE: Settings:_hosr <- 1
	@DEBUG_VALUE: Settings:_posr <- 1
	@DEBUG_VALUE: Settings:_mode <- 1
	@DEBUG_VALUE: Settings:_st <- 5
	@DEBUG_VALUE: Settings:_filter <- 4
	@DEBUG_VALUE: Settings:_se <- 0
	.loc	4 136 10 prologue_end   @ /root/Bela/projects/Thesis/BME280.h:136:10
	vmov.i32	q8, #0x1
	adr	r0, .LCPI4_0
	mov	r1, sp
.Ltmp68:
	@DEBUG_VALUE: Settings:this <- %R1
	.loc	4 140 10                @ /root/Bela/projects/Thesis/BME280.h:140:10
	vld1.64	{d18, d19}, [r0:128]
	.loc	4 136 10                @ /root/Bela/projects/Thesis/BME280.h:136:10
	mov	r0, r1
	vst1.32	{d16, d17}, [r0]!
	.loc	4 140 10                @ /root/Bela/projects/Thesis/BME280.h:140:10
	vst1.32	{d18, d19}, [r0]
.Ltmp69:
	.loc	1 13 11 discriminator 2 @ /root/Bela/projects/Thesis/SensorRead.cpp:13:11
	movw	r0, :lower16:.L_MergedGlobals.3
	movt	r0, :upper16:.L_MergedGlobals.3
	bl	_ZN9BME280I2CC1ERKNS_8SettingsE
.Ltmp70:
	.loc	1 15 9                  @ /root/Bela/projects/Thesis/SensorRead.cpp:15:9
	movw	r0, :lower16:.L_MergedGlobals
	movt	r0, :upper16:.L_MergedGlobals
	add	r0, r0, #28
	bl	_ZN7OnePoleC1Ev
	mov	sp, r11
	pop	{r11, pc}
.Ltmp71:
	.p2align	4
@ BB#1:
.LCPI4_0:
	.long	5                       @ 0x5
	.long	4                       @ 0x4
	.long	0                       @ 0x0
	.long	118                     @ 0x76
.Lfunc_end4:
	.size	_GLOBAL__sub_I_SensorRead.ii, .Lfunc_end4-_GLOBAL__sub_I_SensorRead.ii
	.cfi_endproc
	.fnend

	.type	previousAmlightValue,%object @ @previousAmlightValue
	.bss
	.globl	previousAmlightValue
	.p2align	2
previousAmlightValue:
	.long	0                       @ float 0
	.size	previousAmlightValue, 4

	.type	gPhase,%object          @ @gPhase
	.globl	gPhase
	.p2align	2
gPhase:
	.long	0                       @ float 0
	.size	gPhase, 4

	.type	counter,%object         @ @counter
	.globl	counter
	.p2align	2
counter:
	.long	0                       @ 0x0
	.size	counter, 4

	.type	.L.str,%object          @ @.str
	.section	.rodata.str1.1,"aMS",%progbits,1
.L.str:
	.asciz	"Error initialising bme280\n"
	.size	.L.str, 27

	.type	.L.str.2,%object        @ @.str.2
.L.str.2:
	.asciz	"bela-bme280"
	.size	.L.str.2, 12

	.section	.init_array,"aw",%init_array
	.p2align	2
	.long	_GLOBAL__sub_I_SensorRead.ii(target1)
	.type	.L_MergedGlobals,%object @ @_MergedGlobals
	.data
	.p2align	4
.L_MergedGlobals:
	.long	0                       @ float 0
	.long	0                       @ float 0
	.long	0                       @ float 0
	.long	1105199104              @ float 28
	.long	0                       @ float 0
	.long	0                       @ float 0
	.long	0
	.zero	20
	.size	.L_MergedGlobals, 48

	.type	.L_MergedGlobals.3,%object @ @_MergedGlobals.3
	.local	.L_MergedGlobals.3
	.comm	.L_MergedGlobals.3,120,16
	.section	".note.GNU-stack","",%progbits
	.eabi_attribute	30, 2	@ Tag_ABI_optimization_goals