	.text
	.syntax unified
	.eabi_attribute	67, "2.09"	@ Tag_conformance
	.cpu	cortex-a8
	.eabi_attribute	6, 10	@ Tag_CPU_arch
	.eabi_attribute	7, 65	@ Tag_CPU_arch_profile
	.eabi_attribute	8, 1	@ Tag_ARM_ISA_use
	.eabi_attribute	9, 2	@ Tag_THUMB_ISA_use
	.fpu	neon
	.eabi_attribute	17, 1	@ Tag_ABI_PCS_GOT_use
	.eabi_attribute	20, 2	@ Tag_ABI_FP_denormal
	.eabi_attribute	23, 1	@ Tag_ABI_FP_number_model
	.eabi_attribute	34, 1	@ Tag_CPU_unaligned_access
	.eabi_attribute	24, 1	@ Tag_ABI_align_needed
	.eabi_attribute	25, 1	@ Tag_ABI_align_preserved
	.eabi_attribute	28, 1	@ Tag_ABI_VFP_args
	.eabi_attribute	38, 1	@ Tag_ABI_FP_16bit_format
	.eabi_attribute	18, 4	@ Tag_ABI_PCS_wchar_t
	.eabi_attribute	26, 2	@ Tag_ABI_enum_size
	.eabi_attribute	14, 0	@ Tag_ABI_PCS_R9_use
	.eabi_attribute	68, 1	@ Tag_Virtualization_use
	.file	"/root/Bela/projects/Thesis/build/SourceSeparation.bc"
	.file	1 "/usr/include/ne10" "NE10_types.h"
	.file	2 "./libraries/Fft" "Fft.h"
	.file	3 "/usr/bin/../lib/gcc/arm-linux-gnueabihf/6.3.0/../../../../include/arm-linux-gnueabihf/c++/6.3.0/bits" "c++config.h"
	.file	4 "/usr/bin/../lib/gcc/arm-linux-gnueabihf/6.3.0/../../../../include/c++/6.3.0/bits" "alloc_traits.h"
	.file	5 "/usr/bin/../lib/gcc/arm-linux-gnueabihf/6.3.0/../../../../include/c++/6.3.0/ext" "new_allocator.h"
	.file	6 "/usr/bin/../lib/gcc/arm-linux-gnueabihf/6.3.0/../../../../include/arm-linux-gnueabihf/c++/6.3.0/bits" "c++allocator.h"
	.file	7 "/usr/bin/../lib/gcc/arm-linux-gnueabihf/6.3.0/../../../../include/c++/6.3.0/bits" "allocator.h"
	.file	8 "/usr/bin/../lib/gcc/arm-linux-gnueabihf/6.3.0/../../../../include/c++/6.3.0/ext" "alloc_traits.h"
	.file	9 "/usr/bin/../lib/gcc/arm-linux-gnueabihf/6.3.0/../../../../include/c++/6.3.0/bits" "stl_vector.h"
	.file	10 "/usr/bin/../lib/gcc/arm-linux-gnueabihf/6.3.0/../../../../include/c++/6.3.0" "type_traits"
	.file	11 "/root/Bela/projects/Thesis" "SourceSeparation.cpp"
	.file	12 "./include" "Bela.h"
	.file	13 "/usr/bin/../lib/gcc/arm-linux-gnueabihf/6.3.0/../../../../include/c++/6.3.0/ext" "concurrence.h"
	.file	14 "/usr/bin/../lib/gcc/arm-linux-gnueabihf/6.3.0/../../../../include/c++/6.3.0/bits" "cpp_type_traits.h"
	.file	15 "/usr/bin/../lib/gcc/arm-linux-gnueabihf/6.3.0/../../../../include/c++/6.3.0/bits" "stl_iterator.h"
	.file	16 "/usr/bin/../lib/gcc/arm-linux-gnueabihf/6.3.0/../../../../include/c++/6.3.0/bits" "stl_iterator_base_types.h"
	.file	17 "/usr/include/arm-linux-gnueabihf/bits" "math-finite.h"
	.file	18 "/usr/include/arm-linux-gnueabihf/bits" "mathcalls.h"
	.file	19 "/usr/include/arm-linux-gnueabihf/bits" "mathdef.h"
	.file	20 "/usr/include" "string.h"
	.file	21 "/usr/lib/llvm-3.9/bin/../lib/clang/3.9.1/include" "stddef.h"
	.file	22 "/usr/bin/../lib/gcc/arm-linux-gnueabihf/6.3.0/../../../../include/c++/6.3.0/debug" "debug.h"
	.file	23 "/usr/bin/../lib/gcc/arm-linux-gnueabihf/6.3.0/../../../../include/c++/6.3.0/bits" "exception_ptr.h"
	.file	24 "/usr/include" "stdlib.h"
	.file	25 "/usr/include/arm-linux-gnueabihf/bits" "stdlib-float.h"
	.file	26 "/usr/include/arm-linux-gnueabihf/bits" "stdlib-bsearch.h"
	.file	27 "/usr/bin/../lib/gcc/arm-linux-gnueabihf/6.3.0/../../../../include/c++/6.3.0" "cstdlib"
	.file	28 "/root/Bela/projects/Thesis/build" "SourceSeparation.cpp"
	.file	29 "/usr/include" "wchar.h"
	.file	30 "/usr/include" "libio.h"
	.file	31 "/usr/include/arm-linux-gnueabihf/bits" "types.h"
	.file	32 "/usr/include" "stdio.h"
	.file	33 "/usr/lib/llvm-3.9/bin/../lib/clang/3.9.1/include" "stdarg.h"
	.file	34 "/usr/include" "time.h"
	.file	35 "/usr/include" "stdint.h"
	.file	36 "/usr/include" "locale.h"
	.file	37 "/usr/include" "ctype.h"
	.file	38 "/usr/include" "_G_config.h"
	.file	39 "/usr/include/arm-linux-gnueabihf/bits" "stdio.h"
	.file	40 "/usr/include" "wctype.h"
	.section	.text._ZN3FftD2Ev,"axG",%progbits,_ZN3FftD2Ev,comdat
	.weak	_ZN3FftD2Ev
	.p2align	2
	.type	_ZN3FftD2Ev,%function
_ZN3FftD2Ev:                            @ @_ZN3FftD2Ev
.Lfunc_begin0:
	.loc	2 15 0                  @ ./libraries/Fft/Fft.h:15:0
	.fnstart
	.cfi_startproc
@ BB#0:
	.save	{r4, r10, r11, lr}
	push	{r4, r10, r11, lr}
.Ltmp3:
	.cfi_def_cfa_offset 16
.Ltmp4:
	.cfi_offset lr, -4
.Ltmp5:
	.cfi_offset r11, -8
.Ltmp6:
	.cfi_offset r10, -12
.Ltmp7:
	.cfi_offset r4, -16
	.setfp	r11, sp, #8
	add	r11, sp, #8
.Ltmp8:
	.cfi_def_cfa r11, 8
	@DEBUG_VALUE: ~Fft:this <- %R0
	mov	r4, r0
.Ltmp9:
	@DEBUG_VALUE: ~Fft:this <- %R4
	.loc	2 15 10 prologue_end    @ ./libraries/Fft/Fft.h:15:10
.Ltmp0:
	bl	_ZN3Fft7cleanupEv
.Ltmp1:
.Ltmp10:
@ BB#1:
	@DEBUG_VALUE: ~Fft:this <- %R4
	.loc	2 15 21 is_stmt 0 discriminator 1 @ ./libraries/Fft/Fft.h:15:21
	mov	r0, r4
	pop	{r4, r10, r11, pc}
.Ltmp11:
.LBB0_2:
	@DEBUG_VALUE: ~Fft:this <- %R4
.Ltmp2:
.Ltmp12:
	.loc	2 15 10 discriminator 2 @ ./libraries/Fft/Fft.h:15:10
	mov	lr, pc
	b	__clang_call_terminate
.Ltmp13:
.Lfunc_end0:
	.size	_ZN3FftD2Ev, .Lfunc_end0-_ZN3FftD2Ev
	.cfi_endproc
	.globl	__gxx_personality_v0
	.personality __gxx_personality_v0
	.handlerdata
	.p2align	2
GCC_except_table0:
.Lexception0:
	.byte	255                     @ @LPStart Encoding = omit
	.byte	0                       @ @TType Encoding = absptr
	.byte	21                      @ @TType base offset
	.byte	3                       @ Call site Encoding = udata4
	.byte	13                      @ Call site table length
	.long	.Ltmp0-.Lfunc_begin0    @ >> Call Site 1 <<
	.long	.Ltmp1-.Ltmp0           @   Call between .Ltmp0 and .Ltmp1
	.long	.Ltmp2-.Lfunc_begin0    @     jumps to .Ltmp2
	.byte	1                       @   On action: 1
	.byte	1                       @ >> Action Record 1 <<
                                        @   Catch TypeInfo 1
	.byte	0                       @   No further actions
                                        @ >> Catch TypeInfos <<
	.long	0                       @ TypeInfo 1
	.p2align	2
	.fnend

	.section	.text._ZNSt6vectorIfSaIfEED2Ev,"axG",%progbits,_ZNSt6vectorIfSaIfEED2Ev,comdat
	.weak	_ZNSt6vectorIfSaIfEED2Ev
	.p2align	2
	.type	_ZNSt6vectorIfSaIfEED2Ev,%function
_ZNSt6vectorIfSaIfEED2Ev:               @ @_ZNSt6vectorIfSaIfEED2Ev
.Lfunc_begin1:
	.loc	9 426 0 is_stmt 1       @ /usr/bin/../lib/gcc/arm-linux-gnueabihf/6.3.0/../../../../include/c++/6.3.0/bits/stl_vector.h:426:0
	.fnstart
	.cfi_startproc
@ BB#0:
	.save	{r4, r10, r11, lr}
	push	{r4, r10, r11, lr}
.Ltmp14:
	.cfi_def_cfa_offset 16
.Ltmp15:
	.cfi_offset lr, -4
.Ltmp16:
	.cfi_offset r11, -8
.Ltmp17:
	.cfi_offset r10, -12
.Ltmp18:
	.cfi_offset r4, -16
	.setfp	r11, sp, #8
	add	r11, sp, #8
.Ltmp19:
	.cfi_def_cfa r11, 8
	@DEBUG_VALUE: ~vector:this <- %R0
	mov	r4, r0
.Ltmp20:
	@DEBUG_VALUE: ~vector:this <- %R4
	.loc	9 160 37 prologue_end   @ /usr/bin/../lib/gcc/arm-linux-gnueabihf/6.3.0/../../../../include/c++/6.3.0/bits/stl_vector.h:160:37
	ldr	r0, [r4]
.Ltmp21:
	@DEBUG_VALUE: _M_deallocate:__p <- %R0
	@DEBUG_VALUE: deallocate:__p <- %R0
	@DEBUG_VALUE: deallocate:__p <- %R0
	.loc	9 177 6                 @ /usr/bin/../lib/gcc/arm-linux-gnueabihf/6.3.0/../../../../include/c++/6.3.0/bits/stl_vector.h:177:6
	cmp	r0, #0
	beq	.LBB1_2
.Ltmp22:
@ BB#1:
	@DEBUG_VALUE: deallocate:__p <- %R0
	@DEBUG_VALUE: deallocate:__p <- %R0
	@DEBUG_VALUE: _M_deallocate:__p <- %R0
	@DEBUG_VALUE: ~vector:this <- %R4
	.loc	5 110 9                 @ /usr/bin/../lib/gcc/arm-linux-gnueabihf/6.3.0/../../../../include/c++/6.3.0/ext/new_allocator.h:110:9
	bl	_ZdlPv
.Ltmp23:
.LBB1_2:                                @ %_ZNSt12_Vector_baseIfSaIfEED2Ev.exit
	@DEBUG_VALUE: ~vector:this <- %R4
	.loc	9 427 33 discriminator 1 @ /usr/bin/../lib/gcc/arm-linux-gnueabihf/6.3.0/../../../../include/c++/6.3.0/bits/stl_vector.h:427:33
	mov	r0, r4
	pop	{r4, r10, r11, pc}
.Ltmp24:
.Lfunc_end1:
	.size	_ZNSt6vectorIfSaIfEED2Ev, .Lfunc_end1-_ZNSt6vectorIfSaIfEED2Ev
	.cfi_endproc
	.fnend

	.text
	.globl	_Z13initialize_SSv
	.p2align	4
	.type	_Z13initialize_SSv,%function
_Z13initialize_SSv:                     @ @_Z13initialize_SSv
.Lfunc_begin2:
	.loc	11 77 0                 @ /root/Bela/projects/Thesis/SourceSeparation.cpp:77:0
	.fnstart
	.cfi_startproc
@ BB#0:
	.save	{r4, r5, r6, r7, r8, r10, r11, lr}
	push	{r4, r5, r6, r7, r8, r10, r11, lr}
.Ltmp25:
	.cfi_def_cfa_offset 32
.Ltmp26:
	.cfi_offset lr, -4
.Ltmp27:
	.cfi_offset r11, -8
.Ltmp28:
	.cfi_offset r10, -12
.Ltmp29:
	.cfi_offset r8, -16
.Ltmp30:
	.cfi_offset r7, -20
.Ltmp31:
	.cfi_offset r6, -24
.Ltmp32:
	.cfi_offset r5, -28
.Ltmp33:
	.cfi_offset r4, -32
	.setfp	r11, sp, #24
	add	r11, sp, #24
.Ltmp34:
	.cfi_def_cfa r11, 8
	.vsave	{d8, d9, d10, d11, d12, d13, d14, d15}
	vpush	{d8, d9, d10, d11, d12, d13, d14, d15}
.Ltmp35:
	.cfi_offset d15, -40
.Ltmp36:
	.cfi_offset d14, -48
.Ltmp37:
	.cfi_offset d13, -56
.Ltmp38:
	.cfi_offset d12, -64
.Ltmp39:
	.cfi_offset d11, -72
.Ltmp40:
	.cfi_offset d10, -80
.Ltmp41:
	.cfi_offset d9, -88
.Ltmp42:
	.cfi_offset d8, -96
.Ltmp43:
	.loc	11 80 7 prologue_end    @ /root/Bela/projects/Thesis/SourceSeparation.cpp:80:7
	movw	r5, :lower16:.L_MergedGlobals.1
	mov	r1, #1024
	movt	r5, :upper16:.L_MergedGlobals.1
	add	r0, r5, #84
	bl	_ZN3Fft5setupEj
.Ltmp44:
	@DEBUG_VALUE: resize:__new_size <- 16384
	.loc	9 656 40                @ /usr/bin/../lib/gcc/arm-linux-gnueabihf/6.3.0/../../../../include/c++/6.3.0/bits/stl_vector.h:656:40
	movw	r8, :lower16:.L_MergedGlobals
	mov	r2, #0
	movt	r8, :upper16:.L_MergedGlobals
	.loc	9 656 66 is_stmt 0      @ /usr/bin/../lib/gcc/arm-linux-gnueabihf/6.3.0/../../../../include/c++/6.3.0/bits/stl_vector.h:656:66
	ldr	r0, [r8, #92]
	.loc	9 656 40                @ /usr/bin/../lib/gcc/arm-linux-gnueabihf/6.3.0/../../../../include/c++/6.3.0/bits/stl_vector.h:656:40
	ldr	r1, [r8, #96]
	.loc	9 656 50                @ /usr/bin/../lib/gcc/arm-linux-gnueabihf/6.3.0/../../../../include/c++/6.3.0/bits/stl_vector.h:656:50
	sub	r1, r1, r0
	asr	r1, r1, #2
.Ltmp45:
	.loc	9 676 6 is_stmt 1       @ /usr/bin/../lib/gcc/arm-linux-gnueabihf/6.3.0/../../../../include/c++/6.3.0/bits/stl_vector.h:676:6
	cmp	r2, r1, lsr #14
	bne	.LBB2_2
@ BB#1:
.Ltmp46:
	.loc	9 677 4 discriminator 1 @ /usr/bin/../lib/gcc/arm-linux-gnueabihf/6.3.0/../../../../include/c++/6.3.0/bits/stl_vector.h:677:4
	add	r0, r8, #92
.Ltmp47:
	@DEBUG_VALUE: _M_erase_at_end:this <- %R0
	.loc	9 677 33 is_stmt 0      @ /usr/bin/../lib/gcc/arm-linux-gnueabihf/6.3.0/../../../../include/c++/6.3.0/bits/stl_vector.h:677:33
	rsb	r1, r1, #16384
	.loc	9 677 4 discriminator 1 @ /usr/bin/../lib/gcc/arm-linux-gnueabihf/6.3.0/../../../../include/c++/6.3.0/bits/stl_vector.h:677:4
	bl	_ZNSt6vectorIfSaIfEE17_M_default_appendEj
.Ltmp48:
	b	.LBB2_3
.LBB2_2:
	.loc	9 678 11 is_stmt 1      @ /usr/bin/../lib/gcc/arm-linux-gnueabihf/6.3.0/../../../../include/c++/6.3.0/bits/stl_vector.h:678:11
	cmp	r1, #16384
.Ltmp49:
	.loc	9 679 43                @ /usr/bin/../lib/gcc/arm-linux-gnueabihf/6.3.0/../../../../include/c++/6.3.0/bits/stl_vector.h:679:43
	addne	r0, r0, #65536
.Ltmp50:
	@DEBUG_VALUE: _M_erase_at_end:__pos <- %R0
	.loc	9 1437 26               @ /usr/bin/../lib/gcc/arm-linux-gnueabihf/6.3.0/../../../../include/c++/6.3.0/bits/stl_vector.h:1437:26
	strne	r0, [r8, #96]
.Ltmp51:
.LBB2_3:                                @ %_ZNSt6vectorIfSaIfEE6resizeEj.exit
	@DEBUG_VALUE: resize:__new_size <- 16384
	.loc	9 656 66                @ /usr/bin/../lib/gcc/arm-linux-gnueabihf/6.3.0/../../../../include/c++/6.3.0/bits/stl_vector.h:656:66
	ldrd	r0, r1, [r5]
	mov	r2, #0
	.loc	9 656 50 is_stmt 0      @ /usr/bin/../lib/gcc/arm-linux-gnueabihf/6.3.0/../../../../include/c++/6.3.0/bits/stl_vector.h:656:50
	sub	r1, r1, r0
	asr	r1, r1, #2
.Ltmp52:
	.loc	9 676 6 is_stmt 1       @ /usr/bin/../lib/gcc/arm-linux-gnueabihf/6.3.0/../../../../include/c++/6.3.0/bits/stl_vector.h:676:6
	cmp	r2, r1, lsr #14
	bne	.LBB2_5
@ BB#4:
.Ltmp53:
	.loc	9 677 4 discriminator 1 @ /usr/bin/../lib/gcc/arm-linux-gnueabihf/6.3.0/../../../../include/c++/6.3.0/bits/stl_vector.h:677:4
	movw	r0, :lower16:.L_MergedGlobals.1
	.loc	9 677 33 is_stmt 0      @ /usr/bin/../lib/gcc/arm-linux-gnueabihf/6.3.0/../../../../include/c++/6.3.0/bits/stl_vector.h:677:33
	rsb	r1, r1, #16384
	.loc	9 677 4 discriminator 1 @ /usr/bin/../lib/gcc/arm-linux-gnueabihf/6.3.0/../../../../include/c++/6.3.0/bits/stl_vector.h:677:4
	movt	r0, :upper16:.L_MergedGlobals.1
.Ltmp54:
	@DEBUG_VALUE: _M_erase_at_end:this <- %R0
	bl	_ZNSt6vectorIfSaIfEE17_M_default_appendEj
.Ltmp55:
	b	.LBB2_6
.LBB2_5:
	.loc	9 678 11 is_stmt 1      @ /usr/bin/../lib/gcc/arm-linux-gnueabihf/6.3.0/../../../../include/c++/6.3.0/bits/stl_vector.h:678:11
	cmp	r1, #16384
.Ltmp56:
	.loc	9 679 43                @ /usr/bin/../lib/gcc/arm-linux-gnueabihf/6.3.0/../../../../include/c++/6.3.0/bits/stl_vector.h:679:43
	addne	r0, r0, #65536
.Ltmp57:
	@DEBUG_VALUE: _M_erase_at_end:__pos <- %R0
	.loc	9 1437 26               @ /usr/bin/../lib/gcc/arm-linux-gnueabihf/6.3.0/../../../../include/c++/6.3.0/bits/stl_vector.h:1437:26
	strne	r0, [r5, #4]
.Ltmp58:
.LBB2_6:                                @ %_ZNSt6vectorIfSaIfEE6resizeEj.exit14
	@DEBUG_VALUE: resize:__new_size <- 16384
	.loc	9 656 66                @ /usr/bin/../lib/gcc/arm-linux-gnueabihf/6.3.0/../../../../include/c++/6.3.0/bits/stl_vector.h:656:66
	ldr	r0, [r5, #12]
	mov	r2, #0
	.loc	9 656 40 is_stmt 0      @ /usr/bin/../lib/gcc/arm-linux-gnueabihf/6.3.0/../../../../include/c++/6.3.0/bits/stl_vector.h:656:40
	ldr	r1, [r5, #16]
	.loc	9 656 50                @ /usr/bin/../lib/gcc/arm-linux-gnueabihf/6.3.0/../../../../include/c++/6.3.0/bits/stl_vector.h:656:50
	sub	r1, r1, r0
	asr	r1, r1, #2
.Ltmp59:
	.loc	9 676 6 is_stmt 1       @ /usr/bin/../lib/gcc/arm-linux-gnueabihf/6.3.0/../../../../include/c++/6.3.0/bits/stl_vector.h:676:6
	cmp	r2, r1, lsr #14
	bne	.LBB2_8
@ BB#7:
.Ltmp60:
	.loc	9 677 4 discriminator 1 @ /usr/bin/../lib/gcc/arm-linux-gnueabihf/6.3.0/../../../../include/c++/6.3.0/bits/stl_vector.h:677:4
	add	r0, r5, #12
.Ltmp61:
	@DEBUG_VALUE: _M_erase_at_end:this <- %R0
	.loc	9 677 33 is_stmt 0      @ /usr/bin/../lib/gcc/arm-linux-gnueabihf/6.3.0/../../../../include/c++/6.3.0/bits/stl_vector.h:677:33
	rsb	r1, r1, #16384
	.loc	9 677 4 discriminator 1 @ /usr/bin/../lib/gcc/arm-linux-gnueabihf/6.3.0/../../../../include/c++/6.3.0/bits/stl_vector.h:677:4
	bl	_ZNSt6vectorIfSaIfEE17_M_default_appendEj
.Ltmp62:
	b	.LBB2_9
.LBB2_8:
	.loc	9 678 11 is_stmt 1      @ /usr/bin/../lib/gcc/arm-linux-gnueabihf/6.3.0/../../../../include/c++/6.3.0/bits/stl_vector.h:678:11
	cmp	r1, #16384
.Ltmp63:
	.loc	9 679 43                @ /usr/bin/../lib/gcc/arm-linux-gnueabihf/6.3.0/../../../../include/c++/6.3.0/bits/stl_vector.h:679:43
	addne	r0, r0, #65536
.Ltmp64:
	@DEBUG_VALUE: _M_erase_at_end:__pos <- %R0
	.loc	9 1437 26               @ /usr/bin/../lib/gcc/arm-linux-gnueabihf/6.3.0/../../../../include/c++/6.3.0/bits/stl_vector.h:1437:26
	strne	r0, [r5, #16]
.Ltmp65:
.LBB2_9:                                @ %_ZNSt6vectorIfSaIfEE6resizeEj.exit15
	@DEBUG_VALUE: resize:__new_size <- 16384
	.loc	9 656 66                @ /usr/bin/../lib/gcc/arm-linux-gnueabihf/6.3.0/../../../../include/c++/6.3.0/bits/stl_vector.h:656:66
	ldrd	r0, r1, [r8, #104]
	mov	r2, #0
	.loc	9 656 50 is_stmt 0      @ /usr/bin/../lib/gcc/arm-linux-gnueabihf/6.3.0/../../../../include/c++/6.3.0/bits/stl_vector.h:656:50
	sub	r1, r1, r0
	asr	r1, r1, #2
.Ltmp66:
	.loc	9 676 6 is_stmt 1       @ /usr/bin/../lib/gcc/arm-linux-gnueabihf/6.3.0/../../../../include/c++/6.3.0/bits/stl_vector.h:676:6
	cmp	r2, r1, lsr #14
	bne	.LBB2_11
@ BB#10:
.Ltmp67:
	.loc	9 677 4 discriminator 1 @ /usr/bin/../lib/gcc/arm-linux-gnueabihf/6.3.0/../../../../include/c++/6.3.0/bits/stl_vector.h:677:4
	add	r0, r8, #104
.Ltmp68:
	@DEBUG_VALUE: _M_erase_at_end:this <- %R0
	.loc	9 677 33 is_stmt 0      @ /usr/bin/../lib/gcc/arm-linux-gnueabihf/6.3.0/../../../../include/c++/6.3.0/bits/stl_vector.h:677:33
	rsb	r1, r1, #16384
	.loc	9 677 4 discriminator 1 @ /usr/bin/../lib/gcc/arm-linux-gnueabihf/6.3.0/../../../../include/c++/6.3.0/bits/stl_vector.h:677:4
	bl	_ZNSt6vectorIfSaIfEE17_M_default_appendEj
.Ltmp69:
	b	.LBB2_12
.LBB2_11:
	.loc	9 678 11 is_stmt 1      @ /usr/bin/../lib/gcc/arm-linux-gnueabihf/6.3.0/../../../../include/c++/6.3.0/bits/stl_vector.h:678:11
	cmp	r1, #16384
.Ltmp70:
	.loc	9 679 43                @ /usr/bin/../lib/gcc/arm-linux-gnueabihf/6.3.0/../../../../include/c++/6.3.0/bits/stl_vector.h:679:43
	addne	r0, r0, #65536
.Ltmp71:
	@DEBUG_VALUE: _M_erase_at_end:__pos <- %R0
	.loc	9 1437 26               @ /usr/bin/../lib/gcc/arm-linux-gnueabihf/6.3.0/../../../../include/c++/6.3.0/bits/stl_vector.h:1437:26
	strne	r0, [r8, #108]
.Ltmp72:
.LBB2_12:                               @ %_ZNSt6vectorIfSaIfEE6resizeEj.exit16
	@DEBUG_VALUE: resize:__new_size <- 16384
	.loc	9 656 66                @ /usr/bin/../lib/gcc/arm-linux-gnueabihf/6.3.0/../../../../include/c++/6.3.0/bits/stl_vector.h:656:66
	ldrd	r0, r1, [r5, #24]
	mov	r2, #0
	.loc	9 656 50 is_stmt 0      @ /usr/bin/../lib/gcc/arm-linux-gnueabihf/6.3.0/../../../../include/c++/6.3.0/bits/stl_vector.h:656:50
	sub	r1, r1, r0
	asr	r1, r1, #2
.Ltmp73:
	.loc	9 676 6 is_stmt 1       @ /usr/bin/../lib/gcc/arm-linux-gnueabihf/6.3.0/../../../../include/c++/6.3.0/bits/stl_vector.h:676:6
	cmp	r2, r1, lsr #14
	bne	.LBB2_14
@ BB#13:
.Ltmp74:
	.loc	9 677 4 discriminator 1 @ /usr/bin/../lib/gcc/arm-linux-gnueabihf/6.3.0/../../../../include/c++/6.3.0/bits/stl_vector.h:677:4
	add	r0, r5, #24
.Ltmp75:
	@DEBUG_VALUE: _M_erase_at_end:this <- %R0
	.loc	9 677 33 is_stmt 0      @ /usr/bin/../lib/gcc/arm-linux-gnueabihf/6.3.0/../../../../include/c++/6.3.0/bits/stl_vector.h:677:33
	rsb	r1, r1, #16384
	.loc	9 677 4 discriminator 1 @ /usr/bin/../lib/gcc/arm-linux-gnueabihf/6.3.0/../../../../include/c++/6.3.0/bits/stl_vector.h:677:4
	bl	_ZNSt6vectorIfSaIfEE17_M_default_appendEj
.Ltmp76:
	b	.LBB2_15
.LBB2_14:
	.loc	9 678 11 is_stmt 1      @ /usr/bin/../lib/gcc/arm-linux-gnueabihf/6.3.0/../../../../include/c++/6.3.0/bits/stl_vector.h:678:11
	cmp	r1, #16384
.Ltmp77:
	.loc	9 679 43                @ /usr/bin/../lib/gcc/arm-linux-gnueabihf/6.3.0/../../../../include/c++/6.3.0/bits/stl_vector.h:679:43
	addne	r0, r0, #65536
.Ltmp78:
	@DEBUG_VALUE: _M_erase_at_end:__pos <- %R0
	.loc	9 1437 26               @ /usr/bin/../lib/gcc/arm-linux-gnueabihf/6.3.0/../../../../include/c++/6.3.0/bits/stl_vector.h:1437:26
	strne	r0, [r5, #28]
.Ltmp79:
.LBB2_15:                               @ %_ZNSt6vectorIfSaIfEE6resizeEj.exit17
	@DEBUG_VALUE: resize:__new_size <- 16384
	.loc	9 656 66                @ /usr/bin/../lib/gcc/arm-linux-gnueabihf/6.3.0/../../../../include/c++/6.3.0/bits/stl_vector.h:656:66
	ldr	r0, [r5, #36]
	mov	r2, #0
	.loc	9 656 40 is_stmt 0      @ /usr/bin/../lib/gcc/arm-linux-gnueabihf/6.3.0/../../../../include/c++/6.3.0/bits/stl_vector.h:656:40
	ldr	r1, [r5, #40]
	.loc	9 656 50                @ /usr/bin/../lib/gcc/arm-linux-gnueabihf/6.3.0/../../../../include/c++/6.3.0/bits/stl_vector.h:656:50
	sub	r1, r1, r0
	asr	r1, r1, #2
.Ltmp80:
	.loc	9 676 6 is_stmt 1       @ /usr/bin/../lib/gcc/arm-linux-gnueabihf/6.3.0/../../../../include/c++/6.3.0/bits/stl_vector.h:676:6
	cmp	r2, r1, lsr #14
	bne	.LBB2_17
@ BB#16:
.Ltmp81:
	.loc	9 677 4 discriminator 1 @ /usr/bin/../lib/gcc/arm-linux-gnueabihf/6.3.0/../../../../include/c++/6.3.0/bits/stl_vector.h:677:4
	add	r0, r5, #36
.Ltmp82:
	@DEBUG_VALUE: _M_erase_at_end:this <- %R0
	.loc	9 677 33 is_stmt 0      @ /usr/bin/../lib/gcc/arm-linux-gnueabihf/6.3.0/../../../../include/c++/6.3.0/bits/stl_vector.h:677:33
	rsb	r1, r1, #16384
	.loc	9 677 4 discriminator 1 @ /usr/bin/../lib/gcc/arm-linux-gnueabihf/6.3.0/../../../../include/c++/6.3.0/bits/stl_vector.h:677:4
	bl	_ZNSt6vectorIfSaIfEE17_M_default_appendEj
.Ltmp83:
	b	.LBB2_18
.LBB2_17:
	.loc	9 678 11 is_stmt 1      @ /usr/bin/../lib/gcc/arm-linux-gnueabihf/6.3.0/../../../../include/c++/6.3.0/bits/stl_vector.h:678:11
	cmp	r1, #16384
.Ltmp84:
	.loc	9 679 43                @ /usr/bin/../lib/gcc/arm-linux-gnueabihf/6.3.0/../../../../include/c++/6.3.0/bits/stl_vector.h:679:43
	addne	r0, r0, #65536
.Ltmp85:
	@DEBUG_VALUE: _M_erase_at_end:__pos <- %R0
	.loc	9 1437 26               @ /usr/bin/../lib/gcc/arm-linux-gnueabihf/6.3.0/../../../../include/c++/6.3.0/bits/stl_vector.h:1437:26
	strne	r0, [r5, #40]
.Ltmp86:
.LBB2_18:                               @ %_ZNSt6vectorIfSaIfEE6resizeEj.exit18
	@DEBUG_VALUE: resize:__new_size <- 1024
	.loc	9 656 66                @ /usr/bin/../lib/gcc/arm-linux-gnueabihf/6.3.0/../../../../include/c++/6.3.0/bits/stl_vector.h:656:66
	ldrd	r0, r1, [r5, #48]
	mov	r2, #0
	.loc	9 656 50 is_stmt 0      @ /usr/bin/../lib/gcc/arm-linux-gnueabihf/6.3.0/../../../../include/c++/6.3.0/bits/stl_vector.h:656:50
	sub	r1, r1, r0
	asr	r1, r1, #2
.Ltmp87:
	.loc	9 676 6 is_stmt 1       @ /usr/bin/../lib/gcc/arm-linux-gnueabihf/6.3.0/../../../../include/c++/6.3.0/bits/stl_vector.h:676:6
	cmp	r2, r1, lsr #10
	bne	.LBB2_20
@ BB#19:
.Ltmp88:
	.loc	9 677 4 discriminator 1 @ /usr/bin/../lib/gcc/arm-linux-gnueabihf/6.3.0/../../../../include/c++/6.3.0/bits/stl_vector.h:677:4
	add	r0, r5, #48
.Ltmp89:
	@DEBUG_VALUE: _M_erase_at_end:this <- %R0
	.loc	9 677 33 is_stmt 0      @ /usr/bin/../lib/gcc/arm-linux-gnueabihf/6.3.0/../../../../include/c++/6.3.0/bits/stl_vector.h:677:33
	rsb	r1, r1, #1024
	.loc	9 677 4 discriminator 1 @ /usr/bin/../lib/gcc/arm-linux-gnueabihf/6.3.0/../../../../include/c++/6.3.0/bits/stl_vector.h:677:4
	bl	_ZNSt6vectorIfSaIfEE17_M_default_appendEj
.Ltmp90:
	b	.LBB2_21
.LBB2_20:
	.loc	9 678 11 is_stmt 1      @ /usr/bin/../lib/gcc/arm-linux-gnueabihf/6.3.0/../../../../include/c++/6.3.0/bits/stl_vector.h:678:11
	cmp	r1, #1024
.Ltmp91:
	.loc	9 679 43                @ /usr/bin/../lib/gcc/arm-linux-gnueabihf/6.3.0/../../../../include/c++/6.3.0/bits/stl_vector.h:679:43
	addne	r0, r0, #4096
.Ltmp92:
	@DEBUG_VALUE: _M_erase_at_end:__pos <- %R0
	.loc	9 1437 26               @ /usr/bin/../lib/gcc/arm-linux-gnueabihf/6.3.0/../../../../include/c++/6.3.0/bits/stl_vector.h:1437:26
	strne	r0, [r5, #52]
.Ltmp93:
.LBB2_21:                               @ %_ZNSt6vectorIfSaIfEE6resizeEj.exit19
	@DEBUG_VALUE: resize:__new_size <- 1024
	.loc	9 656 66                @ /usr/bin/../lib/gcc/arm-linux-gnueabihf/6.3.0/../../../../include/c++/6.3.0/bits/stl_vector.h:656:66
	ldr	r6, [r5, #60]
	.loc	9 656 40 is_stmt 0      @ /usr/bin/../lib/gcc/arm-linux-gnueabihf/6.3.0/../../../../include/c++/6.3.0/bits/stl_vector.h:656:40
	ldr	r0, [r5, #64]
	.loc	9 656 50                @ /usr/bin/../lib/gcc/arm-linux-gnueabihf/6.3.0/../../../../include/c++/6.3.0/bits/stl_vector.h:656:50
	sub	r0, r0, r6
	asr	r1, r0, #2
	mov	r0, #0
.Ltmp94:
	.loc	9 676 6 is_stmt 1       @ /usr/bin/../lib/gcc/arm-linux-gnueabihf/6.3.0/../../../../include/c++/6.3.0/bits/stl_vector.h:676:6
	cmp	r0, r1, lsr #10
	bne	.LBB2_23
@ BB#22:
.Ltmp95:
	.loc	9 677 4 discriminator 1 @ /usr/bin/../lib/gcc/arm-linux-gnueabihf/6.3.0/../../../../include/c++/6.3.0/bits/stl_vector.h:677:4
	add	r0, r5, #60
.Ltmp96:
	@DEBUG_VALUE: _M_erase_at_end:this <- %R0
	.loc	9 677 33 is_stmt 0      @ /usr/bin/../lib/gcc/arm-linux-gnueabihf/6.3.0/../../../../include/c++/6.3.0/bits/stl_vector.h:677:33
	rsb	r1, r1, #1024
	.loc	9 677 4 discriminator 1 @ /usr/bin/../lib/gcc/arm-linux-gnueabihf/6.3.0/../../../../include/c++/6.3.0/bits/stl_vector.h:677:4
	bl	_ZNSt6vectorIfSaIfEE17_M_default_appendEj
.Ltmp97:
	.loc	9 781 32 is_stmt 1      @ /usr/bin/../lib/gcc/arm-linux-gnueabihf/6.3.0/../../../../include/c++/6.3.0/bits/stl_vector.h:781:32
	ldr	r6, [r5, #60]
	b	.LBB2_24
.Ltmp98:
.LBB2_23:
	.loc	9 678 11                @ /usr/bin/../lib/gcc/arm-linux-gnueabihf/6.3.0/../../../../include/c++/6.3.0/bits/stl_vector.h:678:11
	cmp	r1, #1024
.Ltmp99:
	.loc	9 679 43                @ /usr/bin/../lib/gcc/arm-linux-gnueabihf/6.3.0/../../../../include/c++/6.3.0/bits/stl_vector.h:679:43
	addne	r0, r6, #4096
.Ltmp100:
	@DEBUG_VALUE: _M_erase_at_end:__pos <- %R0
	.loc	9 1437 26               @ /usr/bin/../lib/gcc/arm-linux-gnueabihf/6.3.0/../../../../include/c++/6.3.0/bits/stl_vector.h:1437:26
	strne	r0, [r5, #64]
.Ltmp101:
.LBB2_24:                               @ %_ZNSt6vectorIfSaIfEE6resizeEj.exit20.preheader
	.loc	9 781 32                @ /usr/bin/../lib/gcc/arm-linux-gnueabihf/6.3.0/../../../../include/c++/6.3.0/bits/stl_vector.h:781:32
	ldr	r7, [r5, #48]
.Ltmp102:
	.loc	11 93 2 discriminator 1 @ /root/Bela/projects/Thesis/SourceSeparation.cpp:93:2
	add	r0, r6, #4096
	cmp	r7, r0
	addlo	r0, r7, #4096
	cmplo	r6, r0
	blo	.LBB2_27
@ BB#25:                                @ %vector.body.preheader
	adr	r0, .LCPI2_0
.Ltmp103:
	.loc	11 95 83                @ /root/Bela/projects/Thesis/SourceSeparation.cpp:95:83
	vldr	d12, .LCPI2_1
	vld1.64	{d10, d11}, [r0:128]
	mov	r4, #1024
.LBB2_26:                               @ %vector.body
                                        @ =>This Inner Loop Header: Depth=1
	.loc	11 95 81 is_stmt 0      @ /root/Bela/projects/Thesis/SourceSeparation.cpp:95:81
	vcvt.f64.s32	d16, s23
	.loc	11 95 83                @ /root/Bela/projects/Thesis/SourceSeparation.cpp:95:83
	vmul.f64	d16, d16, d12
	.loc	11 95 81                @ /root/Bela/projects/Thesis/SourceSeparation.cpp:95:81
	vcvt.f64.s32	d17, s22
	vcvt.f64.s32	d18, s21
	vcvt.f64.s32	d19, s20
	.loc	11 95 50                @ /root/Bela/projects/Thesis/SourceSeparation.cpp:95:50
	vcvt.f32.f64	s0, d16
	.loc	11 95 83                @ /root/Bela/projects/Thesis/SourceSeparation.cpp:95:83
	vmul.f64	d13, d17, d12
	vmul.f64	d14, d18, d12
	vmul.f64	d15, d19, d12
	.loc	11 95 45                @ /root/Bela/projects/Thesis/SourceSeparation.cpp:95:45
	bl	cosf
	vmov.f32	s19, s0
	.loc	11 95 50                @ /root/Bela/projects/Thesis/SourceSeparation.cpp:95:50
	vcvt.f32.f64	s0, d13
	.loc	11 95 45                @ /root/Bela/projects/Thesis/SourceSeparation.cpp:95:45
	bl	cosf
	vmov.f32	s18, s0
	.loc	11 95 50                @ /root/Bela/projects/Thesis/SourceSeparation.cpp:95:50
	vcvt.f32.f64	s0, d14
	.loc	11 95 45                @ /root/Bela/projects/Thesis/SourceSeparation.cpp:95:45
	bl	cosf
	vmov.f32	s17, s0
	.loc	11 95 50                @ /root/Bela/projects/Thesis/SourceSeparation.cpp:95:50
	vcvt.f32.f64	s0, d15
	.loc	11 95 45                @ /root/Bela/projects/Thesis/SourceSeparation.cpp:95:45
	bl	cosf
.Ltmp104:
	.loc	9 781 41 is_stmt 1      @ /usr/bin/../lib/gcc/arm-linux-gnueabihf/6.3.0/../../../../include/c++/6.3.0/bits/stl_vector.h:781:41
	vmov.32	r0, d10[0]
.Ltmp105:
	.loc	11 95 45                @ /root/Bela/projects/Thesis/SourceSeparation.cpp:95:45
	vmov.f32	s16, s0
	.loc	11 95 43 is_stmt 0      @ /root/Bela/projects/Thesis/SourceSeparation.cpp:95:43
	vmov.f32	q8, #1.000000e+00
.Ltmp106:
	.loc	11 93 2 is_stmt 1 discriminator 1 @ /root/Bela/projects/Thesis/SourceSeparation.cpp:93:2
	subs	r4, r4, #4
.Ltmp107:
	.loc	11 95 35                @ /root/Bela/projects/Thesis/SourceSeparation.cpp:95:35
	vmov.i32	q9, #0x3f000000
	.loc	11 95 43 is_stmt 0      @ /root/Bela/projects/Thesis/SourceSeparation.cpp:95:43
	vsub.f32	q8, q8, q4
	.loc	11 95 35                @ /root/Bela/projects/Thesis/SourceSeparation.cpp:95:35
	vmul.f32	q8, q8, q9
.Ltmp108:
	.loc	11 93 2 is_stmt 1 discriminator 1 @ /root/Bela/projects/Thesis/SourceSeparation.cpp:93:2
	vmov.i32	q9, #0x4
	vadd.i32	q5, q5, q9
.Ltmp109:
	.loc	9 781 41                @ /usr/bin/../lib/gcc/arm-linux-gnueabihf/6.3.0/../../../../include/c++/6.3.0/bits/stl_vector.h:781:41
	add	r1, r7, r0, lsl #2
.Ltmp110:
	.loc	9 781 41 is_stmt 0      @ /usr/bin/../lib/gcc/arm-linux-gnueabihf/6.3.0/../../../../include/c++/6.3.0/bits/stl_vector.h:781:41
	add	r0, r6, r0, lsl #2
.Ltmp111:
	.loc	11 95 28 is_stmt 1      @ /root/Bela/projects/Thesis/SourceSeparation.cpp:95:28
	vst1.32	{d16, d17}, [r1]
	.loc	11 96 29                @ /root/Bela/projects/Thesis/SourceSeparation.cpp:96:29
	vst1.32	{d16, d17}, [r0]
	bne	.LBB2_26
	b	.LBB2_29
.LBB2_27:                               @ %_ZNSt6vectorIfSaIfEE6resizeEj.exit20.preheader40
	vmov.f64	d10, #1.000000e+00
	mov	r4, #0
	vmov.i32	d8, #0x0
	.loc	11 95 83                @ /root/Bela/projects/Thesis/SourceSeparation.cpp:95:83
	vldr	d9, .LCPI2_1
	.loc	11 95 43 is_stmt 0      @ /root/Bela/projects/Thesis/SourceSeparation.cpp:95:43
	vmov.f32	d11, #1.000000e+00
	.loc	11 95 35                @ /root/Bela/projects/Thesis/SourceSeparation.cpp:95:35
	vmov.f32	d12, #5.000000e-01
.LBB2_28:                               @ %_ZNSt6vectorIfSaIfEE6resizeEj.exit20
                                        @ =>This Inner Loop Header: Depth=1
	.loc	11 95 83                @ /root/Bela/projects/Thesis/SourceSeparation.cpp:95:83
	vmul.f64	d16, d8, d9
	.loc	11 95 50                @ /root/Bela/projects/Thesis/SourceSeparation.cpp:95:50
	vcvt.f32.f64	s0, d16
	.loc	11 95 45                @ /root/Bela/projects/Thesis/SourceSeparation.cpp:95:45
	bl	cosf
                                        @ kill: %S0<def> %S0<kill> %D0<def>
	vadd.f64	d8, d8, d10
	.loc	11 95 28                @ /root/Bela/projects/Thesis/SourceSeparation.cpp:95:28
	add	r0, r7, r4
	.loc	11 95 43                @ /root/Bela/projects/Thesis/SourceSeparation.cpp:95:43
	vsub.f32	d16, d11, d0
	.loc	11 95 35                @ /root/Bela/projects/Thesis/SourceSeparation.cpp:95:35
	vmul.f32	d0, d16, d12
	.loc	11 95 28                @ /root/Bela/projects/Thesis/SourceSeparation.cpp:95:28
	vstr	s0, [r0]
	.loc	11 96 29 is_stmt 1      @ /root/Bela/projects/Thesis/SourceSeparation.cpp:96:29
	add	r0, r6, r4
.Ltmp112:
	.loc	11 93 2 discriminator 1 @ /root/Bela/projects/Thesis/SourceSeparation.cpp:93:2
	add	r4, r4, #4
.Ltmp113:
	.loc	11 96 29                @ /root/Bela/projects/Thesis/SourceSeparation.cpp:96:29
	vstr	s0, [r0]
.Ltmp114:
	.loc	11 93 2 discriminator 1 @ /root/Bela/projects/Thesis/SourceSeparation.cpp:93:2
	cmp	r4, #4096
	bne	.LBB2_28
.Ltmp115:
.LBB2_29:                               @ %.preheader
	adr	r0, .LCPI2_0
.Ltmp116:
	.loc	11 100 2 discriminator 1 @ /root/Bela/projects/Thesis/SourceSeparation.cpp:100:2
	vmov.i32	q10, #0x4
	vld1.64	{d16, d17}, [r0:128]
	mov	r1, #512
.Ltmp117:
	.loc	9 781 32                @ /usr/bin/../lib/gcc/arm-linux-gnueabihf/6.3.0/../../../../include/c++/6.3.0/bits/stl_vector.h:781:32
	ldr	r0, [r5, #72]
.Ltmp118:
	.loc	11 101 64               @ /root/Bela/projects/Thesis/SourceSeparation.cpp:101:64
	vldr	d18, .LCPI2_2
.LBB2_30:                               @ %vector.body27
                                        @ =>This Inner Loop Header: Depth=1
	.loc	11 101 62 is_stmt 0     @ /root/Bela/projects/Thesis/SourceSeparation.cpp:101:62
	vcvt.f32.s32	q0, q8
.Ltmp119:
	.loc	9 781 41 is_stmt 1      @ /usr/bin/../lib/gcc/arm-linux-gnueabihf/6.3.0/../../../../include/c++/6.3.0/bits/stl_vector.h:781:41
	vmov.32	r2, d16[0]
.Ltmp120:
	.loc	11 100 2 discriminator 1 @ /root/Bela/projects/Thesis/SourceSeparation.cpp:100:2
	subs	r1, r1, #4
	vadd.i32	q8, q8, q10
.Ltmp121:
	.loc	11 101 55               @ /root/Bela/projects/Thesis/SourceSeparation.cpp:101:55
	vcvt.f64.f32	d19, s3
	.loc	11 101 64 is_stmt 0     @ /root/Bela/projects/Thesis/SourceSeparation.cpp:101:64
	vmul.f64	d19, d19, d18
.Ltmp122:
	.loc	9 781 41 is_stmt 1      @ /usr/bin/../lib/gcc/arm-linux-gnueabihf/6.3.0/../../../../include/c++/6.3.0/bits/stl_vector.h:781:41
	add	r2, r0, r2, lsl #2
.Ltmp123:
	.loc	11 101 55               @ /root/Bela/projects/Thesis/SourceSeparation.cpp:101:55
	vcvt.f64.f32	d22, s2
	.loc	11 101 64 is_stmt 0     @ /root/Bela/projects/Thesis/SourceSeparation.cpp:101:64
	vmul.f64	d22, d22, d18
	.loc	11 101 55               @ /root/Bela/projects/Thesis/SourceSeparation.cpp:101:55
	vcvt.f64.f32	d23, s1
	vcvt.f64.f32	d24, s0
	.loc	11 101 24               @ /root/Bela/projects/Thesis/SourceSeparation.cpp:101:24
	vcvt.f32.f64	s3, d19
	.loc	11 101 64               @ /root/Bela/projects/Thesis/SourceSeparation.cpp:101:64
	vmul.f64	d23, d23, d18
	.loc	11 101 24               @ /root/Bela/projects/Thesis/SourceSeparation.cpp:101:24
	vcvt.f32.f64	s2, d22
	.loc	11 101 64               @ /root/Bela/projects/Thesis/SourceSeparation.cpp:101:64
	vmul.f64	d24, d24, d18
	.loc	11 101 24               @ /root/Bela/projects/Thesis/SourceSeparation.cpp:101:24
	vcvt.f32.f64	s1, d23
	vcvt.f32.f64	s0, d24
	.loc	11 101 22               @ /root/Bela/projects/Thesis/SourceSeparation.cpp:101:22
	vst1.32	{d0, d1}, [r2]
.Ltmp124:
	.loc	11 100 2 is_stmt 1 discriminator 1 @ /root/Bela/projects/Thesis/SourceSeparation.cpp:100:2
	bne	.LBB2_30
@ BB#31:                                @ %scalar.ph29
.Ltmp125:
	@DEBUG_VALUE: operator[]:__n <- 512
	.loc	11 101 22               @ /root/Bela/projects/Thesis/SourceSeparation.cpp:101:22
	movw	r1, #4059
.Ltmp126:
	.loc	11 105 13               @ /root/Bela/projects/Thesis/SourceSeparation.cpp:105:13
	movw	r2, :lower16:.L.str
.Ltmp127:
	.loc	11 101 22               @ /root/Bela/projects/Thesis/SourceSeparation.cpp:101:22
	movt	r1, #16457
.Ltmp128:
	.loc	11 105 13               @ /root/Bela/projects/Thesis/SourceSeparation.cpp:105:13
	movt	r2, :upper16:.L.str
.Ltmp129:
	.loc	11 101 22               @ /root/Bela/projects/Thesis/SourceSeparation.cpp:101:22
	str	r1, [r0, #2048]
.Ltmp130:
	@DEBUG_VALUE: n <- 513
	.loc	11 105 13               @ /root/Bela/projects/Thesis/SourceSeparation.cpp:105:13
	movw	r0, :lower16:_Z16process_fft_leftPv
	movt	r0, :upper16:_Z16process_fft_leftPv
	mov	r1, #80
	mov	r3, #0
	bl	Bela_createAuxiliaryTask
	.loc	11 106 14               @ /root/Bela/projects/Thesis/SourceSeparation.cpp:106:14
	movw	r2, :lower16:.L.str.15
	.loc	11 105 11               @ /root/Bela/projects/Thesis/SourceSeparation.cpp:105:11
	str	r0, [r8, #76]
	.loc	11 106 14               @ /root/Bela/projects/Thesis/SourceSeparation.cpp:106:14
	movw	r0, :lower16:_Z17process_fft_rightPv
	movt	r2, :upper16:.L.str.15
	movt	r0, :upper16:_Z17process_fft_rightPv
	mov	r1, #80
	mov	r3, #0
	bl	Bela_createAuxiliaryTask
	.loc	11 106 12 is_stmt 0     @ /root/Bela/projects/Thesis/SourceSeparation.cpp:106:12
	str	r0, [r8, #84]
	.loc	11 108 2 is_stmt 1      @ /root/Bela/projects/Thesis/SourceSeparation.cpp:108:2
	mov	r0, #1
	vpop	{d8, d9, d10, d11, d12, d13, d14, d15}
	pop	{r4, r5, r6, r7, r8, r10, r11, pc}
.Ltmp131:
	.p2align	4
@ BB#32:
.LCPI2_0:
	.long	0                       @ 0x0
	.long	1                       @ 0x1
	.long	2                       @ 0x2
	.long	3                       @ 0x3
.LCPI2_1:
	.long	1704825981              @ double 0.0061419211213876697
	.long	1064904773
.LCPI2_2:
	.long	1413754136              @ double 0.0061359231515425647
	.long	1064903163
.Lfunc_end2:
	.size	_Z13initialize_SSv, .Lfunc_end2-_Z13initialize_SSv
	.cfi_endproc
	.fnend

	.globl	_Z16process_fft_leftPv
	.p2align	2
	.type	_Z16process_fft_leftPv,%function
_Z16process_fft_leftPv:                 @ @_Z16process_fft_leftPv
.Lfunc_begin3:
	.loc	11 232 0                @ /root/Bela/projects/Thesis/SourceSeparation.cpp:232:0
	.fnstart
	.cfi_startproc
@ BB#0:
	.save	{r4, r5, r6, r10, r11, lr}
	push	{r4, r5, r6, r10, r11, lr}
.Ltmp132:
	.cfi_def_cfa_offset 24
.Ltmp133:
	.cfi_offset lr, -4
.Ltmp134:
	.cfi_offset r11, -8
.Ltmp135:
	.cfi_offset r10, -12
.Ltmp136:
	.cfi_offset r6, -16
.Ltmp137:
	.cfi_offset r5, -20
.Ltmp138:
	.cfi_offset r4, -24
	.setfp	r11, sp, #16
	add	r11, sp, #16
.Ltmp139:
	.cfi_def_cfa r11, 8
	.pad	#8
	sub	sp, sp, #8
	@DEBUG_VALUE: process_fft_left: <- %R0
.Ltmp140:
	.loc	11 233 48 prologue_end  @ /root/Bela/projects/Thesis/SourceSeparation.cpp:233:48
	movw	r6, :lower16:.L_MergedGlobals
	.loc	11 233 2 is_stmt 0      @ /root/Bela/projects/Thesis/SourceSeparation.cpp:233:2
	movw	r5, :lower16:.L_MergedGlobals.1
	.loc	11 233 48               @ /root/Bela/projects/Thesis/SourceSeparation.cpp:233:48
	movt	r6, :upper16:.L_MergedGlobals
	.loc	11 233 2                @ /root/Bela/projects/Thesis/SourceSeparation.cpp:233:2
	add	r4, r6, #92
	.loc	11 233 97               @ /root/Bela/projects/Thesis/SourceSeparation.cpp:233:97
	ldr	r0, [r6, #44]
.Ltmp141:
	.loc	11 233 2                @ /root/Bela/projects/Thesis/SourceSeparation.cpp:233:2
	movt	r5, :upper16:.L_MergedGlobals.1
	.loc	11 233 48               @ /root/Bela/projects/Thesis/SourceSeparation.cpp:233:48
	ldr	r2, [r6, #80]
	.loc	11 233 2                @ /root/Bela/projects/Thesis/SourceSeparation.cpp:233:2
	mov	r1, r4
	str	r0, [sp]
	movw	r0, :lower16:_Z16fftNearThresholdi
	movt	r0, :upper16:_Z16fftNearThresholdi
	mov	r3, r5
	bl	_Z11process_fftPFviERKSt6vectorIfSaIfEEjRS3_j
	.loc	11 234 69 is_stmt 1     @ /root/Bela/projects/Thesis/SourceSeparation.cpp:234:69
	ldr	r0, [r6]
	.loc	11 236 2                @ /root/Bela/projects/Thesis/SourceSeparation.cpp:236:2
	add	r3, r5, #12
	.loc	11 234 36               @ /root/Bela/projects/Thesis/SourceSeparation.cpp:234:36
	ldr	r1, [r6, #44]
	.loc	11 234 67 is_stmt 0     @ /root/Bela/projects/Thesis/SourceSeparation.cpp:234:67
	add	r0, r0, r1
	.loc	11 234 79               @ /root/Bela/projects/Thesis/SourceSeparation.cpp:234:79
	asr	r1, r0, #31
	add	r1, r0, r1, lsr #18
	bfc	r1, #0, #14
	sub	r0, r0, r1
	.loc	11 234 33               @ /root/Bela/projects/Thesis/SourceSeparation.cpp:234:33
	str	r0, [r6, #44]
	.loc	11 236 95 is_stmt 1     @ /root/Bela/projects/Thesis/SourceSeparation.cpp:236:95
	ldr	r0, [r6, #52]
	.loc	11 236 2 is_stmt 0      @ /root/Bela/projects/Thesis/SourceSeparation.cpp:236:2
	mov	r1, r4
	.loc	11 236 47               @ /root/Bela/projects/Thesis/SourceSeparation.cpp:236:47
	ldr	r2, [r6, #80]
	.loc	11 236 2                @ /root/Bela/projects/Thesis/SourceSeparation.cpp:236:2
	str	r0, [sp]
	movw	r0, :lower16:_Z15fftFarThresholdi
	movt	r0, :upper16:_Z15fftFarThresholdi
	bl	_Z11process_fftPFviERKSt6vectorIfSaIfEEjRS3_j
	.loc	11 237 69 is_stmt 1     @ /root/Bela/projects/Thesis/SourceSeparation.cpp:237:69
	ldr	r0, [r6]
	.loc	11 237 36 is_stmt 0     @ /root/Bela/projects/Thesis/SourceSeparation.cpp:237:36
	ldr	r1, [r6, #52]
	.loc	11 237 67               @ /root/Bela/projects/Thesis/SourceSeparation.cpp:237:67
	add	r0, r0, r1
	.loc	11 237 79               @ /root/Bela/projects/Thesis/SourceSeparation.cpp:237:79
	asr	r1, r0, #31
	add	r1, r0, r1, lsr #18
	bfc	r1, #0, #14
	sub	r0, r0, r1
	.loc	11 237 33               @ /root/Bela/projects/Thesis/SourceSeparation.cpp:237:33
	str	r0, [r6, #52]
	.loc	11 238 1 is_stmt 1      @ /root/Bela/projects/Thesis/SourceSeparation.cpp:238:1
	sub	sp, r11, #16
	pop	{r4, r5, r6, r10, r11, pc}
.Ltmp142:
.Lfunc_end3:
	.size	_Z16process_fft_leftPv, .Lfunc_end3-_Z16process_fft_leftPv
	.cfi_endproc
	.fnend

	.globl	_Z17process_fft_rightPv
	.p2align	2
	.type	_Z17process_fft_rightPv,%function
_Z17process_fft_rightPv:                @ @_Z17process_fft_rightPv
.Lfunc_begin4:
	.loc	11 241 0                @ /root/Bela/projects/Thesis/SourceSeparation.cpp:241:0
	.fnstart
	.cfi_startproc
@ BB#0:
	.save	{r4, r5, r6, r10, r11, lr}
	push	{r4, r5, r6, r10, r11, lr}
.Ltmp143:
	.cfi_def_cfa_offset 24
.Ltmp144:
	.cfi_offset lr, -4
.Ltmp145:
	.cfi_offset r11, -8
.Ltmp146:
	.cfi_offset r10, -12
.Ltmp147:
	.cfi_offset r6, -16
.Ltmp148:
	.cfi_offset r5, -20
.Ltmp149:
	.cfi_offset r4, -24
	.setfp	r11, sp, #16
	add	r11, sp, #16
.Ltmp150:
	.cfi_def_cfa r11, 8
	.pad	#8
	sub	sp, sp, #8
	@DEBUG_VALUE: process_fft_right: <- %R0
.Ltmp151:
	.loc	11 242 48 prologue_end  @ /root/Bela/projects/Thesis/SourceSeparation.cpp:242:48
	movw	r5, :lower16:.L_MergedGlobals
	.loc	11 242 2 is_stmt 0      @ /root/Bela/projects/Thesis/SourceSeparation.cpp:242:2
	movw	r6, :lower16:.L_MergedGlobals.1
	.loc	11 242 48               @ /root/Bela/projects/Thesis/SourceSeparation.cpp:242:48
	movt	r5, :upper16:.L_MergedGlobals
	.loc	11 242 2                @ /root/Bela/projects/Thesis/SourceSeparation.cpp:242:2
	add	r4, r5, #104
	.loc	11 242 97               @ /root/Bela/projects/Thesis/SourceSeparation.cpp:242:97
	ldr	r0, [r5, #60]
.Ltmp152:
	.loc	11 242 2                @ /root/Bela/projects/Thesis/SourceSeparation.cpp:242:2
	movt	r6, :upper16:.L_MergedGlobals.1
	.loc	11 242 48               @ /root/Bela/projects/Thesis/SourceSeparation.cpp:242:48
	ldr	r2, [r5, #88]
	.loc	11 242 2                @ /root/Bela/projects/Thesis/SourceSeparation.cpp:242:2
	add	r3, r6, #24
	str	r0, [sp]
	movw	r0, :lower16:_Z16fftNearThresholdi
	movt	r0, :upper16:_Z16fftNearThresholdi
	mov	r1, r4
	bl	_Z11process_fftPFviERKSt6vectorIfSaIfEEjRS3_j
	.loc	11 243 69 is_stmt 1     @ /root/Bela/projects/Thesis/SourceSeparation.cpp:243:69
	ldr	r0, [r5]
	.loc	11 245 2                @ /root/Bela/projects/Thesis/SourceSeparation.cpp:245:2
	add	r3, r6, #36
	.loc	11 243 36               @ /root/Bela/projects/Thesis/SourceSeparation.cpp:243:36
	ldr	r1, [r5, #60]
	.loc	11 243 67 is_stmt 0     @ /root/Bela/projects/Thesis/SourceSeparation.cpp:243:67
	add	r0, r0, r1
	.loc	11 243 79               @ /root/Bela/projects/Thesis/SourceSeparation.cpp:243:79
	asr	r1, r0, #31
	add	r1, r0, r1, lsr #18
	bfc	r1, #0, #14
	sub	r0, r0, r1
	.loc	11 243 33               @ /root/Bela/projects/Thesis/SourceSeparation.cpp:243:33
	str	r0, [r5, #60]
	.loc	11 245 95 is_stmt 1     @ /root/Bela/projects/Thesis/SourceSeparation.cpp:245:95
	ldr	r0, [r5, #68]
	.loc	11 245 2 is_stmt 0      @ /root/Bela/projects/Thesis/SourceSeparation.cpp:245:2
	mov	r1, r4
	.loc	11 245 47               @ /root/Bela/projects/Thesis/SourceSeparation.cpp:245:47
	ldr	r2, [r5, #88]
	.loc	11 245 2                @ /root/Bela/projects/Thesis/SourceSeparation.cpp:245:2
	str	r0, [sp]
	movw	r0, :lower16:_Z15fftFarThresholdi
	movt	r0, :upper16:_Z15fftFarThresholdi
	bl	_Z11process_fftPFviERKSt6vectorIfSaIfEEjRS3_j
	.loc	11 246 69 is_stmt 1     @ /root/Bela/projects/Thesis/SourceSeparation.cpp:246:69
	ldr	r0, [r5]
	.loc	11 246 36 is_stmt 0     @ /root/Bela/projects/Thesis/SourceSeparation.cpp:246:36
	ldr	r1, [r5, #68]
	.loc	11 246 67               @ /root/Bela/projects/Thesis/SourceSeparation.cpp:246:67
	add	r0, r0, r1
	.loc	11 246 79               @ /root/Bela/projects/Thesis/SourceSeparation.cpp:246:79
	asr	r1, r0, #31
	add	r1, r0, r1, lsr #18
	bfc	r1, #0, #14
	sub	r0, r0, r1
	.loc	11 246 33               @ /root/Bela/projects/Thesis/SourceSeparation.cpp:246:33
	str	r0, [r5, #68]
	.loc	11 247 1 is_stmt 1      @ /root/Bela/projects/Thesis/SourceSeparation.cpp:247:1
	sub	sp, r11, #16
	pop	{r4, r5, r6, r10, r11, pc}
.Ltmp153:
.Lfunc_end4:
	.size	_Z17process_fft_rightPv, .Lfunc_end4-_Z17process_fft_rightPv
	.cfi_endproc
	.fnend

	.globl	_Z9wrapPhasef
	.p2align	3
	.type	_Z9wrapPhasef,%function
_Z9wrapPhasef:                          @ @_Z9wrapPhasef
.Lfunc_begin5:
	.loc	11 113 0                @ /root/Bela/projects/Thesis/SourceSeparation.cpp:113:0
	.fnstart
	.cfi_startproc
@ BB#0:
	.save	{r11, lr}
	push	{r11, lr}
.Ltmp154:
	.cfi_def_cfa_offset 8
.Ltmp155:
	.cfi_offset lr, -4
.Ltmp156:
	.cfi_offset r11, -8
	.setfp	r11, sp
	mov	r11, sp
.Ltmp157:
	.cfi_def_cfa_register r11
	@DEBUG_VALUE: wrapPhase:phaseIn <- %S0
.Ltmp158:
	.loc	11 115 22 prologue_end  @ /root/Bela/projects/Thesis/SourceSeparation.cpp:115:22
	vcvt.f64.f32	d16, s0
.Ltmp159:
	.loc	11 114 9                @ /root/Bela/projects/Thesis/SourceSeparation.cpp:114:9
	vcmpe.f32	s0, #0
	vmrs	APSR_nzcv, fpscr
	bge	.LBB5_2
.Ltmp160:
@ BB#1:
	@DEBUG_VALUE: wrapPhase:phaseIn <- %S0
	.loc	11 117 30               @ /root/Bela/projects/Thesis/SourceSeparation.cpp:117:30
	vldr	d17, .LCPI5_2
	.loc	11 117 16 is_stmt 0     @ /root/Bela/projects/Thesis/SourceSeparation.cpp:117:16
	vldr	s1, .LCPI5_3
	.loc	11 117 30               @ /root/Bela/projects/Thesis/SourceSeparation.cpp:117:30
	vadd.f64	d16, d16, d17
	.loc	11 117 22               @ /root/Bela/projects/Thesis/SourceSeparation.cpp:117:22
	vcvt.f32.f64	s0, d16
.Ltmp161:
	.loc	11 117 16               @ /root/Bela/projects/Thesis/SourceSeparation.cpp:117:16
	bl	__fmodf_finite
	vcvt.f64.f32	d16, s0
	.loc	11 117 87               @ /root/Bela/projects/Thesis/SourceSeparation.cpp:117:87
	vldr	d17, .LCPI5_0
	b	.LBB5_3
.LBB5_2:
.Ltmp162:
	@DEBUG_VALUE: wrapPhase:phaseIn <- %S0
	.loc	11 115 30 is_stmt 1     @ /root/Bela/projects/Thesis/SourceSeparation.cpp:115:30
	vldr	d17, .LCPI5_0
	.loc	11 115 16 is_stmt 0     @ /root/Bela/projects/Thesis/SourceSeparation.cpp:115:16
	vldr	s1, .LCPI5_1
	.loc	11 115 30               @ /root/Bela/projects/Thesis/SourceSeparation.cpp:115:30
	vadd.f64	d16, d16, d17
	.loc	11 115 22               @ /root/Bela/projects/Thesis/SourceSeparation.cpp:115:22
	vcvt.f32.f64	s0, d16
.Ltmp163:
	.loc	11 115 16               @ /root/Bela/projects/Thesis/SourceSeparation.cpp:115:16
	bl	__fmodf_finite
	vcvt.f64.f32	d16, s0
	.loc	11 115 86               @ /root/Bela/projects/Thesis/SourceSeparation.cpp:115:86
	vldr	d17, .LCPI5_2
.LBB5_3:
	.loc	11 117 87 is_stmt 1     @ /root/Bela/projects/Thesis/SourceSeparation.cpp:117:87
	vadd.f64	d16, d16, d17
	.loc	11 115 16               @ /root/Bela/projects/Thesis/SourceSeparation.cpp:115:16
	vcvt.f32.f64	s0, d16
.Ltmp164:
	.loc	11 118 1                @ /root/Bela/projects/Thesis/SourceSeparation.cpp:118:1
	pop	{r11, pc}
.Ltmp165:
	.p2align	3
@ BB#4:
.LCPI5_0:
	.long	1413754136              @ double 3.1415926535897931
	.long	1074340347
.LCPI5_2:
	.long	1413754136              @ double -3.1415926535897931
	.long	3221823995
.LCPI5_1:
	.long	1086918619              @ float 6.28318548
.LCPI5_3:
	.long	3234402267              @ float -6.28318548
.Lfunc_end5:
	.size	_Z9wrapPhasef, .Lfunc_end5-_Z9wrapPhasef
	.cfi_endproc
	.fnend

	.globl	_Z16fftNearThresholdi
	.p2align	2
	.type	_Z16fftNearThresholdi,%function
_Z16fftNearThresholdi:                  @ @_Z16fftNearThresholdi
.Lfunc_begin6:
	.loc	11 123 0                @ /root/Bela/projects/Thesis/SourceSeparation.cpp:123:0
	.fnstart
	.cfi_startproc
@ BB#0:
	@DEBUG_VALUE: fftNearThreshold:n <- %R0
	.loc	11 124 10 prologue_end  @ /root/Bela/projects/Thesis/SourceSeparation.cpp:124:10
	movw	r1, :lower16:.L_MergedGlobals
	movt	r1, :upper16:.L_MergedGlobals
	.loc	11 124 22 is_stmt 0     @ /root/Bela/projects/Thesis/SourceSeparation.cpp:124:22
	vldr	s0, [r1, #12]
	.loc	11 124 10               @ /root/Bela/projects/Thesis/SourceSeparation.cpp:124:10
	vldr	s2, [r1, #24]
.Ltmp166:
	.loc	11 124 10               @ /root/Bela/projects/Thesis/SourceSeparation.cpp:124:10
	vcmpe.f32	s2, s0
	vmrs	APSR_nzcv, fpscr
	bge	.LBB6_2
.Ltmp167:
@ BB#1:
	@DEBUG_VALUE: fftNearThreshold:n <- %R0
	.loc	2 38 38 is_stmt 1       @ ./libraries/Fft/Fft.h:38:38
	movw	r2, :lower16:.L_MergedGlobals.1
.Ltmp168:
	.loc	11 128 22               @ /root/Bela/projects/Thesis/SourceSeparation.cpp:128:22
	rsb	r0, r0, #1024
.Ltmp169:
	@DEBUG_VALUE: fdr:n <- %R0
	@DEBUG_VALUE: fdi:n <- %R0
	.loc	2 38 38                 @ ./libraries/Fft/Fft.h:38:38
	movt	r2, :upper16:.L_MergedGlobals.1
.Ltmp170:
	.loc	11 128 29               @ /root/Bela/projects/Thesis/SourceSeparation.cpp:128:29
	ldr	r3, [r1, #16]
.Ltmp171:
	.loc	2 38 38                 @ ./libraries/Fft/Fft.h:38:38
	ldr	r2, [r2, #88]
.Ltmp172:
	.loc	11 128 27               @ /root/Bela/projects/Thesis/SourceSeparation.cpp:128:27
	str	r3, [r2, r0, lsl #3]!
	.loc	11 129 29               @ /root/Bela/projects/Thesis/SourceSeparation.cpp:129:29
	ldr	r0, [r1, #20]
.Ltmp173:
	.loc	11 129 27 is_stmt 0     @ /root/Bela/projects/Thesis/SourceSeparation.cpp:129:27
	str	r0, [r2, #4]
.Ltmp174:
	.loc	11 137 1 is_stmt 1      @ /root/Bela/projects/Thesis/SourceSeparation.cpp:137:1
	bx	lr
.LBB6_2:
.Ltmp175:
	@DEBUG_VALUE: fftNearThreshold:n <- %R0
	@DEBUG_VALUE: fdr:n <- %R0
	.loc	2 38 38                 @ ./libraries/Fft/Fft.h:38:38
	movw	r1, :lower16:.L_MergedGlobals.1
	mov	r2, #0
	movt	r1, :upper16:.L_MergedGlobals.1
	ldr	r1, [r1, #88]
.Ltmp176:
	.loc	11 133 15               @ /root/Bela/projects/Thesis/SourceSeparation.cpp:133:15
	str	r2, [r1, r0, lsl #3]!
.Ltmp177:
	@DEBUG_VALUE: fdi:n <- %R0
	.loc	11 134 15               @ /root/Bela/projects/Thesis/SourceSeparation.cpp:134:15
	str	r2, [r1, #4]
.Ltmp178:
	.loc	11 137 1                @ /root/Bela/projects/Thesis/SourceSeparation.cpp:137:1
	bx	lr
.Ltmp179:
.Lfunc_end6:
	.size	_Z16fftNearThresholdi, .Lfunc_end6-_Z16fftNearThresholdi
	.cfi_endproc
	.fnend

	.globl	_Z15fftFarThresholdi
	.p2align	2
	.type	_Z15fftFarThresholdi,%function
_Z15fftFarThresholdi:                   @ @_Z15fftFarThresholdi
.Lfunc_begin7:
	.loc	11 140 0                @ /root/Bela/projects/Thesis/SourceSeparation.cpp:140:0
	.fnstart
	.cfi_startproc
@ BB#0:
	@DEBUG_VALUE: fftFarThreshold:n <- %R0
	.loc	11 142 9 prologue_end   @ /root/Bela/projects/Thesis/SourceSeparation.cpp:142:9
	movw	r1, :lower16:.L_MergedGlobals
	movt	r1, :upper16:.L_MergedGlobals
	.loc	11 142 21 is_stmt 0     @ /root/Bela/projects/Thesis/SourceSeparation.cpp:142:21
	vldr	s0, [r1, #8]
	.loc	11 142 9                @ /root/Bela/projects/Thesis/SourceSeparation.cpp:142:9
	vldr	s2, [r1, #24]
.Ltmp180:
	.loc	11 142 9                @ /root/Bela/projects/Thesis/SourceSeparation.cpp:142:9
	vcmpe.f32	s2, s0
	vmrs	APSR_nzcv, fpscr
	ble	.LBB7_2
.Ltmp181:
@ BB#1:
	@DEBUG_VALUE: fftFarThreshold:n <- %R0
	.loc	2 38 38 is_stmt 1       @ ./libraries/Fft/Fft.h:38:38
	movw	r2, :lower16:.L_MergedGlobals.1
.Ltmp182:
	.loc	11 147 23               @ /root/Bela/projects/Thesis/SourceSeparation.cpp:147:23
	rsb	r0, r0, #1024
.Ltmp183:
	@DEBUG_VALUE: fdr:n <- %R0
	@DEBUG_VALUE: fdi:n <- %R0
	.loc	2 38 38                 @ ./libraries/Fft/Fft.h:38:38
	movt	r2, :upper16:.L_MergedGlobals.1
.Ltmp184:
	.loc	11 147 30               @ /root/Bela/projects/Thesis/SourceSeparation.cpp:147:30
	ldr	r3, [r1, #16]
.Ltmp185:
	.loc	2 38 38                 @ ./libraries/Fft/Fft.h:38:38
	ldr	r2, [r2, #88]
.Ltmp186:
	.loc	11 147 28               @ /root/Bela/projects/Thesis/SourceSeparation.cpp:147:28
	str	r3, [r2, r0, lsl #3]!
	.loc	11 148 30               @ /root/Bela/projects/Thesis/SourceSeparation.cpp:148:30
	ldr	r0, [r1, #20]
.Ltmp187:
	.loc	11 148 28 is_stmt 0     @ /root/Bela/projects/Thesis/SourceSeparation.cpp:148:28
	str	r0, [r2, #4]
.Ltmp188:
	.loc	11 155 1 is_stmt 1      @ /root/Bela/projects/Thesis/SourceSeparation.cpp:155:1
	bx	lr
.LBB7_2:
.Ltmp189:
	@DEBUG_VALUE: fftFarThreshold:n <- %R0
	@DEBUG_VALUE: fdr:n <- %R0
	.loc	2 38 38                 @ ./libraries/Fft/Fft.h:38:38
	movw	r1, :lower16:.L_MergedGlobals.1
	mov	r2, #0
	movt	r1, :upper16:.L_MergedGlobals.1
	ldr	r1, [r1, #88]
.Ltmp190:
	.loc	11 152 16               @ /root/Bela/projects/Thesis/SourceSeparation.cpp:152:16
	str	r2, [r1, r0, lsl #3]!
.Ltmp191:
	@DEBUG_VALUE: fdi:n <- %R0
	.loc	11 153 16               @ /root/Bela/projects/Thesis/SourceSeparation.cpp:153:16
	str	r2, [r1, #4]
.Ltmp192:
	.loc	11 155 1                @ /root/Bela/projects/Thesis/SourceSeparation.cpp:155:1
	bx	lr
.Ltmp193:
.Lfunc_end7:
	.size	_Z15fftFarThresholdi, .Lfunc_end7-_Z15fftFarThresholdi
	.cfi_endproc
	.fnend

	.globl	_Z11process_fftPFviERKSt6vectorIfSaIfEEjRS3_j
	.p2align	2
	.type	_Z11process_fftPFviERKSt6vectorIfSaIfEEjRS3_j,%function
_Z11process_fftPFviERKSt6vectorIfSaIfEEjRS3_j: @ @_Z11process_fftPFviERKSt6vectorIfSaIfEEjRS3_j
.Lfunc_begin8:
	.loc	11 159 0                @ /root/Bela/projects/Thesis/SourceSeparation.cpp:159:0
	.fnstart
	.cfi_startproc
@ BB#0:
	.save	{r4, r5, r6, r7, r8, r9, r10, r11, lr}
	push	{r4, r5, r6, r7, r8, r9, r10, r11, lr}
.Ltmp200:
	.cfi_def_cfa_offset 36
.Ltmp201:
	.cfi_offset lr, -4
.Ltmp202:
	.cfi_offset r11, -8
.Ltmp203:
	.cfi_offset r10, -12
.Ltmp204:
	.cfi_offset r9, -16
.Ltmp205:
	.cfi_offset r8, -20
.Ltmp206:
	.cfi_offset r7, -24
.Ltmp207:
	.cfi_offset r6, -28
.Ltmp208:
	.cfi_offset r5, -32
.Ltmp209:
	.cfi_offset r4, -36
	.setfp	r11, sp, #28
	add	r11, sp, #28
.Ltmp210:
	.cfi_def_cfa r11, 8
	.pad	#4
	sub	sp, sp, #4
	.vsave	{d8}
	vpush	{d8}
.Ltmp211:
	.cfi_offset d8, -48
	.pad	#8
	sub	sp, sp, #8
	@DEBUG_VALUE: process_fft:processRange <- %R0
	@DEBUG_VALUE: process_fft:inBuffer <- %R1
	@DEBUG_VALUE: process_fft:inPointer <- %R2
	@DEBUG_VALUE: process_fft:outBuffer <- %R3
.Ltmp212:
	.loc	11 160 2 prologue_end   @ /root/Bela/projects/Thesis/SourceSeparation.cpp:160:2
	movw	r7, :lower16:.L_MergedGlobals.2
	str	r3, [sp, #4]            @ 4-byte Spill
.Ltmp213:
	@DEBUG_VALUE: process_fft:outBuffer <- [%SP+4]
	movt	r7, :upper16:.L_MergedGlobals.2
	mov	r8, r0
.Ltmp214:
	@DEBUG_VALUE: process_fft:processRange <- %R8
	ldrb	r0, [r7]
	mov	r10, r2
.Ltmp215:
	@DEBUG_VALUE: process_fft:inPointer <- %R10
	mov	r9, r1
.Ltmp216:
	@DEBUG_VALUE: process_fft:inBuffer <- %R9
	dmb	ish
	tst	r0, #1
	bne	.LBB8_4
.Ltmp217:
@ BB#1:
	@DEBUG_VALUE: process_fft:inBuffer <- %R9
	@DEBUG_VALUE: process_fft:inPointer <- %R10
	@DEBUG_VALUE: process_fft:processRange <- %R8
	@DEBUG_VALUE: process_fft:outBuffer <- [%SP+4]
	.loc	11 160 2 is_stmt 0 discriminator 1 @ /root/Bela/projects/Thesis/SourceSeparation.cpp:160:2
	movw	r4, :lower16:.L_MergedGlobals.2
	movt	r4, :upper16:.L_MergedGlobals.2
	mov	r0, r4
	bl	__cxa_guard_acquire
.Ltmp218:
	cmp	r0, #0
	beq	.LBB8_4
.Ltmp219:
@ BB#2:
	@DEBUG_VALUE: process_fft:inBuffer <- %R9
	@DEBUG_VALUE: process_fft:inPointer <- %R10
	@DEBUG_VALUE: process_fft:processRange <- %R8
	@DEBUG_VALUE: vector:__n <- 512
	@DEBUG_VALUE: _Vector_base:__n <- 512
	mov	r0, #0
.Ltmp220:
	@DEBUG_VALUE: allocate:__n <- 512
	@DEBUG_VALUE: allocate:__n <- 512
	@DEBUG_VALUE: _M_allocate:__n <- 512
	@DEBUG_VALUE: _M_create_storage:__n <- 512
	.loc	9 91 25 is_stmt 1       @ /usr/bin/../lib/gcc/arm-linux-gnueabihf/6.3.0/../../../../include/c++/6.3.0/bits/stl_vector.h:91:25
	str	r0, [r4, #8]
	.loc	9 91 37 is_stmt 0       @ /usr/bin/../lib/gcc/arm-linux-gnueabihf/6.3.0/../../../../include/c++/6.3.0/bits/stl_vector.h:91:37
	str	r0, [r4, #12]
	.loc	9 91 50                 @ /usr/bin/../lib/gcc/arm-linux-gnueabihf/6.3.0/../../../../include/c++/6.3.0/bits/stl_vector.h:91:50
	str	r0, [r4, #16]
.Ltmp221:
	.loc	5 104 27 is_stmt 1      @ /usr/bin/../lib/gcc/arm-linux-gnueabihf/6.3.0/../../../../include/c++/6.3.0/ext/new_allocator.h:104:27
.Ltmp194:
	mov	r0, #2048
	bl	_Znwj
.Ltmp195:
.Ltmp222:
@ BB#3:
	@DEBUG_VALUE: process_fft:inBuffer <- %R9
	@DEBUG_VALUE: process_fft:inPointer <- %R10
	@DEBUG_VALUE: process_fft:processRange <- %R8
	.loc	9 185 25                @ /usr/bin/../lib/gcc/arm-linux-gnueabihf/6.3.0/../../../../include/c++/6.3.0/bits/stl_vector.h:185:25
	mov	r6, r4
.Ltmp223:
	.file	41 "/usr/bin/../lib/gcc/arm-linux-gnueabihf/6.3.0/../../../../include/c++/6.3.0/bits" "stl_algobase.h"
	.loc	41 754 11               @ /usr/bin/../lib/gcc/arm-linux-gnueabihf/6.3.0/../../../../include/c++/6.3.0/bits/stl_algobase.h:754:11
	mov	r1, #0
	mov	r2, #2048
.Ltmp224:
	.loc	9 185 25                @ /usr/bin/../lib/gcc/arm-linux-gnueabihf/6.3.0/../../../../include/c++/6.3.0/bits/stl_vector.h:185:25
	str	r0, [r6, #8]!
.Ltmp225:
	@DEBUG_VALUE: _M_default_initialize:this <- %R6
	@DEBUG_VALUE: vector:this <- %R6
	.loc	9 187 59                @ /usr/bin/../lib/gcc/arm-linux-gnueabihf/6.3.0/../../../../include/c++/6.3.0/bits/stl_vector.h:187:59
	add	r5, r0, #2048
	.loc	9 187 34 is_stmt 0      @ /usr/bin/../lib/gcc/arm-linux-gnueabihf/6.3.0/../../../../include/c++/6.3.0/bits/stl_vector.h:187:34
	str	r5, [r4, #16]
.Ltmp226:
	@DEBUG_VALUE: __niter <- 512
	@DEBUG_VALUE: __fill_n_a<float *, unsigned int, float>:__n <- 512
	@DEBUG_VALUE: fill_n<float *, unsigned int, float>:__n <- 512
	@DEBUG_VALUE: __uninit_default_n<float *, unsigned int>:__n <- 512
	@DEBUG_VALUE: __uninitialized_default_n<float *, unsigned int>:__assignable <- 1
	@DEBUG_VALUE: __uninitialized_default_n<float *, unsigned int>:__n <- 512
	@DEBUG_VALUE: __uninitialized_default_n_a<float *, unsigned int, float>:__n <- 512
	@DEBUG_VALUE: _M_default_initialize:__n <- 512
	.loc	41 754 11 is_stmt 1     @ /usr/bin/../lib/gcc/arm-linux-gnueabihf/6.3.0/../../../../include/c++/6.3.0/bits/stl_algobase.h:754:11
	bl	memset
.Ltmp227:
	.loc	11 160 2 discriminator 8 @ /root/Bela/projects/Thesis/SourceSeparation.cpp:160:2
	movw	r0, :lower16:_ZNSt6vectorIfSaIfEED2Ev
	movw	r2, :lower16:__dso_handle
	movt	r0, :upper16:_ZNSt6vectorIfSaIfEED2Ev
	movt	r2, :upper16:__dso_handle
	mov	r1, r6
.Ltmp228:
	.loc	9 1308 26               @ /usr/bin/../lib/gcc/arm-linux-gnueabihf/6.3.0/../../../../include/c++/6.3.0/bits/stl_vector.h:1308:26
	str	r5, [r4, #12]
.Ltmp229:
	.loc	11 160 2 discriminator 8 @ /root/Bela/projects/Thesis/SourceSeparation.cpp:160:2
	bl	__cxa_atexit
	.loc	11 160 2 is_stmt 0 discriminator 9 @ /root/Bela/projects/Thesis/SourceSeparation.cpp:160:2
	mov	r0, r4
	bl	__cxa_guard_release
.Ltmp230:
.LBB8_4:
	@DEBUG_VALUE: process_fft:inBuffer <- %R9
	@DEBUG_VALUE: process_fft:inPointer <- %R10
	@DEBUG_VALUE: process_fft:processRange <- %R8
	.loc	11 161 2 is_stmt 1      @ /root/Bela/projects/Thesis/SourceSeparation.cpp:161:2
	ldrb	r0, [r7, #4]
	dmb	ish
	tst	r0, #1
	bne	.LBB8_8
.Ltmp231:
@ BB#5:
	@DEBUG_VALUE: process_fft:inBuffer <- %R9
	@DEBUG_VALUE: process_fft:inPointer <- %R10
	@DEBUG_VALUE: process_fft:processRange <- %R8
	.loc	11 161 2 is_stmt 0 discriminator 1 @ /root/Bela/projects/Thesis/SourceSeparation.cpp:161:2
	add	r4, r7, #4
	mov	r0, r4
	bl	__cxa_guard_acquire
	cmp	r0, #0
	beq	.LBB8_8
.Ltmp232:
@ BB#6:
	@DEBUG_VALUE: process_fft:inBuffer <- %R9
	@DEBUG_VALUE: process_fft:inPointer <- %R10
	@DEBUG_VALUE: process_fft:processRange <- %R8
	@DEBUG_VALUE: vector:__n <- 1024
	@DEBUG_VALUE: _Vector_base:__n <- 1024
	mov	r0, #0
.Ltmp233:
	@DEBUG_VALUE: allocate:__n <- 1024
	@DEBUG_VALUE: allocate:__n <- 1024
	@DEBUG_VALUE: _M_allocate:__n <- 1024
	@DEBUG_VALUE: _M_create_storage:__n <- 1024
	.loc	9 91 25 is_stmt 1       @ /usr/bin/../lib/gcc/arm-linux-gnueabihf/6.3.0/../../../../include/c++/6.3.0/bits/stl_vector.h:91:25
	str	r0, [r7, #20]
	.loc	9 91 37 is_stmt 0       @ /usr/bin/../lib/gcc/arm-linux-gnueabihf/6.3.0/../../../../include/c++/6.3.0/bits/stl_vector.h:91:37
	str	r0, [r7, #24]
	.loc	9 91 50                 @ /usr/bin/../lib/gcc/arm-linux-gnueabihf/6.3.0/../../../../include/c++/6.3.0/bits/stl_vector.h:91:50
	str	r0, [r7, #28]
.Ltmp234:
	.loc	5 104 27 is_stmt 1      @ /usr/bin/../lib/gcc/arm-linux-gnueabihf/6.3.0/../../../../include/c++/6.3.0/ext/new_allocator.h:104:27
.Ltmp197:
	mov	r0, #4096
	bl	_Znwj
.Ltmp198:
.Ltmp235:
@ BB#7:
	@DEBUG_VALUE: process_fft:inBuffer <- %R9
	@DEBUG_VALUE: process_fft:inPointer <- %R10
	@DEBUG_VALUE: process_fft:processRange <- %R8
	.loc	9 185 25                @ /usr/bin/../lib/gcc/arm-linux-gnueabihf/6.3.0/../../../../include/c++/6.3.0/bits/stl_vector.h:185:25
	mov	r4, r7
.Ltmp236:
	.loc	41 754 11               @ /usr/bin/../lib/gcc/arm-linux-gnueabihf/6.3.0/../../../../include/c++/6.3.0/bits/stl_algobase.h:754:11
	mov	r1, #0
.Ltmp237:
	.loc	9 185 25                @ /usr/bin/../lib/gcc/arm-linux-gnueabihf/6.3.0/../../../../include/c++/6.3.0/bits/stl_vector.h:185:25
	str	r0, [r4, #20]!
.Ltmp238:
	@DEBUG_VALUE: _M_default_initialize:this <- %R4
	@DEBUG_VALUE: vector:this <- %R4
	.loc	41 754 11               @ /usr/bin/../lib/gcc/arm-linux-gnueabihf/6.3.0/../../../../include/c++/6.3.0/bits/stl_algobase.h:754:11
	mov	r2, #4096
.Ltmp239:
	.loc	9 187 59                @ /usr/bin/../lib/gcc/arm-linux-gnueabihf/6.3.0/../../../../include/c++/6.3.0/bits/stl_vector.h:187:59
	add	r5, r0, #4096
	.loc	9 187 34 is_stmt 0      @ /usr/bin/../lib/gcc/arm-linux-gnueabihf/6.3.0/../../../../include/c++/6.3.0/bits/stl_vector.h:187:34
	str	r5, [r4, #8]
.Ltmp240:
	@DEBUG_VALUE: __niter <- 1024
	@DEBUG_VALUE: __fill_n_a<float *, unsigned int, float>:__n <- 1024
	@DEBUG_VALUE: fill_n<float *, unsigned int, float>:__n <- 1024
	@DEBUG_VALUE: __uninit_default_n<float *, unsigned int>:__n <- 1024
	@DEBUG_VALUE: __uninitialized_default_n<float *, unsigned int>:__assignable <- 1
	@DEBUG_VALUE: __uninitialized_default_n<float *, unsigned int>:__n <- 1024
	@DEBUG_VALUE: __uninitialized_default_n_a<float *, unsigned int, float>:__n <- 1024
	@DEBUG_VALUE: _M_default_initialize:__n <- 1024
	.loc	41 754 11 is_stmt 1     @ /usr/bin/../lib/gcc/arm-linux-gnueabihf/6.3.0/../../../../include/c++/6.3.0/bits/stl_algobase.h:754:11
	bl	memset
.Ltmp241:
	.loc	11 161 2 discriminator 7 @ /root/Bela/projects/Thesis/SourceSeparation.cpp:161:2
	movw	r0, :lower16:_ZNSt6vectorIfSaIfEED2Ev
	movw	r2, :lower16:__dso_handle
	movt	r0, :upper16:_ZNSt6vectorIfSaIfEED2Ev
	movt	r2, :upper16:__dso_handle
	mov	r1, r4
.Ltmp242:
	.loc	9 1308 26               @ /usr/bin/../lib/gcc/arm-linux-gnueabihf/6.3.0/../../../../include/c++/6.3.0/bits/stl_vector.h:1308:26
	str	r5, [r4, #4]
.Ltmp243:
	.loc	11 161 2 discriminator 7 @ /root/Bela/projects/Thesis/SourceSeparation.cpp:161:2
	bl	__cxa_atexit
	.loc	11 161 2 is_stmt 0 discriminator 8 @ /root/Bela/projects/Thesis/SourceSeparation.cpp:161:2
	sub	r0, r4, #16
	bl	__cxa_guard_release
.Ltmp244:
.LBB8_8:                                @ %.preheader
	@DEBUG_VALUE: process_fft:inBuffer <- %R9
	@DEBUG_VALUE: process_fft:inPointer <- %R10
	@DEBUG_VALUE: process_fft:processRange <- %R8
	@DEBUG_VALUE: process_fft:outPointer <- undef
	.loc	11 164 2 is_stmt 1 discriminator 1 @ /root/Bela/projects/Thesis/SourceSeparation.cpp:164:2
	add	r6, r10, #15360
.Ltmp245:
	.loc	9 781 32                @ /usr/bin/../lib/gcc/arm-linux-gnueabihf/6.3.0/../../../../include/c++/6.3.0/bits/stl_vector.h:781:32
	movw	r10, :lower16:.L_MergedGlobals.1
.Ltmp246:
	movt	r10, :upper16:.L_MergedGlobals.1
.Ltmp247:
	.loc	9 796 32                @ /usr/bin/../lib/gcc/arm-linux-gnueabihf/6.3.0/../../../../include/c++/6.3.0/bits/stl_vector.h:796:32
	ldr	r0, [r9]
.Ltmp248:
	.loc	9 781 32                @ /usr/bin/../lib/gcc/arm-linux-gnueabihf/6.3.0/../../../../include/c++/6.3.0/bits/stl_vector.h:781:32
	ldr	r1, [r7, #20]
	mov	r3, #0
.Ltmp249:
	.loc	9 781 32 is_stmt 0      @ /usr/bin/../lib/gcc/arm-linux-gnueabihf/6.3.0/../../../../include/c++/6.3.0/bits/stl_vector.h:781:32
	ldr	r2, [r10, #48]
.Ltmp250:
.LBB8_9:                                @ =>This Inner Loop Header: Depth=1
	.loc	11 164 2 is_stmt 1 discriminator 1 @ /root/Bela/projects/Thesis/SourceSeparation.cpp:164:2
	add	r4, r6, #1
.Ltmp251:
	.loc	11 166 70               @ /root/Bela/projects/Thesis/SourceSeparation.cpp:166:70
	bfc	r6, #14, #18
.Ltmp252:
	@DEBUG_VALUE: operator[]:__n <- %R6
	@DEBUG_VALUE: circularBufferIndex <- %R6
	.loc	11 167 56               @ /root/Bela/projects/Thesis/SourceSeparation.cpp:167:56
	add	r5, r2, r3
.Ltmp253:
	.loc	9 796 41                @ /usr/bin/../lib/gcc/arm-linux-gnueabihf/6.3.0/../../../../include/c++/6.3.0/bits/stl_vector.h:796:41
	add	r6, r0, r6, lsl #2
.Ltmp254:
	.loc	11 167 56               @ /root/Bela/projects/Thesis/SourceSeparation.cpp:167:56
	vldr	s0, [r5]
	.loc	11 167 24 is_stmt 0     @ /root/Bela/projects/Thesis/SourceSeparation.cpp:167:24
	vldr	s2, [r6]
	.loc	11 167 22               @ /root/Bela/projects/Thesis/SourceSeparation.cpp:167:22
	add	r6, r1, r3
.Ltmp255:
	.loc	11 164 2 is_stmt 1 discriminator 1 @ /root/Bela/projects/Thesis/SourceSeparation.cpp:164:2
	add	r3, r3, #4
.Ltmp256:
	.loc	11 167 54               @ /root/Bela/projects/Thesis/SourceSeparation.cpp:167:54
	vmul.f32	d0, d0, d1
.Ltmp257:
	.loc	11 164 2 discriminator 1 @ /root/Bela/projects/Thesis/SourceSeparation.cpp:164:2
	cmp	r3, #4096
.Ltmp258:
	.loc	11 167 22               @ /root/Bela/projects/Thesis/SourceSeparation.cpp:167:22
	vstr	s0, [r6]
	mov	r6, r4
.Ltmp259:
	.loc	11 164 2 discriminator 1 @ /root/Bela/projects/Thesis/SourceSeparation.cpp:164:2
	bne	.LBB8_9
.Ltmp260:
@ BB#10:
	.loc	11 171 7                @ /root/Bela/projects/Thesis/SourceSeparation.cpp:171:7
	add	r9, r10, #84
	add	r1, r7, #20
.Ltmp261:
	@DEBUG_VALUE: operator[]:this <- %R1
	mov	r0, r9
	bl	_ZN3Fft3fftERKSt6vectorIfSaIfEE
.Ltmp262:
	.loc	11 179 8                @ /root/Bela/projects/Thesis/SourceSeparation.cpp:179:8
	movw	r5, :lower16:.L_MergedGlobals
.Ltmp263:
	.file	42 "./include" "Utilities.h"
	.loc	42 73 44                @ ./include/Utilities.h:73:44
	vldr	s16, .LCPI8_0
	mov	r7, #0
	mov	r6, #4
.Ltmp264:
	@DEBUG_VALUE: n <- 0
	.loc	11 179 8                @ /root/Bela/projects/Thesis/SourceSeparation.cpp:179:8
	movt	r5, :upper16:.L_MergedGlobals
.Ltmp265:
	.loc	11 175 2 discriminator 1 @ /root/Bela/projects/Thesis/SourceSeparation.cpp:175:2
	movw	r4, #513
.LBB8_11:                               @ =>This Inner Loop Header: Depth=1
.Ltmp266:
	@DEBUG_VALUE: fdr:n <- %R7
	.loc	2 38 38                 @ ./libraries/Fft/Fft.h:38:38
	ldr	r0, [r10, #88]
.Ltmp267:
	.loc	11 179 15               @ /root/Bela/projects/Thesis/SourceSeparation.cpp:179:15
	ldr	r1, [r0, r7, lsl #3]
	.loc	11 180 15               @ /root/Bela/projects/Thesis/SourceSeparation.cpp:180:15
	add	r0, r0, r6
	.loc	11 179 8                @ /root/Bela/projects/Thesis/SourceSeparation.cpp:179:8
	str	r1, [r5, #16]
	.loc	11 180 15               @ /root/Bela/projects/Thesis/SourceSeparation.cpp:180:15
	vldr	s0, [r0]
	.loc	11 215 3                @ /root/Bela/projects/Thesis/SourceSeparation.cpp:215:3
	mov	r0, r7
	.loc	11 182 25               @ /root/Bela/projects/Thesis/SourceSeparation.cpp:182:25
	vmov	d16, r1, r1
	.loc	11 182 44 is_stmt 0     @ /root/Bela/projects/Thesis/SourceSeparation.cpp:182:44
	vmul.f32	d17, d0, d0
	.loc	11 180 8 is_stmt 1      @ /root/Bela/projects/Thesis/SourceSeparation.cpp:180:8
	vstr	s0, [r5, #20]
	.loc	11 182 30               @ /root/Bela/projects/Thesis/SourceSeparation.cpp:182:30
	vmul.f32	d16, d16, d16
	.loc	11 182 37 is_stmt 0     @ /root/Bela/projects/Thesis/SourceSeparation.cpp:182:37
	vadd.f32	d1, d17, d16
	.loc	11 182 19               @ /root/Bela/projects/Thesis/SourceSeparation.cpp:182:19
	vsqrt.f32	s2, s2
.Ltmp268:
	@DEBUG_VALUE: map:out_max <- 1.000000e+00
	@DEBUG_VALUE: map:out_min <- 0.000000e+00
	@DEBUG_VALUE: map:in_max <- 2.000000e-03
	@DEBUG_VALUE: map:in_min <- 0.000000e+00
	.loc	42 73 44 is_stmt 1      @ ./include/Utilities.h:73:44
	vmul.f32	d1, d1, d8
.Ltmp269:
	.loc	11 182 13               @ /root/Bela/projects/Thesis/SourceSeparation.cpp:182:13
	vstr	s2, [r5, #24]
	.loc	11 215 3                @ /root/Bela/projects/Thesis/SourceSeparation.cpp:215:3
	blx	r8
.Ltmp270:
	.loc	11 175 35 discriminator 3 @ /root/Bela/projects/Thesis/SourceSeparation.cpp:175:35
	add	r7, r7, #1
.Ltmp271:
	@DEBUG_VALUE: n <- %R7
	.loc	11 175 2 is_stmt 0 discriminator 1 @ /root/Bela/projects/Thesis/SourceSeparation.cpp:175:2
	add	r6, r6, #8
	cmp	r7, r4
	bne	.LBB8_11
.Ltmp272:
@ BB#12:
	@DEBUG_VALUE: n <- %R7
	@DEBUG_VALUE: fdi:this <- %R9
	.loc	11 219 7 is_stmt 1      @ /root/Bela/projects/Thesis/SourceSeparation.cpp:219:7
	mov	r0, r9
	bl	_ZN3Fft4ifftEv
	ldr	r0, [r11, #8]
	mov	r7, #0
.Ltmp273:
	@DEBUG_VALUE: n <- 0
	.loc	9 781 32                @ /usr/bin/../lib/gcc/arm-linux-gnueabihf/6.3.0/../../../../include/c++/6.3.0/bits/stl_vector.h:781:32
	ldr	r1, [r10, #60]
.Ltmp274:
	.loc	11 222 2 discriminator 1 @ /root/Bela/projects/Thesis/SourceSeparation.cpp:222:2
	add	r4, r0, #15360
.Ltmp275:
	.loc	9 781 32                @ /usr/bin/../lib/gcc/arm-linux-gnueabihf/6.3.0/../../../../include/c++/6.3.0/bits/stl_vector.h:781:32
	ldr	r0, [sp, #4]            @ 4-byte Reload
.Ltmp276:
	.loc	2 51 37                 @ ./libraries/Fft/Fft.h:51:37
	ldr	r2, [r10, #84]
.Ltmp277:
	.loc	9 781 32                @ /usr/bin/../lib/gcc/arm-linux-gnueabihf/6.3.0/../../../../include/c++/6.3.0/bits/stl_vector.h:781:32
	ldr	r3, [r0]
.Ltmp278:
.LBB8_13:                               @ =>This Inner Loop Header: Depth=1
	.loc	11 224 50               @ /root/Bela/projects/Thesis/SourceSeparation.cpp:224:50
	add	r6, r1, r7
	.loc	11 224 42 is_stmt 0     @ /root/Bela/projects/Thesis/SourceSeparation.cpp:224:42
	add	r5, r2, r7
	.loc	11 223 71 is_stmt 1     @ /root/Bela/projects/Thesis/SourceSeparation.cpp:223:71
	mov	r0, r4
.Ltmp279:
	.loc	11 222 2 discriminator 1 @ /root/Bela/projects/Thesis/SourceSeparation.cpp:222:2
	add	r7, r7, #4
.Ltmp280:
	.loc	11 223 71               @ /root/Bela/projects/Thesis/SourceSeparation.cpp:223:71
	bfc	r0, #14, #18
.Ltmp281:
	@DEBUG_VALUE: circularBufferIndex <- %R0
	@DEBUG_VALUE: operator[]:__n <- %R0
	.loc	11 224 42               @ /root/Bela/projects/Thesis/SourceSeparation.cpp:224:42
	vldr	s0, [r5]
	.loc	11 224 50 is_stmt 0     @ /root/Bela/projects/Thesis/SourceSeparation.cpp:224:50
	vldr	s2, [r6]
.Ltmp282:
	.loc	11 222 2 is_stmt 1 discriminator 1 @ /root/Bela/projects/Thesis/SourceSeparation.cpp:222:2
	add	r4, r4, #1
.Ltmp283:
	.loc	9 781 41                @ /usr/bin/../lib/gcc/arm-linux-gnueabihf/6.3.0/../../../../include/c++/6.3.0/bits/stl_vector.h:781:41
	add	r0, r3, r0, lsl #2
.Ltmp284:
	.loc	11 222 2 discriminator 1 @ /root/Bela/projects/Thesis/SourceSeparation.cpp:222:2
	cmp	r7, #4096
.Ltmp285:
	.loc	11 224 48               @ /root/Bela/projects/Thesis/SourceSeparation.cpp:224:48
	vmul.f32	d16, d1, d0
	.loc	11 224 34 is_stmt 0     @ /root/Bela/projects/Thesis/SourceSeparation.cpp:224:34
	vldr	s0, [r0]
	vadd.f32	d0, d0, d16
	vstr	s0, [r0]
.Ltmp286:
	.loc	11 222 2 is_stmt 1 discriminator 1 @ /root/Bela/projects/Thesis/SourceSeparation.cpp:222:2
	bne	.LBB8_13
.Ltmp287:
@ BB#14:
	.loc	11 226 1 discriminator 2 @ /root/Bela/projects/Thesis/SourceSeparation.cpp:226:1
	sub	sp, r11, #40
	vpop	{d8}
	add	sp, sp, #4
	pop	{r4, r5, r6, r7, r8, r9, r10, r11, pc}
.LBB8_15:
.Ltmp288:
	@DEBUG_VALUE: process_fft:inBuffer <- %R9
	@DEBUG_VALUE: process_fft:inPointer <- %R10
	@DEBUG_VALUE: process_fft:processRange <- %R8
.Ltmp199:
	mov	r5, r0
	.loc	11 161 2 discriminator 10 @ /root/Bela/projects/Thesis/SourceSeparation.cpp:161:2
	mov	r0, r4
	b	.LBB8_17
.Ltmp289:
.LBB8_16:
	@DEBUG_VALUE: process_fft:inBuffer <- %R9
	@DEBUG_VALUE: process_fft:inPointer <- %R10
	@DEBUG_VALUE: process_fft:processRange <- %R8
.Ltmp196:
	mov	r5, r0
	.loc	11 160 2 discriminator 11 @ /root/Bela/projects/Thesis/SourceSeparation.cpp:160:2
	movw	r0, :lower16:.L_MergedGlobals.2
	movt	r0, :upper16:.L_MergedGlobals.2
.Ltmp290:
.LBB8_17:
	@DEBUG_VALUE: process_fft:inBuffer <- %R9
	@DEBUG_VALUE: process_fft:inPointer <- %R10
	@DEBUG_VALUE: process_fft:processRange <- %R8
	bl	__cxa_guard_abort
	mov	r0, r5
	mov	lr, pc
	b	_Unwind_Resume
.Ltmp291:
	.p2align	2
@ BB#18:
.LCPI8_0:
	.long	1140457471              @ float 499.999969
.Lfunc_end8:
	.size	_Z11process_fftPFviERKSt6vectorIfSaIfEEjRS3_j, .Lfunc_end8-_Z11process_fftPFviERKSt6vectorIfSaIfEEjRS3_j
	.cfi_endproc
	.file	43 "/usr/bin/../lib/gcc/arm-linux-gnueabihf/6.3.0/../../../../include/c++/6.3.0/ext" "type_traits.h"
	.file	44 "/usr/bin/../lib/gcc/arm-linux-gnueabihf/6.3.0/../../../../include/c++/6.3.0/bits" "stl_uninitialized.h"
	.globl	__gxx_personality_v0
	.personality __gxx_personality_v0
	.handlerdata
	.p2align	2
GCC_except_table8:
.Lexception1:
	.byte	255                     @ @LPStart Encoding = omit
	.byte	0                       @ @TType Encoding = absptr
	.asciz	"\266\200\200"          @ @TType base offset
	.byte	3                       @ Call site Encoding = udata4
	.byte	52                      @ Call site table length
	.long	.Ltmp194-.Lfunc_begin8  @ >> Call Site 1 <<
	.long	.Ltmp195-.Ltmp194       @   Call between .Ltmp194 and .Ltmp195
	.long	.Ltmp196-.Lfunc_begin8  @     jumps to .Ltmp196
	.byte	0                       @   On action: cleanup
	.long	.Ltmp195-.Lfunc_begin8  @ >> Call Site 2 <<
	.long	.Ltmp197-.Ltmp195       @   Call between .Ltmp195 and .Ltmp197
	.long	0                       @     has no landing pad
	.byte	0                       @   On action: cleanup
	.long	.Ltmp197-.Lfunc_begin8  @ >> Call Site 3 <<
	.long	.Ltmp198-.Ltmp197       @   Call between .Ltmp197 and .Ltmp198
	.long	.Ltmp199-.Lfunc_begin8  @     jumps to .Ltmp199
	.byte	0                       @   On action: cleanup
	.long	.Ltmp198-.Lfunc_begin8  @ >> Call Site 4 <<
	.long	.Lfunc_end8-.Ltmp198    @   Call between .Ltmp198 and .Lfunc_end8
	.long	0                       @     has no landing pad
	.byte	0                       @   On action: cleanup
	.p2align	2
	.fnend

	.globl	_Z13render_SS_Fftff
	.p2align	2
	.type	_Z13render_SS_Fftff,%function
_Z13render_SS_Fftff:                    @ @_Z13render_SS_Fftff
.Lfunc_begin9:
	.loc	11 251 0                @ /root/Bela/projects/Thesis/SourceSeparation.cpp:251:0
	.fnstart
	.cfi_startproc
@ BB#0:
	.save	{r4, r5, r6, r7, r8, r9, r10, r11, lr}
	push	{r4, r5, r6, r7, r8, r9, r10, r11, lr}
.Ltmp292:
	.cfi_def_cfa_offset 36
.Ltmp293:
	.cfi_offset lr, -4
.Ltmp294:
	.cfi_offset r11, -8
.Ltmp295:
	.cfi_offset r10, -12
.Ltmp296:
	.cfi_offset r9, -16
.Ltmp297:
	.cfi_offset r8, -20
.Ltmp298:
	.cfi_offset r7, -24
.Ltmp299:
	.cfi_offset r6, -28
.Ltmp300:
	.cfi_offset r5, -32
.Ltmp301:
	.cfi_offset r4, -36
	.setfp	r11, sp, #28
	add	r11, sp, #28
.Ltmp302:
	.cfi_def_cfa r11, 8
	.pad	#4
	sub	sp, sp, #4
	@DEBUG_VALUE: render_SS_Fft:audio_l <- %S0
	@DEBUG_VALUE: render_SS_Fft:audio_r <- %S1
.Ltmp303:
	.loc	11 255 39 prologue_end  @ /root/Bela/projects/Thesis/SourceSeparation.cpp:255:39
	movw	r9, :lower16:.L_MergedGlobals
.Ltmp304:
	.loc	9 781 32                @ /usr/bin/../lib/gcc/arm-linux-gnueabihf/6.3.0/../../../../include/c++/6.3.0/bits/stl_vector.h:781:32
	movw	lr, :lower16:.L_MergedGlobals.1
.Ltmp305:
	.loc	11 255 39               @ /root/Bela/projects/Thesis/SourceSeparation.cpp:255:39
	movt	r9, :upper16:.L_MergedGlobals
.Ltmp306:
	.loc	9 781 32                @ /usr/bin/../lib/gcc/arm-linux-gnueabihf/6.3.0/../../../../include/c++/6.3.0/bits/stl_vector.h:781:32
	movt	lr, :upper16:.L_MergedGlobals.1
.Ltmp307:
	.loc	11 255 39               @ /root/Bela/projects/Thesis/SourceSeparation.cpp:255:39
	ldr	r2, [r9, #28]
.Ltmp308:
	@DEBUG_VALUE: operator[]:__n <- %R2
	.loc	11 266 15               @ /root/Bela/projects/Thesis/SourceSeparation.cpp:266:15
	movw	r12, :lower16:streamOne_l
	movt	r12, :upper16:streamOne_l
	.loc	11 268 15               @ /root/Bela/projects/Thesis/SourceSeparation.cpp:268:15
	movw	r8, :lower16:streamOne_r
	.loc	11 255 39               @ /root/Bela/projects/Thesis/SourceSeparation.cpp:255:39
	add	r0, r2, #1
	str	r0, [r9, #28]
.Ltmp309:
	.loc	9 781 32                @ /usr/bin/../lib/gcc/arm-linux-gnueabihf/6.3.0/../../../../include/c++/6.3.0/bits/stl_vector.h:781:32
	ldr	r0, [r9, #92]
.Ltmp310:
	.loc	11 268 15               @ /root/Bela/projects/Thesis/SourceSeparation.cpp:268:15
	movt	r8, :upper16:streamOne_r
	.loc	11 269 15               @ /root/Bela/projects/Thesis/SourceSeparation.cpp:269:15
	movw	r10, :lower16:streamTwo_r
.Ltmp311:
	.loc	9 781 41                @ /usr/bin/../lib/gcc/arm-linux-gnueabihf/6.3.0/../../../../include/c++/6.3.0/bits/stl_vector.h:781:41
	add	r0, r0, r2, lsl #2
.Ltmp312:
	.loc	11 269 15               @ /root/Bela/projects/Thesis/SourceSeparation.cpp:269:15
	movt	r10, :upper16:streamTwo_r
	.loc	11 255 43               @ /root/Bela/projects/Thesis/SourceSeparation.cpp:255:43
	vstr	s0, [r0]
	.loc	11 256 39               @ /root/Bela/projects/Thesis/SourceSeparation.cpp:256:39
	ldr	r0, [r9, #36]
.Ltmp313:
	@DEBUG_VALUE: operator[]:__n <- %R0
	.loc	11 261 6                @ /root/Bela/projects/Thesis/SourceSeparation.cpp:261:6
	add	r1, r0, #1
.Ltmp314:
	.loc	11 256 39               @ /root/Bela/projects/Thesis/SourceSeparation.cpp:256:39
	str	r1, [r9, #36]
.Ltmp315:
	.loc	9 781 32                @ /usr/bin/../lib/gcc/arm-linux-gnueabihf/6.3.0/../../../../include/c++/6.3.0/bits/stl_vector.h:781:32
	ldr	r1, [r9, #104]
	.loc	9 781 41 is_stmt 0      @ /usr/bin/../lib/gcc/arm-linux-gnueabihf/6.3.0/../../../../include/c++/6.3.0/bits/stl_vector.h:781:41
	add	r1, r1, r0, lsl #2
.Ltmp316:
	.loc	11 256 43 is_stmt 1     @ /root/Bela/projects/Thesis/SourceSeparation.cpp:256:43
	vstr	s1, [r1]
	.loc	11 258 6                @ /root/Bela/projects/Thesis/SourceSeparation.cpp:258:6
	movw	r1, #16383
	cmp	r2, r1
.Ltmp317:
	.loc	9 781 32                @ /usr/bin/../lib/gcc/arm-linux-gnueabihf/6.3.0/../../../../include/c++/6.3.0/bits/stl_vector.h:781:32
	ldr	r6, [lr, #12]
.Ltmp318:
	.loc	11 259 26               @ /root/Bela/projects/Thesis/SourceSeparation.cpp:259:26
	movge	r2, #0
.Ltmp319:
	strge	r2, [r9, #28]
.Ltmp320:
	.loc	11 261 6                @ /root/Bela/projects/Thesis/SourceSeparation.cpp:261:6
	cmp	r0, r1
.Ltmp321:
	.loc	11 262 26               @ /root/Bela/projects/Thesis/SourceSeparation.cpp:262:26
	movge	r0, #0
.Ltmp322:
	.loc	9 781 32                @ /usr/bin/../lib/gcc/arm-linux-gnueabihf/6.3.0/../../../../include/c++/6.3.0/bits/stl_vector.h:781:32
	ldr	r2, [lr]
.Ltmp323:
	.loc	11 262 26               @ /root/Bela/projects/Thesis/SourceSeparation.cpp:262:26
	strge	r0, [r9, #36]
.Ltmp324:
	.loc	11 267 15               @ /root/Bela/projects/Thesis/SourceSeparation.cpp:267:15
	movw	r1, :lower16:streamTwo_l
	.loc	11 266 36               @ /root/Bela/projects/Thesis/SourceSeparation.cpp:266:36
	ldr	r0, [r9, #48]
.Ltmp325:
	@DEBUG_VALUE: operator[]:__n <- %R0
	@DEBUG_VALUE: operator[]:__n <- %R0
	.loc	11 267 15               @ /root/Bela/projects/Thesis/SourceSeparation.cpp:267:15
	movt	r1, :upper16:streamTwo_l
	.loc	11 268 36               @ /root/Bela/projects/Thesis/SourceSeparation.cpp:268:36
	ldr	r5, [r9, #64]
.Ltmp326:
	@DEBUG_VALUE: operator[]:__n <- %R5
	@DEBUG_VALUE: operator[]:__n <- %R5
	.loc	11 269 36               @ /root/Bela/projects/Thesis/SourceSeparation.cpp:269:36
	ldr	r4, [r9, #72]
.Ltmp327:
	@DEBUG_VALUE: operator[]:__n <- %R4
	.loc	11 266 17               @ /root/Bela/projects/Thesis/SourceSeparation.cpp:266:17
	ldr	r3, [r2, r0, lsl #2]
	.loc	11 266 15 is_stmt 0     @ /root/Bela/projects/Thesis/SourceSeparation.cpp:266:15
	str	r3, [r12]
	.loc	11 267 36 is_stmt 1     @ /root/Bela/projects/Thesis/SourceSeparation.cpp:267:36
	ldr	r3, [r9, #56]
.Ltmp328:
	@DEBUG_VALUE: operator[]:__n <- %R3
	@DEBUG_VALUE: operator[]:__n <- %R3
	.loc	11 267 17 is_stmt 0     @ /root/Bela/projects/Thesis/SourceSeparation.cpp:267:17
	ldr	r7, [r6, r3, lsl #2]
	.loc	11 267 15               @ /root/Bela/projects/Thesis/SourceSeparation.cpp:267:15
	str	r7, [r1]
.Ltmp329:
	.loc	9 781 32 is_stmt 1      @ /usr/bin/../lib/gcc/arm-linux-gnueabihf/6.3.0/../../../../include/c++/6.3.0/bits/stl_vector.h:781:32
	ldr	r7, [lr, #24]
.Ltmp330:
	.loc	11 268 17               @ /root/Bela/projects/Thesis/SourceSeparation.cpp:268:17
	ldr	r1, [r7, r5, lsl #2]
	.loc	11 268 15 is_stmt 0     @ /root/Bela/projects/Thesis/SourceSeparation.cpp:268:15
	str	r1, [r8]
.Ltmp331:
	@DEBUG_VALUE: operator[]:__n <- %R4
	.loc	9 781 32 is_stmt 1      @ /usr/bin/../lib/gcc/arm-linux-gnueabihf/6.3.0/../../../../include/c++/6.3.0/bits/stl_vector.h:781:32
	ldr	r1, [lr, #36]
.Ltmp332:
	.loc	11 269 17               @ /root/Bela/projects/Thesis/SourceSeparation.cpp:269:17
	ldr	lr, [r1, r4, lsl #2]
	.loc	11 269 15 is_stmt 0     @ /root/Bela/projects/Thesis/SourceSeparation.cpp:269:15
	str	lr, [r10]
	mov	lr, #0
	.loc	11 272 53 is_stmt 1     @ /root/Bela/projects/Thesis/SourceSeparation.cpp:272:53
	str	lr, [r2, r0, lsl #2]
	.loc	11 267 15               @ /root/Bela/projects/Thesis/SourceSeparation.cpp:267:15
	movw	r0, :lower16:streamTwo_l
.Ltmp333:
	movt	r0, :upper16:streamTwo_l
	.loc	11 273 53               @ /root/Bela/projects/Thesis/SourceSeparation.cpp:273:53
	str	lr, [r6, r3, lsl #2]
	.loc	11 274 53               @ /root/Bela/projects/Thesis/SourceSeparation.cpp:274:53
	str	lr, [r7, r5, lsl #2]
	mov	r5, r0
.Ltmp334:
	.loc	11 275 53               @ /root/Bela/projects/Thesis/SourceSeparation.cpp:275:53
	str	lr, [r1, r4, lsl #2]
	mov	r4, #0
.Ltmp335:
	.loc	11 281 18               @ /root/Bela/projects/Thesis/SourceSeparation.cpp:281:18
	vldr	s2, [r9, #4]
	.loc	11 282 15               @ /root/Bela/projects/Thesis/SourceSeparation.cpp:282:15
	vldr	s4, [r0]
	.loc	11 281 15               @ /root/Bela/projects/Thesis/SourceSeparation.cpp:281:15
	vldr	s0, [r12]
.Ltmp336:
	.loc	11 282 15               @ /root/Bela/projects/Thesis/SourceSeparation.cpp:282:15
	vmul.f32	d2, d2, d1
	.loc	11 284 15               @ /root/Bela/projects/Thesis/SourceSeparation.cpp:284:15
	vldr	s6, [r10]
	.loc	11 281 15               @ /root/Bela/projects/Thesis/SourceSeparation.cpp:281:15
	vmul.f32	d0, d0, d1
	.loc	11 282 15               @ /root/Bela/projects/Thesis/SourceSeparation.cpp:282:15
	vstr	s4, [r0]
	.loc	11 283 15               @ /root/Bela/projects/Thesis/SourceSeparation.cpp:283:15
	vldr	s4, [r8]
	.loc	11 281 15               @ /root/Bela/projects/Thesis/SourceSeparation.cpp:281:15
	vstr	s0, [r12]
	.loc	11 287 3                @ /root/Bela/projects/Thesis/SourceSeparation.cpp:287:3
                                        @ kill: %S0<def> %S0<kill> %D0<kill>
	.loc	11 283 15               @ /root/Bela/projects/Thesis/SourceSeparation.cpp:283:15
	vmul.f32	d2, d2, d1
	.loc	11 284 15               @ /root/Bela/projects/Thesis/SourceSeparation.cpp:284:15
	vmul.f32	d1, d3, d1
	.loc	11 287 3                @ /root/Bela/projects/Thesis/SourceSeparation.cpp:287:3
	vmov.f32	s1, s4
	.loc	11 283 15               @ /root/Bela/projects/Thesis/SourceSeparation.cpp:283:15
	vstr	s4, [r8]
	.loc	11 284 15               @ /root/Bela/projects/Thesis/SourceSeparation.cpp:284:15
	vstr	s2, [r10]
	.loc	11 287 3                @ /root/Bela/projects/Thesis/SourceSeparation.cpp:287:3
	bl	_Z15render_highpassff
.Ltmp337:
	.loc	11 288 32               @ /root/Bela/projects/Thesis/SourceSeparation.cpp:288:32
	vldr	s1, [r10]
	.loc	11 288 19 is_stmt 0     @ /root/Bela/projects/Thesis/SourceSeparation.cpp:288:19
	vldr	s0, [r5]
	.loc	11 288 3                @ /root/Bela/projects/Thesis/SourceSeparation.cpp:288:3
	bl	_Z15render_bandpassff
	.loc	11 291 32 is_stmt 1     @ /root/Bela/projects/Thesis/SourceSeparation.cpp:291:32
	ldr	r7, [r9, #48]
	add	r0, r7, #1
	str	r0, [r9, #48]
	.loc	11 292 32               @ /root/Bela/projects/Thesis/SourceSeparation.cpp:292:32
	ldr	r2, [r9, #56]
.Ltmp338:
	.loc	11 299 6                @ /root/Bela/projects/Thesis/SourceSeparation.cpp:299:6
	add	r0, r2, #1
.Ltmp339:
	.loc	11 292 32               @ /root/Bela/projects/Thesis/SourceSeparation.cpp:292:32
	str	r0, [r9, #56]
	.loc	11 293 32               @ /root/Bela/projects/Thesis/SourceSeparation.cpp:293:32
	ldr	r1, [r9, #64]
.Ltmp340:
	.loc	11 302 6                @ /root/Bela/projects/Thesis/SourceSeparation.cpp:302:6
	add	r0, r1, #1
.Ltmp341:
	.loc	11 293 32               @ /root/Bela/projects/Thesis/SourceSeparation.cpp:293:32
	str	r0, [r9, #64]
	.loc	11 294 32               @ /root/Bela/projects/Thesis/SourceSeparation.cpp:294:32
	ldr	r0, [r9, #72]
.Ltmp342:
	.loc	11 305 6                @ /root/Bela/projects/Thesis/SourceSeparation.cpp:305:6
	add	r3, r0, #1
.Ltmp343:
	.loc	11 294 32               @ /root/Bela/projects/Thesis/SourceSeparation.cpp:294:32
	str	r3, [r9, #72]
	.loc	11 296 6                @ /root/Bela/projects/Thesis/SourceSeparation.cpp:296:6
	movw	r3, #16383
	cmp	r7, r3
.Ltmp344:
	.loc	11 297 34               @ /root/Bela/projects/Thesis/SourceSeparation.cpp:297:34
	strge	r4, [r9, #48]
.Ltmp345:
	.loc	11 299 6                @ /root/Bela/projects/Thesis/SourceSeparation.cpp:299:6
	cmp	r2, r3
.Ltmp346:
	.loc	11 300 34               @ /root/Bela/projects/Thesis/SourceSeparation.cpp:300:34
	movge	r2, #0
	strge	r2, [r9, #56]
.Ltmp347:
	.loc	11 302 6                @ /root/Bela/projects/Thesis/SourceSeparation.cpp:302:6
	movw	r2, #16383
	cmp	r1, r2
.Ltmp348:
	.loc	11 303 34               @ /root/Bela/projects/Thesis/SourceSeparation.cpp:303:34
	movge	r1, #0
	strge	r1, [r9, #64]
.Ltmp349:
	.loc	11 305 6                @ /root/Bela/projects/Thesis/SourceSeparation.cpp:305:6
	cmp	r0, r2
.Ltmp350:
	.loc	11 306 34               @ /root/Bela/projects/Thesis/SourceSeparation.cpp:306:34
	movge	r0, #0
	strge	r0, [r9, #72]
.Ltmp351:
	.loc	11 309 6                @ /root/Bela/projects/Thesis/SourceSeparation.cpp:309:6
	ldr	r0, [r9, #32]
	add	r1, r0, #1
	str	r1, [r9, #32]
	.loc	11 309 25 is_stmt 0     @ /root/Bela/projects/Thesis/SourceSeparation.cpp:309:25
	ldr	r0, [r9]
.Ltmp352:
	.loc	11 309 6                @ /root/Bela/projects/Thesis/SourceSeparation.cpp:309:6
	cmp	r1, r0
	blt	.LBB9_2
@ BB#1:
	mov	r0, #0
.Ltmp353:
	.loc	11 310 18 is_stmt 1     @ /root/Bela/projects/Thesis/SourceSeparation.cpp:310:18
	str	r0, [r9, #32]
	.loc	11 312 34               @ /root/Bela/projects/Thesis/SourceSeparation.cpp:312:34
	ldr	r0, [r9, #28]
	.loc	11 312 32 is_stmt 0     @ /root/Bela/projects/Thesis/SourceSeparation.cpp:312:32
	str	r0, [r9, #80]
	.loc	11 313 31 is_stmt 1     @ /root/Bela/projects/Thesis/SourceSeparation.cpp:313:31
	ldr	r0, [r9, #76]
	.loc	11 313 4 is_stmt 0      @ /root/Bela/projects/Thesis/SourceSeparation.cpp:313:4
	bl	Bela_scheduleAuxiliaryTask
.Ltmp354:
	.loc	11 316 25 is_stmt 1     @ /root/Bela/projects/Thesis/SourceSeparation.cpp:316:25
	ldr	r0, [r9]
.LBB9_2:
	.loc	11 316 6 is_stmt 0      @ /root/Bela/projects/Thesis/SourceSeparation.cpp:316:6
	ldr	r1, [r9, #40]
	add	r1, r1, #1
	str	r1, [r9, #40]
.Ltmp355:
	.loc	11 316 6                @ /root/Bela/projects/Thesis/SourceSeparation.cpp:316:6
	cmp	r1, r0
	bge	.LBB9_4
@ BB#3:
	.loc	11 322 1 is_stmt 1      @ /root/Bela/projects/Thesis/SourceSeparation.cpp:322:1
	sub	sp, r11, #28
	pop	{r4, r5, r6, r7, r8, r9, r10, r11, pc}
.LBB9_4:
	mov	r0, #0
.Ltmp356:
	.loc	11 317 18               @ /root/Bela/projects/Thesis/SourceSeparation.cpp:317:18
	str	r0, [r9, #40]
	.loc	11 319 34               @ /root/Bela/projects/Thesis/SourceSeparation.cpp:319:34
	ldr	r0, [r9, #36]
	.loc	11 319 32 is_stmt 0     @ /root/Bela/projects/Thesis/SourceSeparation.cpp:319:32
	str	r0, [r9, #88]
	.loc	11 320 31 is_stmt 1     @ /root/Bela/projects/Thesis/SourceSeparation.cpp:320:31
	ldr	r0, [r9, #84]
	.loc	11 320 4 is_stmt 0      @ /root/Bela/projects/Thesis/SourceSeparation.cpp:320:4
	sub	sp, r11, #28
	pop	{r4, r5, r6, r7, r8, r9, r10, r11, lr}
	b	Bela_scheduleAuxiliaryTask
.Ltmp357:
.Lfunc_end9:
	.size	_Z13render_SS_Fftff, .Lfunc_end9-_Z13render_SS_Fftff
	.cfi_endproc
	.fnend

	.section	.text.__clang_call_terminate,"axG",%progbits,__clang_call_terminate,comdat
	.hidden	__clang_call_terminate
	.weak	__clang_call_terminate
	.p2align	2
	.type	__clang_call_terminate,%function
__clang_call_terminate:                 @ @__clang_call_terminate
.Lfunc_begin10:
	.fnstart
	.cfi_startproc
@ BB#0:
	.save	{r11, lr}
	push	{r11, lr}
.Ltmp358:
	.cfi_def_cfa_offset 8
.Ltmp359:
	.cfi_offset lr, -4
.Ltmp360:
	.cfi_offset r11, -8
	bl	__cxa_begin_catch
	mov	lr, pc
	b	_ZSt9terminatev
.Lfunc_end10:
	.size	__clang_call_terminate, .Lfunc_end10-__clang_call_terminate
	.cfi_endproc
	.cantunwind
	.fnend

	.section	.text._ZNSt6vectorIfSaIfEE17_M_default_appendEj,"axG",%progbits,_ZNSt6vectorIfSaIfEE17_M_default_appendEj,comdat
	.weak	_ZNSt6vectorIfSaIfEE17_M_default_appendEj
	.p2align	2
	.type	_ZNSt6vectorIfSaIfEE17_M_default_appendEj,%function
_ZNSt6vectorIfSaIfEE17_M_default_appendEj: @ @_ZNSt6vectorIfSaIfEE17_M_default_appendEj
.Lfunc_begin11:
	.file	45 "/usr/bin/../lib/gcc/arm-linux-gnueabihf/6.3.0/../../../../include/c++/6.3.0/bits" "vector.tcc"
	.loc	45 542 0 is_stmt 1      @ /usr/bin/../lib/gcc/arm-linux-gnueabihf/6.3.0/../../../../include/c++/6.3.0/bits/vector.tcc:542:0
	.fnstart
	.cfi_startproc
@ BB#0:
	.save	{r4, r5, r6, r7, r8, r10, r11, lr}
	push	{r4, r5, r6, r7, r8, r10, r11, lr}
.Ltmp361:
	.cfi_def_cfa_offset 32
.Ltmp362:
	.cfi_offset lr, -4
.Ltmp363:
	.cfi_offset r11, -8
.Ltmp364:
	.cfi_offset r10, -12
.Ltmp365:
	.cfi_offset r8, -16
.Ltmp366:
	.cfi_offset r7, -20
.Ltmp367:
	.cfi_offset r6, -24
.Ltmp368:
	.cfi_offset r5, -28
.Ltmp369:
	.cfi_offset r4, -32
	.setfp	r11, sp, #24
	add	r11, sp, #24
.Ltmp370:
	.cfi_def_cfa r11, 8
	@DEBUG_VALUE: _M_default_append:this <- %R0
	@DEBUG_VALUE: _M_default_append:__n <- %R1
	mov	r5, r1
.Ltmp371:
	@DEBUG_VALUE: _M_default_append:__n <- %R5
	mov	r4, r0
.Ltmp372:
	@DEBUG_VALUE: _M_default_append:this <- %R4
	.loc	45 543 11 prologue_end  @ /usr/bin/../lib/gcc/arm-linux-gnueabihf/6.3.0/../../../../include/c++/6.3.0/bits/vector.tcc:543:11
	cmp	r5, #0
	beq	.LBB11_11
.Ltmp373:
@ BB#1:
	@DEBUG_VALUE: _M_default_append:this <- %R4
	@DEBUG_VALUE: _M_default_append:__n <- %R5
	@DEBUG_VALUE: __fill_n_a<float *, unsigned int, float>:__first <- %R7
	@DEBUG_VALUE: fill_n<float *, unsigned int, float>:__first <- %R7
	@DEBUG_VALUE: __uninit_default_n<float *, unsigned int>:__first <- %R7
	@DEBUG_VALUE: __uninitialized_default_n<float *, unsigned int>:__first <- %R7
	@DEBUG_VALUE: __uninitialized_default_n_a<float *, unsigned int, float>:__first <- %R7
	.loc	45 546 20               @ /usr/bin/../lib/gcc/arm-linux-gnueabihf/6.3.0/../../../../include/c++/6.3.0/bits/vector.tcc:546:20
	ldr	r7, [r4, #4]
.Ltmp374:
	.loc	45 545 32               @ /usr/bin/../lib/gcc/arm-linux-gnueabihf/6.3.0/../../../../include/c++/6.3.0/bits/vector.tcc:545:32
	ldr	r0, [r4, #8]
	.loc	45 546 4                @ /usr/bin/../lib/gcc/arm-linux-gnueabihf/6.3.0/../../../../include/c++/6.3.0/bits/vector.tcc:546:4
	sub	r0, r0, r7
	asr	r0, r0, #2
.Ltmp375:
	.loc	45 545 8                @ /usr/bin/../lib/gcc/arm-linux-gnueabihf/6.3.0/../../../../include/c++/6.3.0/bits/vector.tcc:545:8
	cmp	r0, r5
	bhs	.LBB11_12
.Ltmp376:
@ BB#2:
	@DEBUG_VALUE: _M_default_append:this <- %R4
	@DEBUG_VALUE: _M_default_append:__n <- %R5
	@DEBUG_VALUE: size:this <- %R4
	.loc	9 656 66                @ /usr/bin/../lib/gcc/arm-linux-gnueabihf/6.3.0/../../../../include/c++/6.3.0/bits/stl_vector.h:656:66
	ldr	r1, [r4]
.Ltmp377:
	.loc	9 1422 17               @ /usr/bin/../lib/gcc/arm-linux-gnueabihf/6.3.0/../../../../include/c++/6.3.0/bits/stl_vector.h:1422:17
	mvn	r8, #-1073741824
.Ltmp378:
	.loc	9 656 50                @ /usr/bin/../lib/gcc/arm-linux-gnueabihf/6.3.0/../../../../include/c++/6.3.0/bits/stl_vector.h:656:50
	sub	r0, r7, r1
.Ltmp379:
	.loc	9 1422 17               @ /usr/bin/../lib/gcc/arm-linux-gnueabihf/6.3.0/../../../../include/c++/6.3.0/bits/stl_vector.h:1422:17
	sub	r2, r8, r0, asr #2
.Ltmp380:
	@DEBUG_VALUE: _M_check_len:__n <- %R5
	.loc	9 1422 6 is_stmt 0      @ /usr/bin/../lib/gcc/arm-linux-gnueabihf/6.3.0/../../../../include/c++/6.3.0/bits/stl_vector.h:1422:6
	cmp	r2, r5
	blo	.LBB11_13
.Ltmp381:
@ BB#3:                                 @ %_ZNKSt6vectorIfSaIfEE12_M_check_lenEjPKc.exit
	@DEBUG_VALUE: _M_check_len:__n <- %R5
	@DEBUG_VALUE: size:this <- %R4
	@DEBUG_VALUE: _M_default_append:this <- %R4
	@DEBUG_VALUE: _M_default_append:__n <- %R5
	.loc	9 656 50 is_stmt 1      @ /usr/bin/../lib/gcc/arm-linux-gnueabihf/6.3.0/../../../../include/c++/6.3.0/bits/stl_vector.h:656:50
	asr	r0, r0, #2
.Ltmp382:
	.loc	9 1425 35               @ /usr/bin/../lib/gcc/arm-linux-gnueabihf/6.3.0/../../../../include/c++/6.3.0/bits/stl_vector.h:1425:35
	cmp	r0, r5
	mov	r2, r0
	mov	r6, #0
	movlo	r2, r5
	add	r0, r2, r0
	.loc	9 1426 25               @ /usr/bin/../lib/gcc/arm-linux-gnueabihf/6.3.0/../../../../include/c++/6.3.0/bits/stl_vector.h:1426:25
	cmp	r6, r0, lsr #30
	mov	r3, r0
	mvnne	r3, #-1073741824
	cmp	r0, r2
	movhs	r8, r3
.Ltmp383:
	@DEBUG_VALUE: _M_allocate:__n <- %R8
	@DEBUG_VALUE: __len <- %R8
	@DEBUG_VALUE: allocate:__n <- %R8
	@DEBUG_VALUE: allocate:__n <- %R8
	.loc	9 170 9                 @ /usr/bin/../lib/gcc/arm-linux-gnueabihf/6.3.0/../../../../include/c++/6.3.0/bits/stl_vector.h:170:9
	cmp	r8, #0
.Ltmp384:
	@DEBUG_VALUE: _M_check_len:__len <- %R0
	beq	.LBB11_6
.Ltmp385:
@ BB#4:
	@DEBUG_VALUE: _M_check_len:__len <- %R0
	@DEBUG_VALUE: allocate:__n <- %R8
	@DEBUG_VALUE: allocate:__n <- %R8
	@DEBUG_VALUE: __len <- %R8
	@DEBUG_VALUE: _M_allocate:__n <- %R8
	@DEBUG_VALUE: _M_check_len:__n <- %R5
	@DEBUG_VALUE: size:this <- %R4
	@DEBUG_VALUE: _M_default_append:this <- %R4
	@DEBUG_VALUE: _M_default_append:__n <- %R5
	.loc	5 101 6                 @ /usr/bin/../lib/gcc/arm-linux-gnueabihf/6.3.0/../../../../include/c++/6.3.0/ext/new_allocator.h:101:6
	cmp	r8, #1073741824
	bhs	.LBB11_14
.Ltmp386:
@ BB#5:                                 @ %_ZNSt16allocator_traitsISaIfEE8allocateERS0_j.exit.i
	@DEBUG_VALUE: _M_check_len:__len <- %R0
	@DEBUG_VALUE: allocate:__n <- %R8
	@DEBUG_VALUE: allocate:__n <- %R8
	@DEBUG_VALUE: __len <- %R8
	@DEBUG_VALUE: _M_allocate:__n <- %R8
	@DEBUG_VALUE: _M_check_len:__n <- %R5
	@DEBUG_VALUE: size:this <- %R4
	@DEBUG_VALUE: _M_default_append:this <- %R4
	@DEBUG_VALUE: _M_default_append:__n <- %R5
	.loc	5 104 46                @ /usr/bin/../lib/gcc/arm-linux-gnueabihf/6.3.0/../../../../include/c++/6.3.0/ext/new_allocator.h:104:46
	lsl	r0, r8, #2
.Ltmp387:
	.loc	5 104 27 is_stmt 0      @ /usr/bin/../lib/gcc/arm-linux-gnueabihf/6.3.0/../../../../include/c++/6.3.0/ext/new_allocator.h:104:27
	bl	_Znwj
.Ltmp388:
	.loc	45 563 22 is_stmt 1     @ /usr/bin/../lib/gcc/arm-linux-gnueabihf/6.3.0/../../../../include/c++/6.3.0/bits/vector.tcc:563:22
	ldm	r4, {r1, r7}
.Ltmp389:
	@DEBUG_VALUE: size:this <- %R4
	.loc	5 104 27                @ /usr/bin/../lib/gcc/arm-linux-gnueabihf/6.3.0/../../../../include/c++/6.3.0/ext/new_allocator.h:104:27
	mov	r6, r0
.Ltmp390:
.LBB11_6:                               @ %_ZNSt12_Vector_baseIfSaIfEE11_M_allocateEj.exit
	@DEBUG_VALUE: allocate:__n <- %R8
	@DEBUG_VALUE: allocate:__n <- %R8
	@DEBUG_VALUE: __len <- %R8
	@DEBUG_VALUE: _M_allocate:__n <- %R8
	@DEBUG_VALUE: _M_check_len:__n <- %R5
	@DEBUG_VALUE: size:this <- %R4
	@DEBUG_VALUE: _M_default_append:this <- %R4
	@DEBUG_VALUE: _M_default_append:__n <- %R5
	@DEBUG_VALUE: __uninitialized_move_if_noexcept_a<float *, float *, std::allocator<float> >:__first <- %R1
	@DEBUG_VALUE: uninitialized_copy<std::move_iterator<float *>, float *>:__assignable <- 1
	@DEBUG_VALUE: __copy_move_a<true, float *, float *>:__simple <- 1
	.loc	41 366 34               @ /usr/bin/../lib/gcc/arm-linux-gnueabihf/6.3.0/../../../../include/c++/6.3.0/bits/stl_algobase.h:366:34
	sub	r2, r7, r1
	mov	r0, #0
	asr	r7, r2, #2
.Ltmp391:
	@DEBUG_VALUE: __copy_m<float>:_Num <- %R7
	.loc	41 367 8                @ /usr/bin/../lib/gcc/arm-linux-gnueabihf/6.3.0/../../../../include/c++/6.3.0/bits/stl_algobase.h:367:8
	cmp	r0, r2, asr #2
	beq	.LBB11_8
.Ltmp392:
@ BB#7:
	@DEBUG_VALUE: __copy_m<float>:_Num <- %R7
	@DEBUG_VALUE: __uninitialized_move_if_noexcept_a<float *, float *, std::allocator<float> >:__first <- %R1
	@DEBUG_VALUE: allocate:__n <- %R8
	@DEBUG_VALUE: allocate:__n <- %R8
	@DEBUG_VALUE: __len <- %R8
	@DEBUG_VALUE: _M_allocate:__n <- %R8
	@DEBUG_VALUE: _M_check_len:__n <- %R5
	@DEBUG_VALUE: size:this <- %R4
	@DEBUG_VALUE: _M_default_append:this <- %R4
	@DEBUG_VALUE: _M_default_append:__n <- %R5
	.loc	41 368 6                @ /usr/bin/../lib/gcc/arm-linux-gnueabihf/6.3.0/../../../../include/c++/6.3.0/bits/stl_algobase.h:368:6
	mov	r0, r6
	bl	memmove
.Ltmp393:
	@DEBUG_VALUE: __uninitialized_move_if_noexcept_a<float *, float *, std::allocator<float> >:__result <- %R6
.LBB11_8:
	@DEBUG_VALUE: __copy_m<float>:_Num <- %R7
	@DEBUG_VALUE: allocate:__n <- %R8
	@DEBUG_VALUE: allocate:__n <- %R8
	@DEBUG_VALUE: __len <- %R8
	@DEBUG_VALUE: _M_allocate:__n <- %R8
	@DEBUG_VALUE: _M_check_len:__n <- %R5
	@DEBUG_VALUE: size:this <- %R4
	@DEBUG_VALUE: _M_default_append:this <- %R4
	@DEBUG_VALUE: _M_default_append:__n <- %R5
	.loc	41 369 20               @ /usr/bin/../lib/gcc/arm-linux-gnueabihf/6.3.0/../../../../include/c++/6.3.0/bits/stl_algobase.h:369:20
	add	r7, r6, r7, lsl #2
.Ltmp394:
	@DEBUG_VALUE: __niter <- %R5
	@DEBUG_VALUE: __fill_n_a<float *, unsigned int, float>:__first <- %R7
	@DEBUG_VALUE: fill_n<float *, unsigned int, float>:__first <- %R7
	@DEBUG_VALUE: __uninit_default_n<float *, unsigned int>:__first <- %R7
	@DEBUG_VALUE: __uninitialized_default_n<float *, unsigned int>:__assignable <- 1
	@DEBUG_VALUE: __uninitialized_default_n<float *, unsigned int>:__first <- %R7
	@DEBUG_VALUE: __uninitialized_default_n_a<float *, unsigned int, float>:__first <- %R7
	@DEBUG_VALUE: __new_finish <- %R7
	.loc	41 754 11               @ /usr/bin/../lib/gcc/arm-linux-gnueabihf/6.3.0/../../../../include/c++/6.3.0/bits/stl_algobase.h:754:11
	lsl	r2, r5, #2
	mov	r1, #0
	mov	r0, r7
	bl	memset
.Ltmp395:
	.loc	45 578 36               @ /usr/bin/../lib/gcc/arm-linux-gnueabihf/6.3.0/../../../../include/c++/6.3.0/bits/vector.tcc:578:36
	ldr	r0, [r4]
.Ltmp396:
	@DEBUG_VALUE: _M_deallocate:__p <- %R0
	@DEBUG_VALUE: deallocate:__p <- %R0
	@DEBUG_VALUE: deallocate:__p <- %R0
	.loc	41 754 11               @ /usr/bin/../lib/gcc/arm-linux-gnueabihf/6.3.0/../../../../include/c++/6.3.0/bits/stl_algobase.h:754:11
	add	r5, r7, r5, lsl #2
.Ltmp397:
	@DEBUG_VALUE: __new_finish <- %R5
	.loc	9 177 6                 @ /usr/bin/../lib/gcc/arm-linux-gnueabihf/6.3.0/../../../../include/c++/6.3.0/bits/stl_vector.h:177:6
	cmp	r0, #0
	beq	.LBB11_10
.Ltmp398:
@ BB#9:
	@DEBUG_VALUE: __new_finish <- %R5
	@DEBUG_VALUE: deallocate:__p <- %R0
	@DEBUG_VALUE: deallocate:__p <- %R0
	@DEBUG_VALUE: _M_deallocate:__p <- %R0
	@DEBUG_VALUE: __uninitialized_default_n_a<float *, unsigned int, float>:__first <- %R7
	@DEBUG_VALUE: __uninitialized_default_n<float *, unsigned int>:__first <- %R7
	@DEBUG_VALUE: __uninit_default_n<float *, unsigned int>:__first <- %R7
	@DEBUG_VALUE: fill_n<float *, unsigned int, float>:__first <- %R7
	@DEBUG_VALUE: __fill_n_a<float *, unsigned int, float>:__first <- %R7
	@DEBUG_VALUE: allocate:__n <- %R8
	@DEBUG_VALUE: allocate:__n <- %R8
	@DEBUG_VALUE: __len <- %R8
	@DEBUG_VALUE: _M_allocate:__n <- %R8
	@DEBUG_VALUE: size:this <- %R4
	@DEBUG_VALUE: _M_default_append:this <- %R4
	.loc	5 110 9                 @ /usr/bin/../lib/gcc/arm-linux-gnueabihf/6.3.0/../../../../include/c++/6.3.0/ext/new_allocator.h:110:9
	bl	_ZdlPv
.Ltmp399:
.LBB11_10:                              @ %_ZNSt12_Vector_baseIfSaIfEE13_M_deallocateEPfj.exit31
	@DEBUG_VALUE: __new_finish <- %R5
	@DEBUG_VALUE: __uninitialized_default_n_a<float *, unsigned int, float>:__first <- %R7
	@DEBUG_VALUE: __uninitialized_default_n<float *, unsigned int>:__first <- %R7
	@DEBUG_VALUE: __uninit_default_n<float *, unsigned int>:__first <- %R7
	@DEBUG_VALUE: fill_n<float *, unsigned int, float>:__first <- %R7
	@DEBUG_VALUE: __fill_n_a<float *, unsigned int, float>:__first <- %R7
	@DEBUG_VALUE: allocate:__n <- %R8
	@DEBUG_VALUE: allocate:__n <- %R8
	@DEBUG_VALUE: __len <- %R8
	@DEBUG_VALUE: _M_allocate:__n <- %R8
	@DEBUG_VALUE: size:this <- %R4
	@DEBUG_VALUE: _M_default_append:this <- %R4
	.loc	45 581 31               @ /usr/bin/../lib/gcc/arm-linux-gnueabihf/6.3.0/../../../../include/c++/6.3.0/bits/vector.tcc:581:31
	str	r6, [r4]
	.loc	45 583 54               @ /usr/bin/../lib/gcc/arm-linux-gnueabihf/6.3.0/../../../../include/c++/6.3.0/bits/vector.tcc:583:54
	add	r0, r6, r8, lsl #2
	.loc	45 582 32               @ /usr/bin/../lib/gcc/arm-linux-gnueabihf/6.3.0/../../../../include/c++/6.3.0/bits/vector.tcc:582:32
	str	r5, [r4, #4]
	.loc	45 583 40               @ /usr/bin/../lib/gcc/arm-linux-gnueabihf/6.3.0/../../../../include/c++/6.3.0/bits/vector.tcc:583:40
	str	r0, [r4, #8]
.Ltmp400:
.LBB11_11:
	@DEBUG_VALUE: _M_default_append:this <- %R4
	.loc	45 586 5 discriminator 2 @ /usr/bin/../lib/gcc/arm-linux-gnueabihf/6.3.0/../../../../include/c++/6.3.0/bits/vector.tcc:586:5
	pop	{r4, r5, r6, r7, r8, r10, r11, pc}
.Ltmp401:
.LBB11_12:                              @ %_ZSt27__uninitialized_default_n_aIPfjfET_S1_T0_RSaIT1_E.exit
	@DEBUG_VALUE: _M_default_append:this <- %R4
	@DEBUG_VALUE: _M_default_append:__n <- %R5
	@DEBUG_VALUE: __uninitialized_default_n<float *, unsigned int>:__assignable <- 1
	@DEBUG_VALUE: __niter <- %R5
	.loc	41 754 11               @ /usr/bin/../lib/gcc/arm-linux-gnueabihf/6.3.0/../../../../include/c++/6.3.0/bits/stl_algobase.h:754:11
	lsl	r2, r5, #2
	mov	r0, r7
	mov	r1, #0
	bl	memset
	add	r0, r7, r5, lsl #2
.Ltmp402:
	.loc	45 548 32               @ /usr/bin/../lib/gcc/arm-linux-gnueabihf/6.3.0/../../../../include/c++/6.3.0/bits/vector.tcc:548:32
	str	r0, [r4, #4]
.Ltmp403:
	.loc	45 586 5 discriminator 2 @ /usr/bin/../lib/gcc/arm-linux-gnueabihf/6.3.0/../../../../include/c++/6.3.0/bits/vector.tcc:586:5
	pop	{r4, r5, r6, r7, r8, r10, r11, pc}
.Ltmp404:
.LBB11_13:
	@DEBUG_VALUE: _M_check_len:__n <- %R5
	@DEBUG_VALUE: size:this <- %R4
	@DEBUG_VALUE: _M_default_append:this <- %R4
	@DEBUG_VALUE: _M_default_append:__n <- %R5
	.loc	9 1423 4                @ /usr/bin/../lib/gcc/arm-linux-gnueabihf/6.3.0/../../../../include/c++/6.3.0/bits/stl_vector.h:1423:4
	movw	r0, :lower16:.L.str.16
	movt	r0, :upper16:.L.str.16
.Ltmp405:
	@DEBUG_VALUE: _M_check_len:__s <- %R0
	mov	lr, pc
	b	_ZSt20__throw_length_errorPKc
.Ltmp406:
.LBB11_14:
	@DEBUG_VALUE: _M_check_len:__len <- %R0
	@DEBUG_VALUE: allocate:__n <- %R8
	@DEBUG_VALUE: allocate:__n <- %R8
	@DEBUG_VALUE: __len <- %R8
	@DEBUG_VALUE: _M_allocate:__n <- %R8
	@DEBUG_VALUE: _M_check_len:__n <- %R5
	@DEBUG_VALUE: size:this <- %R4
	@DEBUG_VALUE: _M_default_append:this <- %R4
	@DEBUG_VALUE: _M_default_append:__n <- %R5
	.loc	5 102 4                 @ /usr/bin/../lib/gcc/arm-linux-gnueabihf/6.3.0/../../../../include/c++/6.3.0/ext/new_allocator.h:102:4
	mov	lr, pc
	b	_ZSt17__throw_bad_allocv
.Ltmp407:
.Lfunc_end11:
	.size	_ZNSt6vectorIfSaIfEE17_M_default_appendEj, .Lfunc_end11-_ZNSt6vectorIfSaIfEE17_M_default_appendEj
	.cfi_endproc
	.fnend

	.section	.text.startup,"ax",%progbits
	.p2align	2
	.type	_GLOBAL__sub_I_SourceSeparation.ii,%function
_GLOBAL__sub_I_SourceSeparation.ii:     @ @_GLOBAL__sub_I_SourceSeparation.ii
.Lfunc_begin12:
	.loc	28 0 0                  @ /root/Bela/projects/Thesis/build/SourceSeparation.cpp:0:0
	.fnstart
	.cfi_startproc
@ BB#0:
	.save	{r4, r5, r6, r7, r8, r9, r10, r11, lr}
	push	{r4, r5, r6, r7, r8, r9, r10, r11, lr}
.Ltmp408:
	.cfi_def_cfa_offset 36
.Ltmp409:
	.cfi_offset lr, -4
.Ltmp410:
	.cfi_offset r11, -8
.Ltmp411:
	.cfi_offset r10, -12
.Ltmp412:
	.cfi_offset r9, -16
.Ltmp413:
	.cfi_offset r8, -20
.Ltmp414:
	.cfi_offset r7, -24
.Ltmp415:
	.cfi_offset r6, -28
.Ltmp416:
	.cfi_offset r5, -32
.Ltmp417:
	.cfi_offset r4, -36
	.setfp	r11, sp, #28
	add	r11, sp, #28
.Ltmp418:
	.cfi_def_cfa r11, 8
	.pad	#4
	sub	sp, sp, #4
.Ltmp419:
	.loc	2 55 18 prologue_end    @ ./libraries/Fft/Fft.h:55:18
	movw	r4, :lower16:.L_MergedGlobals.1
.Ltmp420:
	.loc	11 14 5 discriminator 1 @ /root/Bela/projects/Thesis/SourceSeparation.cpp:14:5
	movw	r9, :lower16:__dso_handle
.Ltmp421:
	.loc	2 55 18                 @ ./libraries/Fft/Fft.h:55:18
	movt	r4, :upper16:.L_MergedGlobals.1
	mov	r6, #0
	mov	r1, r4
.Ltmp422:
	.loc	11 14 5 discriminator 1 @ /root/Bela/projects/Thesis/SourceSeparation.cpp:14:5
	movw	r0, :lower16:_ZN3FftD2Ev
.Ltmp423:
	.loc	2 55 18                 @ ./libraries/Fft/Fft.h:55:18
	str	r6, [r1, #84]!
.Ltmp424:
	@DEBUG_VALUE: Fft:this <- %R1
	.loc	11 14 5 discriminator 1 @ /root/Bela/projects/Thesis/SourceSeparation.cpp:14:5
	movt	r9, :upper16:__dso_handle
	movt	r0, :upper16:_ZN3FftD2Ev
	mov	r2, r9
.Ltmp425:
	.loc	2 56 26                 @ ./libraries/Fft/Fft.h:56:26
	str	r6, [r4, #88]
	.loc	2 57 29                 @ ./libraries/Fft/Fft.h:57:29
	str	r6, [r4, #92]
.Ltmp426:
	.loc	11 14 5 discriminator 1 @ /root/Bela/projects/Thesis/SourceSeparation.cpp:14:5
	bl	__cxa_atexit
.Ltmp427:
	.loc	9 87 22                 @ /usr/bin/../lib/gcc/arm-linux-gnueabihf/6.3.0/../../../../include/c++/6.3.0/bits/stl_vector.h:87:22
	movw	r10, :lower16:.L_MergedGlobals
.Ltmp428:
	.loc	11 28 20 discriminator 1 @ /root/Bela/projects/Thesis/SourceSeparation.cpp:28:20
	movw	r8, :lower16:_ZNSt6vectorIfSaIfEED2Ev
.Ltmp429:
	.loc	9 87 22                 @ /usr/bin/../lib/gcc/arm-linux-gnueabihf/6.3.0/../../../../include/c++/6.3.0/bits/stl_vector.h:87:22
	movt	r10, :upper16:.L_MergedGlobals
.Ltmp430:
	.loc	11 28 20 discriminator 1 @ /root/Bela/projects/Thesis/SourceSeparation.cpp:28:20
	movt	r8, :upper16:_ZNSt6vectorIfSaIfEED2Ev
.Ltmp431:
	.loc	9 87 22                 @ /usr/bin/../lib/gcc/arm-linux-gnueabihf/6.3.0/../../../../include/c++/6.3.0/bits/stl_vector.h:87:22
	mov	r1, r10
.Ltmp432:
	.loc	11 28 20 discriminator 1 @ /root/Bela/projects/Thesis/SourceSeparation.cpp:28:20
	mov	r0, r8
.Ltmp433:
	.loc	9 87 22                 @ /usr/bin/../lib/gcc/arm-linux-gnueabihf/6.3.0/../../../../include/c++/6.3.0/bits/stl_vector.h:87:22
	str	r6, [r1, #92]!
.Ltmp434:
	@DEBUG_VALUE: vector:this <- %R1
	.loc	11 28 20 discriminator 1 @ /root/Bela/projects/Thesis/SourceSeparation.cpp:28:20
	mov	r2, r9
.Ltmp435:
	.loc	9 87 34                 @ /usr/bin/../lib/gcc/arm-linux-gnueabihf/6.3.0/../../../../include/c++/6.3.0/bits/stl_vector.h:87:34
	str	r6, [r10, #96]
	.loc	9 87 47 is_stmt 0       @ /usr/bin/../lib/gcc/arm-linux-gnueabihf/6.3.0/../../../../include/c++/6.3.0/bits/stl_vector.h:87:47
	str	r6, [r10, #100]
.Ltmp436:
	.loc	11 28 20 is_stmt 1 discriminator 1 @ /root/Bela/projects/Thesis/SourceSeparation.cpp:28:20
	bl	__cxa_atexit
.Ltmp437:
	.loc	9 87 22                 @ /usr/bin/../lib/gcc/arm-linux-gnueabihf/6.3.0/../../../../include/c++/6.3.0/bits/stl_vector.h:87:22
	mov	r1, r10
.Ltmp438:
	.loc	11 32 20 discriminator 1 @ /root/Bela/projects/Thesis/SourceSeparation.cpp:32:20
	mov	r0, r8
.Ltmp439:
	.loc	9 87 22                 @ /usr/bin/../lib/gcc/arm-linux-gnueabihf/6.3.0/../../../../include/c++/6.3.0/bits/stl_vector.h:87:22
	str	r6, [r1, #104]!
.Ltmp440:
	.loc	11 32 20 discriminator 1 @ /root/Bela/projects/Thesis/SourceSeparation.cpp:32:20
	mov	r2, r9
.Ltmp441:
	.loc	9 87 34                 @ /usr/bin/../lib/gcc/arm-linux-gnueabihf/6.3.0/../../../../include/c++/6.3.0/bits/stl_vector.h:87:34
	str	r6, [r10, #108]
	.loc	9 87 47 is_stmt 0       @ /usr/bin/../lib/gcc/arm-linux-gnueabihf/6.3.0/../../../../include/c++/6.3.0/bits/stl_vector.h:87:47
	str	r6, [r10, #112]
.Ltmp442:
	.loc	11 32 20 is_stmt 1 discriminator 1 @ /root/Bela/projects/Thesis/SourceSeparation.cpp:32:20
	bl	__cxa_atexit
.Ltmp443:
	@DEBUG_VALUE: _Vector_base:__n <- 1024
	@DEBUG_VALUE: vector:__n <- 1024
	.loc	9 91 25                 @ /usr/bin/../lib/gcc/arm-linux-gnueabihf/6.3.0/../../../../include/c++/6.3.0/bits/stl_vector.h:91:25
	movw	r7, :lower16:_ZL15unwrappedBuffer
.Ltmp444:
	.loc	5 104 27                @ /usr/bin/../lib/gcc/arm-linux-gnueabihf/6.3.0/../../../../include/c++/6.3.0/ext/new_allocator.h:104:27
	mov	r0, #4096
.Ltmp445:
	.loc	9 91 25                 @ /usr/bin/../lib/gcc/arm-linux-gnueabihf/6.3.0/../../../../include/c++/6.3.0/bits/stl_vector.h:91:25
	movt	r7, :upper16:_ZL15unwrappedBuffer
.Ltmp446:
	@DEBUG_VALUE: allocate:__n <- 1024
	@DEBUG_VALUE: allocate:__n <- 1024
	@DEBUG_VALUE: _M_allocate:__n <- 1024
	@DEBUG_VALUE: _M_create_storage:__n <- 1024
	str	r6, [r7]
	.loc	9 91 37 is_stmt 0       @ /usr/bin/../lib/gcc/arm-linux-gnueabihf/6.3.0/../../../../include/c++/6.3.0/bits/stl_vector.h:91:37
	str	r6, [r7, #4]
	.loc	9 91 50                 @ /usr/bin/../lib/gcc/arm-linux-gnueabihf/6.3.0/../../../../include/c++/6.3.0/bits/stl_vector.h:91:50
	str	r6, [r7, #8]
.Ltmp447:
	.loc	5 104 27 is_stmt 1      @ /usr/bin/../lib/gcc/arm-linux-gnueabihf/6.3.0/../../../../include/c++/6.3.0/ext/new_allocator.h:104:27
	bl	_Znwj
.Ltmp448:
	.loc	41 754 11               @ /usr/bin/../lib/gcc/arm-linux-gnueabihf/6.3.0/../../../../include/c++/6.3.0/bits/stl_algobase.h:754:11
	mov	r1, #0
	mov	r2, #4096
.Ltmp449:
	.loc	9 185 25                @ /usr/bin/../lib/gcc/arm-linux-gnueabihf/6.3.0/../../../../include/c++/6.3.0/bits/stl_vector.h:185:25
	str	r0, [r7]
	.loc	9 187 59                @ /usr/bin/../lib/gcc/arm-linux-gnueabihf/6.3.0/../../../../include/c++/6.3.0/bits/stl_vector.h:187:59
	add	r5, r0, #4096
	.loc	9 187 34 is_stmt 0      @ /usr/bin/../lib/gcc/arm-linux-gnueabihf/6.3.0/../../../../include/c++/6.3.0/bits/stl_vector.h:187:34
	str	r5, [r7, #8]
.Ltmp450:
	@DEBUG_VALUE: __niter <- 1024
	@DEBUG_VALUE: __fill_n_a<float *, unsigned int, float>:__n <- 1024
	@DEBUG_VALUE: fill_n<float *, unsigned int, float>:__n <- 1024
	@DEBUG_VALUE: __uninit_default_n<float *, unsigned int>:__n <- 1024
	@DEBUG_VALUE: __uninitialized_default_n<float *, unsigned int>:__assignable <- 1
	@DEBUG_VALUE: __uninitialized_default_n<float *, unsigned int>:__n <- 1024
	@DEBUG_VALUE: __uninitialized_default_n_a<float *, unsigned int, float>:__n <- 1024
	@DEBUG_VALUE: _M_default_initialize:__n <- 1024
	.loc	41 754 11 is_stmt 1     @ /usr/bin/../lib/gcc/arm-linux-gnueabihf/6.3.0/../../../../include/c++/6.3.0/bits/stl_algobase.h:754:11
	bl	memset
.Ltmp451:
	.loc	11 37 27 discriminator 6 @ /root/Bela/projects/Thesis/SourceSeparation.cpp:37:27
	mov	r0, r8
	mov	r1, r7
	mov	r2, r9
.Ltmp452:
	.loc	9 1308 26               @ /usr/bin/../lib/gcc/arm-linux-gnueabihf/6.3.0/../../../../include/c++/6.3.0/bits/stl_vector.h:1308:26
	str	r5, [r7, #4]
.Ltmp453:
	.loc	11 37 27 discriminator 6 @ /root/Bela/projects/Thesis/SourceSeparation.cpp:37:27
	bl	__cxa_atexit
.Ltmp454:
	.loc	11 41 20 discriminator 1 @ /root/Bela/projects/Thesis/SourceSeparation.cpp:41:20
	mov	r0, r8
	mov	r1, r4
	mov	r2, r9
.Ltmp455:
	.loc	9 87 22                 @ /usr/bin/../lib/gcc/arm-linux-gnueabihf/6.3.0/../../../../include/c++/6.3.0/bits/stl_vector.h:87:22
	str	r6, [r4]
	.loc	9 87 34 is_stmt 0       @ /usr/bin/../lib/gcc/arm-linux-gnueabihf/6.3.0/../../../../include/c++/6.3.0/bits/stl_vector.h:87:34
	str	r6, [r4, #4]
	.loc	9 87 47                 @ /usr/bin/../lib/gcc/arm-linux-gnueabihf/6.3.0/../../../../include/c++/6.3.0/bits/stl_vector.h:87:47
	str	r6, [r4, #8]
.Ltmp456:
	.loc	11 41 20 is_stmt 1 discriminator 1 @ /root/Bela/projects/Thesis/SourceSeparation.cpp:41:20
	bl	__cxa_atexit
.Ltmp457:
	.loc	11 42 53                @ /root/Bela/projects/Thesis/SourceSeparation.cpp:42:53
	ldr	r0, [r10]
.Ltmp458:
	.loc	9 87 22                 @ /usr/bin/../lib/gcc/arm-linux-gnueabihf/6.3.0/../../../../include/c++/6.3.0/bits/stl_vector.h:87:22
	mov	r1, r4
.Ltmp459:
	.loc	11 42 47                @ /root/Bela/projects/Thesis/SourceSeparation.cpp:42:47
	mov	r7, #1024
.Ltmp460:
	.loc	9 87 22                 @ /usr/bin/../lib/gcc/arm-linux-gnueabihf/6.3.0/../../../../include/c++/6.3.0/bits/stl_vector.h:87:22
	str	r6, [r1, #12]!
.Ltmp461:
	.loc	11 45 20 discriminator 1 @ /root/Bela/projects/Thesis/SourceSeparation.cpp:45:20
	mov	r2, r9
.Ltmp462:
	.loc	9 87 34                 @ /usr/bin/../lib/gcc/arm-linux-gnueabihf/6.3.0/../../../../include/c++/6.3.0/bits/stl_vector.h:87:34
	str	r6, [r4, #16]
.Ltmp463:
	.loc	11 42 47                @ /root/Bela/projects/Thesis/SourceSeparation.cpp:42:47
	add	r0, r7, r0, lsl #1
	str	r0, [r10, #44]
.Ltmp464:
	.loc	11 45 20 discriminator 1 @ /root/Bela/projects/Thesis/SourceSeparation.cpp:45:20
	mov	r0, r8
.Ltmp465:
	.loc	9 87 47                 @ /usr/bin/../lib/gcc/arm-linux-gnueabihf/6.3.0/../../../../include/c++/6.3.0/bits/stl_vector.h:87:47
	str	r6, [r4, #20]
.Ltmp466:
	.loc	11 45 20 discriminator 1 @ /root/Bela/projects/Thesis/SourceSeparation.cpp:45:20
	bl	__cxa_atexit
.Ltmp467:
	.loc	11 46 53                @ /root/Bela/projects/Thesis/SourceSeparation.cpp:46:53
	ldr	r0, [r10]
.Ltmp468:
	.loc	9 87 22                 @ /usr/bin/../lib/gcc/arm-linux-gnueabihf/6.3.0/../../../../include/c++/6.3.0/bits/stl_vector.h:87:22
	mov	r1, r4
	str	r6, [r1, #24]!
.Ltmp469:
	.loc	11 49 20 discriminator 1 @ /root/Bela/projects/Thesis/SourceSeparation.cpp:49:20
	mov	r2, r9
.Ltmp470:
	.loc	9 87 34                 @ /usr/bin/../lib/gcc/arm-linux-gnueabihf/6.3.0/../../../../include/c++/6.3.0/bits/stl_vector.h:87:34
	str	r6, [r4, #28]
.Ltmp471:
	.loc	11 46 47                @ /root/Bela/projects/Thesis/SourceSeparation.cpp:46:47
	add	r0, r7, r0, lsl #1
	str	r0, [r10, #52]
.Ltmp472:
	.loc	11 49 20 discriminator 1 @ /root/Bela/projects/Thesis/SourceSeparation.cpp:49:20
	mov	r0, r8
.Ltmp473:
	.loc	9 87 47                 @ /usr/bin/../lib/gcc/arm-linux-gnueabihf/6.3.0/../../../../include/c++/6.3.0/bits/stl_vector.h:87:47
	str	r6, [r4, #32]
.Ltmp474:
	.loc	11 49 20 discriminator 1 @ /root/Bela/projects/Thesis/SourceSeparation.cpp:49:20
	bl	__cxa_atexit
.Ltmp475:
	.loc	11 50 53                @ /root/Bela/projects/Thesis/SourceSeparation.cpp:50:53
	ldr	r0, [r10]
.Ltmp476:
	.loc	9 87 22                 @ /usr/bin/../lib/gcc/arm-linux-gnueabihf/6.3.0/../../../../include/c++/6.3.0/bits/stl_vector.h:87:22
	mov	r1, r4
	str	r6, [r1, #36]!
.Ltmp477:
	.loc	11 53 20 discriminator 1 @ /root/Bela/projects/Thesis/SourceSeparation.cpp:53:20
	mov	r2, r9
.Ltmp478:
	.loc	9 87 34                 @ /usr/bin/../lib/gcc/arm-linux-gnueabihf/6.3.0/../../../../include/c++/6.3.0/bits/stl_vector.h:87:34
	str	r6, [r4, #40]
.Ltmp479:
	.loc	11 50 47                @ /root/Bela/projects/Thesis/SourceSeparation.cpp:50:47
	add	r0, r7, r0, lsl #1
	str	r0, [r10, #60]
.Ltmp480:
	.loc	11 53 20 discriminator 1 @ /root/Bela/projects/Thesis/SourceSeparation.cpp:53:20
	mov	r0, r8
.Ltmp481:
	.loc	9 87 47                 @ /usr/bin/../lib/gcc/arm-linux-gnueabihf/6.3.0/../../../../include/c++/6.3.0/bits/stl_vector.h:87:47
	str	r6, [r4, #44]
.Ltmp482:
	.loc	11 53 20 discriminator 1 @ /root/Bela/projects/Thesis/SourceSeparation.cpp:53:20
	bl	__cxa_atexit
.Ltmp483:
	.loc	11 54 53                @ /root/Bela/projects/Thesis/SourceSeparation.cpp:54:53
	ldr	r0, [r10]
.Ltmp484:
	.loc	9 87 22                 @ /usr/bin/../lib/gcc/arm-linux-gnueabihf/6.3.0/../../../../include/c++/6.3.0/bits/stl_vector.h:87:22
	mov	r1, r4
	str	r6, [r1, #48]!
.Ltmp485:
	.loc	11 59 20 discriminator 1 @ /root/Bela/projects/Thesis/SourceSeparation.cpp:59:20
	mov	r2, r9
.Ltmp486:
	.loc	9 87 34                 @ /usr/bin/../lib/gcc/arm-linux-gnueabihf/6.3.0/../../../../include/c++/6.3.0/bits/stl_vector.h:87:34
	str	r6, [r4, #52]
.Ltmp487:
	.loc	11 54 47                @ /root/Bela/projects/Thesis/SourceSeparation.cpp:54:47
	add	r0, r7, r0, lsl #1
	str	r0, [r10, #68]
.Ltmp488:
	.loc	11 59 20 discriminator 1 @ /root/Bela/projects/Thesis/SourceSeparation.cpp:59:20
	mov	r0, r8
.Ltmp489:
	.loc	9 87 47                 @ /usr/bin/../lib/gcc/arm-linux-gnueabihf/6.3.0/../../../../include/c++/6.3.0/bits/stl_vector.h:87:47
	str	r6, [r4, #56]
.Ltmp490:
	.loc	11 59 20 discriminator 1 @ /root/Bela/projects/Thesis/SourceSeparation.cpp:59:20
	bl	__cxa_atexit
.Ltmp491:
	.loc	9 87 22                 @ /usr/bin/../lib/gcc/arm-linux-gnueabihf/6.3.0/../../../../include/c++/6.3.0/bits/stl_vector.h:87:22
	mov	r1, r4
.Ltmp492:
	.loc	11 60 20 discriminator 1 @ /root/Bela/projects/Thesis/SourceSeparation.cpp:60:20
	mov	r0, r8
.Ltmp493:
	.loc	9 87 22                 @ /usr/bin/../lib/gcc/arm-linux-gnueabihf/6.3.0/../../../../include/c++/6.3.0/bits/stl_vector.h:87:22
	str	r6, [r1, #60]!
.Ltmp494:
	.loc	11 60 20 discriminator 1 @ /root/Bela/projects/Thesis/SourceSeparation.cpp:60:20
	mov	r2, r9
.Ltmp495:
	.loc	9 87 34                 @ /usr/bin/../lib/gcc/arm-linux-gnueabihf/6.3.0/../../../../include/c++/6.3.0/bits/stl_vector.h:87:34
	str	r6, [r4, #64]
	.loc	9 87 47 is_stmt 0       @ /usr/bin/../lib/gcc/arm-linux-gnueabihf/6.3.0/../../../../include/c++/6.3.0/bits/stl_vector.h:87:47
	str	r6, [r4, #68]
.Ltmp496:
	.loc	11 60 20 is_stmt 1 discriminator 1 @ /root/Bela/projects/Thesis/SourceSeparation.cpp:60:20
	bl	__cxa_atexit
.Ltmp497:
	@DEBUG_VALUE: _Vector_base:__n <- 513
	@DEBUG_VALUE: vector:__n <- 513
	.loc	9 91 25                 @ /usr/bin/../lib/gcc/arm-linux-gnueabihf/6.3.0/../../../../include/c++/6.3.0/bits/stl_vector.h:91:25
	str	r6, [r4, #72]!
.Ltmp498:
	@DEBUG_VALUE: allocate:__n <- 513
	@DEBUG_VALUE: allocate:__n <- 513
	@DEBUG_VALUE: _M_allocate:__n <- 513
	@DEBUG_VALUE: _M_create_storage:__n <- 513
	.loc	5 104 27                @ /usr/bin/../lib/gcc/arm-linux-gnueabihf/6.3.0/../../../../include/c++/6.3.0/ext/new_allocator.h:104:27
	movw	r0, #2052
	movw	r5, #2052
.Ltmp499:
	.loc	9 91 37                 @ /usr/bin/../lib/gcc/arm-linux-gnueabihf/6.3.0/../../../../include/c++/6.3.0/bits/stl_vector.h:91:37
	str	r6, [r4, #4]
	.loc	9 91 50 is_stmt 0       @ /usr/bin/../lib/gcc/arm-linux-gnueabihf/6.3.0/../../../../include/c++/6.3.0/bits/stl_vector.h:91:50
	str	r6, [r4, #8]
.Ltmp500:
	.loc	5 104 27 is_stmt 1      @ /usr/bin/../lib/gcc/arm-linux-gnueabihf/6.3.0/../../../../include/c++/6.3.0/ext/new_allocator.h:104:27
	bl	_Znwj
.Ltmp501:
	.loc	41 754 11               @ /usr/bin/../lib/gcc/arm-linux-gnueabihf/6.3.0/../../../../include/c++/6.3.0/bits/stl_algobase.h:754:11
	mov	r1, #0
	movw	r2, #2052
.Ltmp502:
	.loc	9 185 25                @ /usr/bin/../lib/gcc/arm-linux-gnueabihf/6.3.0/../../../../include/c++/6.3.0/bits/stl_vector.h:185:25
	str	r0, [r4]
	.loc	9 187 59                @ /usr/bin/../lib/gcc/arm-linux-gnueabihf/6.3.0/../../../../include/c++/6.3.0/bits/stl_vector.h:187:59
	add	r5, r0, r5
	.loc	9 187 34 is_stmt 0      @ /usr/bin/../lib/gcc/arm-linux-gnueabihf/6.3.0/../../../../include/c++/6.3.0/bits/stl_vector.h:187:34
	str	r5, [r4, #8]
.Ltmp503:
	.loc	41 754 11 is_stmt 1     @ /usr/bin/../lib/gcc/arm-linux-gnueabihf/6.3.0/../../../../include/c++/6.3.0/bits/stl_algobase.h:754:11
	bl	memset
.Ltmp504:
	.loc	9 1308 26               @ /usr/bin/../lib/gcc/arm-linux-gnueabihf/6.3.0/../../../../include/c++/6.3.0/bits/stl_vector.h:1308:26
	str	r5, [r4, #4]
.Ltmp505:
	.loc	11 61 20 discriminator 6 @ /root/Bela/projects/Thesis/SourceSeparation.cpp:61:20
	mov	r0, r8
	mov	r1, r4
	mov	r2, r9
.Ltmp506:
	@DEBUG_VALUE: vector:this <- %R1
	@DEBUG_VALUE: vector:this <- %R1
	@DEBUG_VALUE: vector:this <- %R1
	@DEBUG_VALUE: vector:this <- %R1
	@DEBUG_VALUE: vector:this <- %R1
	@DEBUG_VALUE: vector:this <- %R1
	@DEBUG_VALUE: _M_default_initialize:this <- %R4
	@DEBUG_VALUE: vector:this <- %R4
	@DEBUG_VALUE: _M_default_initialize:this <- %R7
	@DEBUG_VALUE: vector:this <- %R7
	@DEBUG_VALUE: __niter <- 513
	@DEBUG_VALUE: __fill_n_a<float *, unsigned int, float>:__n <- 513
	@DEBUG_VALUE: fill_n<float *, unsigned int, float>:__n <- 513
	@DEBUG_VALUE: __uninit_default_n<float *, unsigned int>:__n <- 513
	@DEBUG_VALUE: __uninitialized_default_n<float *, unsigned int>:__assignable <- 1
	@DEBUG_VALUE: __uninitialized_default_n<float *, unsigned int>:__n <- 513
	@DEBUG_VALUE: __uninitialized_default_n_a<float *, unsigned int, float>:__n <- 513
	@DEBUG_VALUE: _M_default_initialize:__n <- 513
	sub	sp, r11, #28
	pop	{r4, r5, r6, r7, r8, r9, r10, r11, lr}
.Ltmp507:
	b	__cxa_atexit
.Ltmp508:
.Lfunc_end12:
	.size	_GLOBAL__sub_I_SourceSeparation.ii, .Lfunc_end12-_GLOBAL__sub_I_SourceSeparation.ii
	.cfi_endproc
	.fnend

	.type	_ZL15unwrappedBuffer,%object @ @_ZL15unwrappedBuffer
	.local	_ZL15unwrappedBuffer
	.comm	_ZL15unwrappedBuffer,12,4
	.type	.L.str,%object          @ @.str
	.section	.rodata.str1.1,"aMS",%progbits,1
.L.str:
	.asciz	"bela-fft-left"
	.size	.L.str, 14

	.type	.L.str.15,%object       @ @.str.15
.L.str.15:
	.asciz	"bela-fft-right"
	.size	.L.str.15, 15

	.type	.L.str.16,%object       @ @.str.16
.L.str.16:
	.asciz	"vector::_M_default_append"
	.size	.L.str.16, 26

	.section	.init_array,"aw",%init_array
	.p2align	2
	.long	_GLOBAL__sub_I_SourceSeparation.ii(target1)
	.type	.L_MergedGlobals,%object @ @_MergedGlobals
	.data
	.p2align	4
.L_MergedGlobals:
	.long	128                     @ 0x80
	.long	1048576000              @ float 0.25
	.long	1119092736              @ float 90
	.long	1097859072              @ float 15
	.long	0                       @ float 0
	.long	0                       @ float 0
	.long	0                       @ float 0
	.long	0                       @ 0x0
	.long	0                       @ 0x0
	.long	0                       @ 0x0
	.long	0                       @ 0x0
	.long	0                       @ 0x0
	.long	0                       @ 0x0
	.long	0                       @ 0x0
	.long	0                       @ 0x0
	.long	0                       @ 0x0
	.long	0                       @ 0x0
	.long	0                       @ 0x0
	.long	0                       @ 0x0
	.long	0
	.long	0                       @ 0x0
	.long	0
	.long	0                       @ 0x0
	.zero	12
	.zero	12
	.size	.L_MergedGlobals, 116

	.type	.L_MergedGlobals.1,%object @ @_MergedGlobals.1
	.local	.L_MergedGlobals.1
	.comm	.L_MergedGlobals.1,100,16
	.type	.L_MergedGlobals.2,%object @ @_MergedGlobals.2
	.local	.L_MergedGlobals.2
	.comm	.L_MergedGlobals.2,32,16